 ResIL

 Timestamp is 55b5df18 (Mon Jul 27 17:34:48 2015)

 Preferred load address is 10000000

 Start         Length     Name                   Class
 0001:00000000 0000062dH .text$di                CODE
 0001:00000630 001879c8H .text$mn                CODE
 0001:00188000 00003d9bH .text$x                 CODE
 0001:0018bda0 00001149H .text$yd                CODE
 0002:00000000 00000190H .idata$5                DATA
 0002:00000190 00000004H .CRT$XCA                DATA
 0002:00000194 0000000cH .CRT$XCC                DATA
 0002:000001a0 00000008H .CRT$XCL                DATA
 0002:000001a8 000000c8H .CRT$XCU                DATA
 0002:00000270 00000004H .CRT$XCZ                DATA
 0002:00000274 00000004H .CRT$XIA                DATA
 0002:00000278 00000014H .CRT$XIC                DATA
 0002:0000028c 00000004H .CRT$XIZ                DATA
 0002:00000290 00000004H .CRT$XLA                DATA
 0002:00000294 00000004H .CRT$XLZ                DATA
 0002:00000298 00000004H .CRT$XPA                DATA
 0002:0000029c 0000000cH .CRT$XPX                DATA
 0002:000002a8 00000004H .CRT$XPXA               DATA
 0002:000002ac 00000004H .CRT$XPZ                DATA
 0002:000002b0 00000004H .CRT$XTA                DATA
 0002:000002b4 00000004H .CRT$XTZ                DATA
 0002:000002c0 00163468H .rdata                  DATA
 0002:00163728 00000018H .rdata$T                DATA
 0002:00163740 00000078H .rdata$debug            DATA
 0002:001637b8 00004520H .rdata$r                DATA
 0002:00167ce0 000003d4H .rdata$sxdata           DATA
 0002:001680b4 00000004H .rtc$IAA                DATA
 0002:001680b8 00000004H .rtc$IZZ                DATA
 0002:001680bc 00000004H .rtc$TAA                DATA
 0002:001680c0 00000004H .rtc$TZZ                DATA
 0002:001680c8 00006b14H .xdata$x                DATA
 0002:0016ebe0 0000198bH .edata                  DATA
 0002:0017056c 00000028H .idata$2                DATA
 0002:00170594 00000014H .idata$3                DATA
 0002:001705a8 00000190H .idata$4                DATA
 0002:00170738 000006e8H .idata$6                DATA
 0003:00000000 00109400H .data                   DATA
 0003:00109400 00001f9bH .data$r                 DATA
 0003:0010b3a0 0000b780H .bss                    DATA
 0004:00000000 00000001H .tls                    DATA
 0004:00000004 00000004H .stls                   DATA
 0004:00000008 00000001H .tls$ZZZ                DATA
 0005:00000000 00000058H .rsrc$01                DATA
 0005:00000060 00000180H .rsrc$02                DATA

  Address         Publics by Value              Rva+Base       Lib:Object

 0000:00000000       ___guard_fids_count        00000000     <absolute>
 0000:00000000       ___guard_fids_table        00000000     <absolute>
 0000:00000000       __except_list              00000000     <absolute>
 0000:00000000       ___guard_flags             00000000     <absolute>
 0000:0000002c       __tls_array                0000002c     <absolute>
 0000:000000f5       ___safe_se_handler_count   000000f5     <absolute>
 0000:00000000       ___ImageBase               10000000     <linker-defined>
 0001:00000630       ?ialloc@@YGPAXI@Z          10001630 f   il_alloc.obj
 0001:00000660       ?ifree@@YGXPBX@Z           10001660 f   il_alloc.obj
 0001:00000680       ?icalloc@@YGPAXII@Z        10001680 f   il_alloc.obj
 0001:00000710       ?use@ILpal@@QAEEHPAEI@Z    10001710 f i il_api1.obj
 0001:00000830       ?clear@ILpal@@QAEXXZ       10001830 f i il_api1.obj
 0001:00000860       ?ilGenImages@@YGXIPAI@Z    10001860 f   il_api1.obj
 0001:00000a40       ?ilGenImage@@YGIXZ         10001a40 f   il_api1.obj
 0001:00000a60       ?ilBindImage@@YGXI@Z       10001a60 f   il_api1.obj
 0001:00000c00       ?ilDeleteImages@@YGXIPBI@Z 10001c00 f   il_api1.obj
 0001:00000cd0       ?ilDeleteImage@@YGXI@Z     10001cd0 f   il_api1.obj
 0001:00000d00       ?ilIsImage@@YGEI@Z         10001d00 f   il_api1.obj
 0001:00000d30       ?ilCloseImage@@YGXPAX@Z    10001d30 f   il_api1.obj
 0001:00000e40       ?ilResetWrite@@YGXXZ       10001e40 f   il_api1.obj
 0001:00000e90       ?ilSetRead@@YGXP6GPAXPB_W@ZP6GXPAUSIO@@@ZP6GE2@ZP6GH2@ZP6G_J2PAXII@ZP6G_J2_JI@ZP6G_J2@Z@Z 10001e90 f   il_api1.obj
 0001:00000ef0       ?ilResetRead@@YGXXZ        10001ef0 f   il_api1.obj
 0001:00000f50       ?ilSetWrite@@YGXP6GPAXPB_W@ZP6GXPAUSIO@@@ZP6GHE2@ZP6G_J2_JI@ZP6G_J2@ZP6G_JPBXII2@Z@Z 10001f50 f   il_api1.obj
 0001:00000fa0       ?ilGetLumpPos@@YG_KXZ      10001fa0 f   il_api1.obj
 0001:00000fe0       ?ilDetermineTypeFuncs@@YGIXZ 10001fe0 f   il_api1.obj
 0001:00001000       ?ilDetermineType@@YGIPB_W@Z 10002000 f   il_api1.obj
 0001:00001010       ?ilLoadF@@YGEIPAX@Z        10002010 f   il_api1.obj
 0001:00001030       ?ilLoadL@@YGEIPBXI@Z       10002030 f   il_api1.obj
 0001:00001090       ?ilLoad@@YGEIPB_W@Z        10002090 f   il_api1.obj
 0001:000010b0       ?ilLoadFuncs@@YGEI@Z       100020b0 f   il_api1.obj
 0001:000010d0       ?ilLoadImage@@YGEPB_W@Z    100020d0 f   il_api1.obj
 0001:000010f0       ?ilSaveFuncs@@YGEI@Z       100020f0 f   il_api1.obj
 0001:00001110       ?ilDetermineSize@@YG_JI@Z  10002110 f   il_api1.obj
 0001:00001130       ?ilSave@@YGEIPB_W@Z        10002130 f   il_api1.obj
 0001:00001150       ?ilSaveImage@@YGEPB_W@Z    10002150 f   il_api1.obj
 0001:00001170       ?ilSaveF@@YGIIPAX@Z        10002170 f   il_api1.obj
 0001:00001190       ?ilSaveL@@YG_JIPAXI@Z      10002190 f   il_api1.obj
 0001:000011b0       ?ilTexImage@@YGEIIIEIIPAX@Z 100021b0 f   il_api1.obj
 0001:000011e0       ?il2ApplyProfile@@YGEPA_W0@Z 100021e0 f   il_api1.obj
 0001:00001200       ?ilConvertImage@@YGEII@Z   10002200 f   il_api1.obj
 0001:00001220       ?ilSwapColours@@YAEXZ      10002220 f   il_api1.obj
 0001:00001230       ?ilFixCur@@YAEXZ           10002230 f   il_api1.obj
 0001:00001230       ?ilFixImage@@YAEXZ         10002230 f   il_api1.obj
 0001:00001240       ?ilRemoveAlpha@@YAEXZ      10002240 f   il_api1.obj
 0001:00001250       ?ilSetData@@YGEPAX@Z       10002250 f   il_api1.obj
 0001:00001290       ?ilGetData@@YGPAEXZ        10002290 f   il_api1.obj
 0001:000012c0       ?ilGetPalette@@YGPAEXZ     100022c0 f   il_api1.obj
 0001:000012f0       ?ilClearImage@@YGEXZ       100022f0 f   il_api1.obj
 0001:00001300       ?ilSurfaceToDxtcData@@YGEI@Z 10002300 f   il_api1.obj
 0001:00001320       ?ilDefaultImage@@YGEXZ     10002320 f   il_api1.obj
 0001:00001330       ?ilGetAlpha@@YGPAEI@Z      10002330 f   il_api1.obj
 0001:00001350       ?ilBlit@@YGEIHHHIIIIII@Z   10002350 f   il_api1.obj
 0001:000013c0       ?ilOverlayImage@@YGEIHHH@Z 100023c0 f   il_api1.obj
 0001:00001480       ?ilCopyImage@@YGEI@Z       10002480 f   il_api1.obj
 0001:00001500       ?ilCloneCurImage@@YGIXZ    10002500 f   il_api1.obj
 0001:00001590       ?ilGetCurName@@YGIXZ       10002590 f   il_api1.obj
 0001:000015c0       ?ilGetCurImage@@YGPAUILimage@@XZ 100025c0 f   il_api1.obj
 0001:000015d0       ?ilActiveImage@@YGEI@Z     100025d0 f   il_api1.obj
 0001:00001600       ?ilReplaceCurImage@@YGXPAUILimage@@@Z 10002600 f   il_api1.obj
 0001:00001660       ?ilRecalloc@@YGPAXPAXII@Z  10002660 f   il_api1.obj
 0001:000016e0       ?iEnlargeStack@@YAEXZ      100026e0 f   il_api1.obj
 0001:00001720       ?ilShutDown@@YGXXZ         10002720 f   il_api1.obj
 0001:000018b0       ?iBindImageTemp@@YGXXZ     100028b0 f   il_api1.obj
 0001:000019a0       ?ilActiveMipmap@@YGEI@Z    100029a0 f   il_api1.obj
 0001:000019d0       ?ilActiveFace@@YGEI@Z      100029d0 f   il_api1.obj
 0001:00001a00       ?ilActiveLayer@@YGEI@Z     10002a00 f   il_api1.obj
 0001:00001a30       ?ilSetCurImage@@YGXPAUILimage@@@Z 10002a30 f   il_api1.obj
 0001:00001a40       ?ilCreateSubImage@@YGIII@Z 10002a40 f   il_api1.obj
 0001:00001a60       ?iGetActiveNum@@YAII@Z     10002a60 f   il_api1.obj
 0001:00001b10       ?ilSetImageInteger@@YGXIH@Z 10002b10 f   il_api1.obj
 0001:00001b30       ?ilGetImageInteger@@YGXIPAH@Z 10002b30 f   il_api1.obj
 0001:00001b50       ?ilInit@@YGXXZ             10002b50 f   il_api1.obj
 0001:00001b50       ?il2Init@@YGXXZ            10002b50 f   il_stack.obj
 0001:00001b80       ?ilRegisterPal@@YGXPAXII@Z 10002b80 f   il_api1.obj
 0001:00001ba0       ?ilGetIntegerv@@YGXIPAH@Z  10002ba0 f   il_api1.obj
 0001:00001bb0       ?il2GetInteger@@YGHI@Z     10002bb0 f   il_states.obj
 0001:00001bb0       ?ilGetInteger@@YGHI@Z      10002bb0 f   il_api1.obj
 0001:00001bd0       ?ilGetDXTCData@@YGIPAXII@Z 10002bd0 f   il_api1.obj
 0001:00001bf0       ?ilClearColour@@YGXMMMM@Z  10002bf0 f   il_api1.obj
 0001:00001c30       ?ilEnable@@YGEI@Z          10002c30 f   il_api1.obj
 0001:00001c30       ?il2Enable@@YGEI@Z         10002c30 f   il_devil.obj
 0001:00001c50       ?il2Disable@@YGEI@Z        10002c50 f   il_devil.obj
 0001:00001c50       ?ilDisable@@YGEI@Z         10002c50 f   il_api1.obj
 0001:00001c70       ?il2GetBooleanv@@YGXIPAE@Z 10002c70 f   il_states.obj
 0001:00001c70       ?ilGetBooleanv@@YGXIPAE@Z  10002c70 f   il_api1.obj
 0001:00001cc0       ?il2GetBoolean@@YGEI@Z     10002cc0 f   il_states.obj
 0001:00001cc0       ?ilGetBoolean@@YGEI@Z      10002cc0 f   il_api1.obj
 0001:00001ce0       ?ilSetError@@YGXI@Z        10002ce0 f   il_api1.obj
 0001:00001ce0       ?il2SetError@@YGXI@Z       10002ce0 f   il_error.obj
 0001:00001d00       ?il2GetError@@YGIXZ        10002d00 f   il_error.obj
 0001:00001d00       ?ilGetError@@YGIXZ         10002d00 f   il_api1.obj
 0001:00001d20       ?ilSetInteger@@YGXIH@Z     10002d20 f   il_api1.obj
 0001:00001d30       ?ilSetPixels@@YGXHHHIIIIIPAX@Z 10002d30 f   il_api1.obj
 0001:00001d60       ?ilConvertPal@@YGEI@Z      10002d60 f   il_api1.obj
 0001:00001d80       ?ilIsEnabled@@YGEI@Z       10002d80 f   il_api1.obj
 0001:00001d90       ?ilGetString@@YGPB_WI@Z    10002d90 f   il_api1.obj
 0001:00001da0       ?ilSetPal@@YGXPAVILpal@@@Z 10002da0 f   il_api1.obj
 0001:00001dd0       ?ilLoadPal@@YGEPB_W@Z      10002dd0 f   il_api1.obj
 0001:00001df0       ?bfile@@YAPAUBITFILE@@PAUSIO@@@Z 10002df0 f   il_bits.obj
 0001:00001e50       ?bread@@YAHPAXIIPAUBITFILE@@@Z 10002e50 f   il_bits.obj
 0001:00001ed0       ?readFromFile@ILpal@@QAEEPAUSIO@@@Z 10002ed0 f i il_blp.obj
 0001:00001f00       ?hasPalette@ILpal@@QBEEXZ  10002f00 f i il_blp.obj
 0001:00001f20       ??4ILpal@@QAEXABV0@@Z      10002f20 f i il_blp.obj
 0001:00001f80       ?GetLittleUInt@@YAIPAUSIO@@@Z 10002f80 f i il_blp.obj
 0001:00001fa0       ?iCheckBlp2@@YAEPAUBLP2HEAD@@@Z 10002fa0 f   il_blp.obj
 0001:00002010       ?iIsValidBlp1@@YAEPAUSIO@@@Z 10003010 f   il_blp.obj
 0001:000020d0       ?iIsValidBlp@@YAEPAUSIO@@@Z 100030d0 f   il_blp.obj
 0001:00002150       ?iLoadBlp1@@YAEPAUILimage@@@Z 10003150 f   il_blp.obj
 0001:000026e0       ?iLoadBlpInternal@@YAEPAUILimage@@@Z 100036e0 f   il_blp.obj
 0001:00002fd0       ??0ILpal@@QAE@XZ           10003fd0 f i il_bmp.obj
 0001:00003000       ??1ILpal@@UAE@XZ           10004000 f i il_bmp.obj
 0001:00003030       ?setRGBA@ILpal@@QAEEIEEEE@Z 10004030 f i il_bmp.obj
 0001:000030a0       ?writeToFile@ILpal@@QAEEPAUSIO@@@Z 100040a0 f i il_bmp.obj
 0001:000030d0       ??_GILpal@@UAEPAXI@Z       100040d0 f i il_bmp.obj
 0001:000030d0       ??_EILpal@@UAEPAXI@Z       100040d0 f i * CIL library *:* CIL module *
 0001:00003110       ?iCheckBmp@@YAEQBUBMPHEAD@@@Z 10004110 f   il_bmp.obj
 0001:00003190       ?iCheckOS2@@YAEQBUOS2_HEAD@@@Z 10004190 f   il_bmp.obj
 0001:000031e0       ?iIsValidBmp@@YAEPAUSIO@@@Z 100041e0 f   il_bmp.obj
 0001:000032b0       ?GetShiftFromMask@@YAXIQAI0@Z 100042b0 f i il_bmp.obj
 0001:000032b0       ?GetBitsFromMask@@YAXIPAI0@Z 100042b0 f i il_dds.obj
 0001:00003300       ?iGetOS2Bmp@@YAEPAUILimage@@PAUOS2_HEAD@@@Z 10004300 f   il_bmp.obj
 0001:00003780       ?ilReadUncompBmp1@@YAEPAUILimage@@PAUBMPHEAD@@@Z 10004780 f   il_bmp.obj
 0001:00003930       ?ilReadUncompBmp4@@YAEPAUILimage@@PAUBMPHEAD@@@Z 10004930 f   il_bmp.obj
 0001:00003ae0       ?ilReadUncompBmp8@@YAEPAUILimage@@PAUBMPHEAD@@@Z 10004ae0 f   il_bmp.obj
 0001:00003c50       ?ilReadUncompBmp16@@YAEPAUILimage@@PAUBMPHEAD@@@Z 10004c50 f   il_bmp.obj
 0001:00003eb0       ?ilReadUncompBmp24@@YAEPAUILimage@@PAUBMPHEAD@@@Z 10004eb0 f   il_bmp.obj
 0001:00003f70       ?ilReadUncompBmp32@@YAEPAUILimage@@PAUBMPHEAD@@@Z 10004f70 f   il_bmp.obj
 0001:00004040       ?ilReadUncompBmp@@YAEPAUILimage@@PAUBMPHEAD@@@Z 10005040 f   il_bmp.obj
 0001:00004120       ?ilReadRLE8Bmp@@YAEPAUILimage@@PAUBMPHEAD@@@Z 10005120 f   il_bmp.obj
 0001:00004380       ?ilReadRLE4Bmp@@YAEPAUILimage@@PAUBMPHEAD@@@Z 10005380 f   il_bmp.obj
 0001:00004640       ?iLoadBitmapInternal@@YAEPAUILimage@@@Z 10005640 f   il_bmp.obj
 0001:00004790       ?iSaveBitmapInternal@@YAEPAUILimage@@@Z 10005790 f   il_bmp.obj
 0001:00004b40       ?ilFloatToHalf@@YGGI@Z     10005b40 f i il_convbuff.obj
 0001:00004bf0       ?dds_halfToFloat@@YAIG@Z   10005bf0 f i il_dds.obj
 0001:00004bf0       ?ilHalfToFloat@@YGIG@Z     10005bf0 f i il_convbuff.obj
 0001:00004c70       ?ilConvertBuffer@@YGPAXIIIIIPAVILpal@@PAX@Z 10005c70 f   il_convbuff.obj
 0001:00008fa0       ?iSwitchTypes@@YGPAXIIIPAX@Z 10009fa0 f   il_convbuff.obj
 0001:0000a6e0       ?setRGB@ILpal@@QAEEIEEE@Z  1000b6e0 f i il_convert.obj
 0001:0000a740       ?getRGB@ILpal@@QAEEIAAE00@Z 1000b740 f i il_convert.obj
 0001:0000a7a0       ?iConvertPalette@@YAPAUILimage@@PAU1@I@Z 1000b7a0 f   il_convert.obj
 0001:0000a7e0       ?iConvertImage@@YGPAUILimage@@PAU1@II@Z 1000b7e0 f   il_convert.obj
 0001:0000aac0       ?il2ConvertImage@@YGEPAUILimage@@II@Z 1000bac0 f   il_convert.obj
 0001:0000ac50       ?il2SwapColours@@YAEPAUILimage@@@Z 1000bc50 f   il_convert.obj
 0001:0000afe0       ?ilAddAlphaKey@@YAEPAUILimage@@@Z 1000bfe0 f   il_convert.obj
 0001:0000b550       ?il2RemoveAlpha@@YAEPAUILimage@@@Z 1000c550 f   il_convert.obj
 0001:0000b7f0       ?il2FixCur@@YAEPAUILimage@@@Z 1000c7f0 f   il_convert.obj
 0001:0000b920       ?il2FixImage@@YAEPAUILimage@@@Z 1000c920 f   il_convert.obj
 0001:0000bae0       ?readScanLine@@YA_NPAUILimage@@PAEGH@Z 1000cae0 f   il_cut.obj
 0001:0000bbd0       ?iLoadCutInternal@@YAEPAUILimage@@@Z 1000cbd0 f   il_cut.obj
 0001:0000bd40       ?GetLittleUShort@@YAGPAUSIO@@@Z 1000cd40 f i il_dcx.obj
 0001:0000bd60       ?GetCubemapInfo@@YAIPAUILimage@@PAH@Z 1000cd60 f   il_dds-save.obj
 0001:0000bef0       ?CompressTo88@@YAPAEPAUILimage@@@Z 1000cef0 f   il_dds-save.obj
 0001:0000c090       ?CompressToRXGB@@YAXPAUILimage@@PAPAGPAPAE@Z 1000d090 f   il_dds-save.obj
 0001:0000c410       ?GenBitMask@@YAIGGIPAGPAEPAUColor888@@@Z 1000d410 f   il_dds-save.obj
 0001:0000c6b0       ?GenAlphaBitMask@@YAXEEPAE00@Z 1000d6b0 f   il_dds-save.obj
 0001:0000c920       ?GetBlock@@YAEPAG0PAUILimage@@II@Z 1000d920 f   il_dds-save.obj
 0001:0000c9d0       ?GetAlphaBlock@@YAEPAE0PAUILimage@@II@Z 1000d9d0 f   il_dds-save.obj
 0001:0000ca80       ?Get3DcBlock@@YAEPAE0PAUILimage@@IIH@Z 1000da80 f   il_dds-save.obj
 0001:0000cb20       ?As16Bit@@YAGHHH@Z         1000db20 f   il_dds-save.obj
 0001:0000cb80       ?CompressTo565@@YAPAGPAUILimage@@@Z 1000db80 f   il_dds-save.obj
 0001:0000ce90       ?ChooseEndpoints@@YAXPAG00@Z 1000de90 f   il_dds-save.obj
 0001:0000cfa0       ?Compress@@YAIPAUILimage@@I@Z 1000dfa0 f   il_dds-save.obj
 0001:0000d820       ?iSaveDdsInternal@@YAEPAUILimage@@@Z 1000e820 f   il_dds-save.obj
 0001:0000db90       ?WriteHeader@@YAEPAUILimage@@II@Z 1000eb90 f   il_dds-save.obj
 0001:0000dee0       ?il2GetDXTCData@@YGIPAUILimage@@PAXII@Z 1000eee0 f   il_dds-save.obj
 0001:0000e030       ?ilCompressDXT@@YGPAEPAUILimage@@PAEIIIIPAI@Z 1000f030 f   il_dds-save.obj
 0001:0000e160       ?iGetDdsHead@@YAEPAUSIO@@PAUDDSHEAD@@@Z 1000f160 f   il_dds.obj
 0001:0000e360       ?iIsValidDds@@YAEPAUSIO@@@Z 1000f360 f   il_dds.obj
 0001:0000e3f0       ?Check16BitComponents@@YAXPAUDDSHEAD@@AAE@Z 1000f3f0 f   il_dds.obj
 0001:0000e450       ?iCompFormatToBpp@@YAEPAUDDSHEAD@@I@Z 1000f450 f   il_dds.obj
 0001:0000e4b0       ?iCompFormatToChannelCount@@YAEI@Z 1000f4b0 f   il_dds.obj
 0001:0000e4f0       ?ReadData@@YAEPAUSIO@@PAUDDSHEAD@@AAPAE@Z 1000f4f0 f   il_dds.obj
 0001:0000e640       ?AllocImage@@YAEPAUILimage@@PAUDDSHEAD@@IAAPAEE@Z 1000f640 f   il_dds.obj
 0001:0000e800       ?DecompressARGB@@YAEPAUILimage@@PAUDDSHEAD@@IAAPAEE@Z 1000f800 f   il_dds.obj
 0001:0000ea20       ?DxtcReadColor@@YAXGPAUColor8888@@@Z 1000fa20 f   il_dds.obj
 0001:0000ea60       ?DecompressDXT1@@YAEPAUILimage@@PAE@Z 1000fa60 f   il_dds.obj
 0001:0000edd0       ?CorrectPreMult@@YAXPAUILimage@@@Z 1000fdd0 f   il_dds.obj
 0001:0000ee40       ?DecompressDXT3@@YAEPAUILimage@@AAPAE@Z 1000fe40 f   il_dds.obj
 0001:0000f350       ?DecompressDXT5@@YAEPAUILimage@@AAPAE@Z 10010350 f   il_dds.obj
 0001:0000fb10       ?Decompress3Dc@@YAEPAUILimage@@PAUDDSHEAD@@AAPAE@Z 10010b10 f   il_dds.obj
 0001:0000ff80       ?iConvFloat16ToFloat32@@YAEPAIPAGI@Z 10010f80 f   il_dds.obj
 0001:00010020       ?iConvG16R16ToFloat32@@YAEPAIPAGI@Z 10011020 f   il_dds.obj
 0001:000100d0       ?iConvR16ToFloat32@@YAEPAIPAGI@Z 100110d0 f   il_dds.obj
 0001:00010180       ?DecompressFloat@@YAEPAUILimage@@IAAPAE@Z 10011180 f   il_dds.obj
 0001:000102f0       ?DecompressAti1n@@YAEPAUILimage@@PAUDDSHEAD@@AAPAE@Z 100112f0 f   il_dds.obj
 0001:000105e0       ?DecompressRXGB@@YAEPAUILimage@@PAUDDSHEAD@@AAPAE@Z 100115e0 f   il_dds.obj
 0001:00010da0       ?DdsDecompress@@YAEPAUILimage@@PAUDDSHEAD@@IAAPAE@Z 10011da0 f   il_dds.obj
 0001:00010f60       ?Adjustment@@YAHH@Z        10011f60 f   il_dds.obj
 0001:00010f90       ?ReadMipmaps@@YAEPAUILimage@@PAUDDSHEAD@@IAAPAEEPAUSIO@@@Z 10011f90 f   il_dds.obj
 0001:00011440       ?iLoadDdsCubemapInternal@@YAEPAUILimage@@PAUDDSHEAD@@IE@Z 10012440 f   il_dds.obj
 0001:00011630       ?DecodePixelFormat@@YAIPAUDDSHEAD@@PAI@Z 10012630 f   il_dds.obj
 0001:000118a0       ?AdjustVolumeTexture@@YAXPAUDDSHEAD@@I@Z 100128a0 f   il_dds.obj
 0001:000119c0       ?iLoadDdsInternal@@YAEPAUILimage@@@Z 100129c0 f   il_dds.obj
 0001:00011c80       ?ilGetDxtcData@@YGPAEPAUILimage@@@Z 10012c80 f   il_dds.obj
 0001:00011cb0       ?iDxtcDataToSurface@@YGEPAUILimage@@PAUDDSHEAD@@@Z 10012cb0 f   il_dds.obj
 0001:00011dd0       ?iDxtcDataToImage@@YGEPAUILimage@@PAUDDSHEAD@@@Z 10012dd0 f   il_dds.obj
 0001:00011ec0       ?iSurfaceToDxtcData@@YGEPAUILimage@@I@Z 10012ec0 f   il_dds.obj
 0001:00011fc0       ?ilImageToDxtcData@@YGEPAUILimage@@I@Z 10012fc0 f   il_dds.obj
 0001:000120b0       ?ilTexImageDxtc@@YGEPAUILimage@@HHHIPBE@Z 100130b0 f   il_dds.obj
 0001:00012210       ?iFlipComplexAlphaBlock@@YAXPAE@Z 10013210 f   il_dds.obj
 0001:000122e0       ?iFlipDxt1@@YAXPAEI@Z      100132e0 f   il_dds.obj
 0001:00012320       ?iFlipDxt3@@YAXPAEI@Z      10013320 f   il_dds.obj
 0001:00012380       ?iFlipDxt5@@YAXPAEI@Z      10013380 f   il_dds.obj
 0001:000123c0       ?iFlip3dc@@YAXPAEI@Z       100133c0 f   il_dds.obj
 0001:000124c0       ?ilFlipSurfaceDxtcData@@YGXPAUILimage@@@Z 100134c0 f   il_dds.obj
 0001:00012690       ?iInvertDxt3Alpha@@YAXPAE@Z 10013690 f   il_dds.obj
 0001:000126b0       ?iInvertDxt5Alpha@@YAXPAE@Z 100136b0 f   il_dds.obj
 0001:00012770       ?ilInvertSurfaceDxtcDataAlpha@@YGEPAUILimage@@@Z 10013770 f   il_dds.obj
 0001:00012820       ?il2InitImage@@YGEPAUILimage@@IIIEIIPAX@Z 10013820 f   il_devil.obj
 0001:000128a0       ?il2NewImage@@YGPAUILimage@@IIIEE@Z 100138a0 f   il_devil.obj
 0001:00012940       ?il2GenImage@@YGPAUILimage@@XZ 10013940 f   il_devil.obj
 0001:000129b0       ?ilNewImageFull@@YGPAUILimage@@IIIEIIPAX@Z 100139b0 f   il_devil.obj
 0001:00012a30       ?il2DeleteImage@@YGXPAUILimage@@@Z 10013a30 f   il_devil.obj
 0001:00012aa0       ?il2TexImage@@YGEPAUILimage@@IIIEIIPAX@Z 10013aa0 f   il_devil.obj
 0001:00012c30       ?il2TexSubImage_@@YGEPAUILimage@@PAX@Z 10013c30 f   il_devil.obj
 0001:00012cb0       ?il2SetData@@YGEPAUILimage@@PAX@Z 10013cb0 f   il_devil.obj
 0001:00012ce0       ?il2GetData@@YGPAEPAUILimage@@@Z 10013ce0 f   il_devil.obj
 0001:00012d10       ?il2GetPalette@@YGPAEPAUILimage@@@Z 10013d10 f   il_devil.obj
 0001:00012d40       ?il2ClearColour@@YGXMMMM@Z 10013d40 f   il_devil.obj
 0001:00012e70       ?il2GetClear@@YGXPAXII@Z   10013e70 f   il_devil.obj
 0001:000135d0       ?il2ClearImage@@YGEPAUILimage@@@Z 100145d0 f   il_devil.obj
 0001:000138b0       ?il2OverlayImage@@YGEPAUILimage@@0HHH@Z 100148b0 f   il_devil.obj
 0001:000138e0       ?il2Blit@@YGEPAUILimage@@0HHHIIIIII@Z 100148e0 f   il_devil.obj
 0001:00013e00       ?il2CopyImageAttr@@YGEPAUILimage@@0@Z 10014e00 f   il_devil.obj
 0001:00014000       ?il2CopyImage_@@YGPAUILimage@@PAU1@@Z 10015000 f   il_devil.obj
 0001:00014080       ?il2CloneImage@@YGPAUILimage@@PAU1@@Z 10015080 f   il_devil.obj
 0001:000140e0       ?il2ResizeImage@@YGEPAUILimage@@IIIEE@Z 100150e0 f   il_devil.obj
 0001:00014190       ?il2GetFrame@@YGPAUILimage@@PAU1@I@Z 10015190 f   il_devil.obj
 0001:000141f0       ?il2GetFace@@YGPAUILimage@@PAU1@I@Z 100151f0 f   il_devil.obj
 0001:00014240       ?il2GetMipmap@@YGPAUILimage@@PAU1@I@Z 10015240 f   il_devil.obj
 0001:00014410       ?il2GetLayer@@YGPAUILimage@@PAU1@I@Z 10015410 f   il_devil.obj
 0001:00014460       ?il2CopyImage@@YGEPAUILimage@@0@Z 10015460 f   il_devil.obj
 0001:000144c0       ?iSwapUInt@@YAXPAI@Z       100154c0 f i il_dicom.obj
 0001:000144f0       ?GetShort@@YAIPAUSIO@@PAUDICOMHEAD@@G@Z 100154f0 f   il_dicom.obj
 0001:00014540       ?GetInt@@YAIPAUSIO@@PAUDICOMHEAD@@G@Z 10015540 f   il_dicom.obj
 0001:000145b0       ?GetNumericValue@@YAEPAUSIO@@PAUDICOMHEAD@@GPAI@Z 100155b0 f   il_dicom.obj
 0001:000146c0       ?GetUID@@YAEPAUSIO@@PAE@Z  100156c0 f   il_dicom.obj
 0001:00014730       ?SkipElement@@YAEPAUSIO@@PAUDICOMHEAD@@GG@Z 10015730 f   il_dicom.obj
 0001:00014810       ?iGetDicomHead@@YAEPAUSIO@@PAUDICOMHEAD@@@Z 10015810 f   il_dicom.obj
 0001:00014ae0       ?iCheckDicom@@YAEPAUDICOMHEAD@@@Z 10015ae0 f   il_dicom.obj
 0001:00014b30       ?iLoadDicomInternal@@YAEPAUILimage@@@Z 10015b30 f   il_dicom.obj
 0001:00014df0       ?getRGBA@ILpal@@QAEEIAAE000@Z 10015df0 f i il_doom.obj
 0001:00014e60       ?iLoadDoomInternal@@YAEPAUILimage@@@Z 10015e60 f   il_doom.obj
 0001:00015170       ?iLoadDoomFlatInternal@@YAEPAUILimage@@@Z 10016170 f   il_doom.obj
 0001:000152e0       ?GetBigShort@@YAFPAUSIO@@@Z 100162e0 f i il_fits.obj
 0001:000152e0       ?GetBigUShort@@YAGPAUSIO@@@Z 100162e0 f i il_dpx.obj
 0001:00015310       ?GetBigInt@@YAHPAUSIO@@@Z  10016310 f i il_fits.obj
 0001:00015310       ?GetBigUInt@@YAIPAUSIO@@@Z 10016310 f i il_dpx.obj
 0001:00015350       ?DpxGetFileInfo@@YAEPAUSIO@@PAUDPX_FILE_INFO@@@Z 10016350 f   il_dpx.obj
 0001:000155a0       ?GetImageElement@@YAEPAUSIO@@PAUDPX_IMAGE_ELEMENT@@@Z 100165a0 f   il_dpx.obj
 0001:000157a0       ?DpxGetImageInfo@@YAEPAUSIO@@PAUDPX_IMAGE_INFO@@@Z 100167a0 f   il_dpx.obj
 0001:00015880       ?DpxGetImageOrient@@YAEPAUSIO@@PAUDPX_IMAGE_ORIENT@@@Z 10016880 f   il_dpx.obj
 0001:00015ae0       ?iLoadDpxInternal@@YAEPAUILimage@@@Z 10016ae0 f   il_dpx.obj
 0001:00015fd0       ?OutputMsg@@YAXPAUjpeg_common_struct@@@Z 10016fd0 f i il_jpeg.obj
 0001:00015fd0       ?clear@IStream@Imf@@UAEXXZ 10016fd0 f i OpenExr:ImfIO.obj
 0001:00015fd0       _mng_output_message        10016fd0 f i libmng:libmng_jpeg.obj
 0001:00015fd0       _mng_init_source           10016fd0 f i libmng:libmng_jpeg.obj
 0001:00015fd0       __TIFFNoPostDecode         10016fd0 f i libTIFF:tif_read.obj
 0001:00015fd0       ?_Unlock@?$basic_streambuf@DU?$char_traits@D@std@@@std@@UAEXXZ 10016fd0 f i OpenExr:ImfRgbaFile.obj
 0001:00015fd0       ?clear@ilIStream@@UAEXXZ   10016fd0 f i il_exr.obj
 0001:00015fd0       _mng_term_source           10016fd0 f i libmng:libmng_jpeg.obj
 0001:00015fd0       ?flush_data@@YAXPAUpng_struct_def@@@Z 10016fd0 f i il_png.obj
 0001:00015fd0       ?_Lock@?$basic_streambuf@DU?$char_traits@D@std@@@std@@UAEXXZ 10016fd0 f i OpenExr:ImfRgbaFile.obj
 0001:00015fd0       ??3@YAXPAX0@Z              10016fd0 f i il_exr.obj
 0001:00015fe0       ??_Eerror_category@std@@UAEPAXI@Z 10016fe0 f i * CIL library *:* CIL module *
 0001:00015fe0       ??_Gerror_category@std@@UAEPAXI@Z 10016fe0 f i il_exr.obj
 0001:00015fe0       ??_E_Generic_error_category@std@@UAEPAXI@Z 10016fe0 f i * CIL library *:* CIL module *
 0001:00015fe0       ??_E_System_error_category@std@@UAEPAXI@Z 10016fe0 f i * CIL library *:* CIL module *
 0001:00015fe0       ??_G_Generic_error_category@std@@UAEPAXI@Z 10016fe0 f i il_exr.obj
 0001:00015fe0       ??_G_System_error_category@std@@UAEPAXI@Z 10016fe0 f i il_exr.obj
 0001:00015fe0       ??_G_Iostream_error_category@std@@UAEPAXI@Z 10016fe0 f i il_exr.obj
 0001:00015fe0       ??_E_Iostream_error_category@std@@UAEPAXI@Z 10016fe0 f i * CIL library *:* CIL module *
 0001:00016010       ?default_error_condition@error_category@std@@UBE?AVerror_condition@2@H@Z 10017010 f i il_exr.obj
 0001:00016030       ?equivalent@error_category@std@@UBE_NHABVerror_condition@2@@Z 10017030 f i il_exr.obj
 0001:00016070       ?equivalent@error_category@std@@UBE_NABVerror_code@2@H@Z 10017070 f i il_exr.obj
 0001:00016090       ?name@_Generic_error_category@std@@UBEPBDXZ 10017090 f i il_exr.obj
 0001:000160a0       ?message@_Generic_error_category@std@@UBE?AV?$basic_string@DU?$char_traits@D@std@@V?$allocator@D@2@@2@H@Z 100170a0 f i il_exr.obj
 0001:00016110       ?name@_Iostream_error_category@std@@UBEPBDXZ 10017110 f i il_exr.obj
 0001:00016120       ?message@_Iostream_error_category@std@@UBE?AV?$basic_string@DU?$char_traits@D@std@@V?$allocator@D@2@@2@H@Z 10017120 f i il_exr.obj
 0001:00016170       ?name@_System_error_category@std@@UBEPBDXZ 10017170 f i il_exr.obj
 0001:00016180       ?message@_System_error_category@std@@UBE?AV?$basic_string@DU?$char_traits@D@std@@V?$allocator@D@2@@2@H@Z 10017180 f i il_exr.obj
 0001:000161f0       ?default_error_condition@_System_error_category@std@@UBE?AVerror_condition@2@H@Z 100171f0 f i il_exr.obj
 0001:00016230       ??0half@@QAE@M@Z           10017230 f i il_exr.obj
 0001:000162a0       ?iIsValidExr@@YAEPAUSIO@@@Z 100172a0 f   il_exr.obj
 0001:00016300       ??_GIStream@Imf@@UAEPAXI@Z 10017300 f i OpenExr:ImfIO.obj
 0001:00016300       ??_EilIStream@@UAEPAXI@Z   10017300 f i * CIL library *:* CIL module *
 0001:00016300       ??_EIStream@Imf@@UAEPAXI@Z 10017300 f i * CIL library *:* CIL module *
 0001:00016300       ??_GilIStream@@UAEPAXI@Z   10017300 f i il_exr.obj
 0001:00016350       ??1ilIStream@@UAE@XZ       10017350 f i il_exr.obj
 0001:00016380       ?read@ilIStream@@UAE_NQADH@Z 10017380 f   il_exr.obj
 0001:000163c0       ?tellp@ilOStream@@UAE_KXZ  100173c0 f   il_exr.obj
 0001:000163c0       ?tellg@ilIStream@@UAE_KXZ  100173c0 f   il_exr.obj
 0001:000163d0       ?seekp@ilOStream@@UAEX_K@Z 100173d0 f   il_exr.obj
 0001:000163d0       ?seekg@ilIStream@@UAEX_K@Z 100173d0 f   il_exr.obj
 0001:000163f0       ?iLoadExrInternal@@YAEPAUILimage@@@Z 100173f0 f   il_exr.obj
 0001:00016700       ??_GilOStream@@UAEPAXI@Z   10017700 f i il_exr.obj
 0001:00016700       ??_EOStream@Imf@@UAEPAXI@Z 10017700 f i * CIL library *:* CIL module *
 0001:00016700       ??_EilOStream@@UAEPAXI@Z   10017700 f i * CIL library *:* CIL module *
 0001:00016700       ??_GOStream@Imf@@UAEPAXI@Z 10017700 f i OpenExr:ImfIO.obj
 0001:00016750       ??1ilOStream@@UAE@XZ       10017750 f i il_exr.obj
 0001:00016750       ??1OStream@Imf@@UAE@XZ     10017750 f i OpenExr:ImfIO.obj
 0001:00016780       ?write@ilOStream@@UAEXQBDH@Z 10017780 f   il_exr.obj
 0001:000167a0       ?iSaveExrInternal@@YAEPAUILimage@@@Z 100177a0 f   il_exr.obj
 0001:00016c20       ??0?$basic_string@DU?$char_traits@D@std@@V?$allocator@D@2@@std@@QAE@PBD@Z 10017c20 f i il_exr.obj
 0001:00016c80       ??1?$basic_string@DU?$char_traits@D@std@@V?$allocator@D@2@@std@@QAE@XZ 10017c80 f i il_exr.obj
 0001:00016c80       ??1Classifier@DwaCompressor@Imf@@QAE@XZ 10017c80 f i OpenExr:ImfDwaCompressor.obj
 0001:00016cb0       ??1?$Array@I@Imf@@QAE@XZ   10017cb0 f i OpenExr:ImfDeepScanLineInputFile.obj
 0001:00016cb0       ??1?$Array@D@Imf@@QAE@XZ   10017cb0 f i OpenExr:ImfOutputFile.obj
 0001:00016cb0       ??1?$Array@_N@Imf@@QAE@XZ  10017cb0 f i OpenExr:ImfDeepScanLineInputFile.obj
 0001:00016cb0       ??1?$Array@URgba@Imf@@@Imf@@QAE@XZ 10017cb0 f i il_exr.obj
 0001:00016cc0       ?assign@?$basic_string@DU?$char_traits@D@std@@V?$allocator@D@2@@std@@QAEAAV12@ABV12@II@Z 10017cc0 f i il_exr.obj
 0001:00016df0       ?assign@?$basic_string@DU?$char_traits@D@std@@V?$allocator@D@2@@std@@QAEAAV12@PBDI@Z 10017df0 f i il_exr.obj
 0001:00016ef0       ?allocate@?$_Wrap_alloc@V?$allocator@D@std@@@std@@QAEPADI@Z 10017ef0 f i il_exr.obj
 0001:00016ef0       ?allocate@?$allocator@D@std@@QAEPADI@Z 10017ef0 f i il_exr.obj
 0001:00016f20       ?_Myptr@?$_String_val@U?$_Simple_types@D@std@@@std@@QBEPBDXZ 10017f20 f i il_exr.obj
 0001:00016f30       ?erase@?$basic_string@DU?$char_traits@D@std@@V?$allocator@D@2@@std@@QAEAAV12@II@Z 10017f30 f i il_exr.obj
 0001:00016fd0       ?_Eos@?$basic_string@DU?$char_traits@D@std@@V?$allocator@D@2@@std@@QAEXI@Z 10017fd0 f i il_exr.obj
 0001:00017000       ?_Grow@?$basic_string@DU?$char_traits@D@std@@V?$allocator@D@2@@std@@QAE_NI_N@Z 10018000 f i il_exr.obj
 0001:000170c0       ??0?$_Wrap_alloc@V?$allocator@D@std@@@std@@QAE@XZ 100180c0 f i il_exr.obj
 0001:000170d0       ?_Copy@?$basic_string@DU?$char_traits@D@std@@V?$allocator@D@2@@std@@QAEXII@Z 100180d0 f i il_exr.obj
 0001:00017220       ??$destroy@PAD@?$_Wrap_alloc@V?$allocator@D@std@@@std@@QAEXPAPAD@Z 10018220 f i il_exr.obj
 0001:00017220       ?imbue@?$basic_streambuf@DU?$char_traits@D@std@@@std@@MAEXABVlocale@2@@Z 10018220 f i OpenExr:ImfRgbaFile.obj
 0001:00017230       ?iFastConvert@@YAEPAUILimage@@I@Z 10018230 f   il_fastconv.obj
 0001:00017690       ?iDefaultOpenR@@YGPAXPB_W@Z 10018690 f   il_files.obj
 0001:000176b0       ?iDefaultCloseR@@YGXPAUSIO@@@Z 100186b0 f   il_files.obj
 0001:000176b0       ?iDefaultCloseW@@YGXPAUSIO@@@Z 100186b0 f   il_files.obj
 0001:000176d0       ?iDefaultEof@@YGEPAUSIO@@@Z 100186d0 f   il_files.obj
 0001:00017740       ?iDefaultGetc@@YGHPAUSIO@@@Z 10018740 f   il_files.obj
 0001:00017780       ?iDefaultRead@@YG_JPAUSIO@@PAXII@Z 10018780 f   il_files.obj
 0001:000177a0       ?iDefaultSeek@@YG_JPAUSIO@@_JI@Z 100187a0 f   il_files.obj
 0001:000177c0       ?iDefaultTell@@YG_JPAUSIO@@@Z 100187c0 f   il_files.obj
 0001:000177e0       ?iDefaultOpenW@@YGPAXPB_W@Z 100187e0 f   il_files.obj
 0001:00017800       ?iDefaultPutc@@YGHEPAUSIO@@@Z 10018800 f   il_files.obj
 0001:00017820       ?iDefaultWrite@@YG_JPBXIIPAUSIO@@@Z 10018820 f   il_files.obj
 0001:00017840       ?il2SetRead@@YGXPAUILimage@@P6GPAXPB_W@ZP6GXPAUSIO@@@ZP6GE3@ZP6GH3@ZP6G_J3PAXII@ZP6G_J3_JI@ZP6G_J3@Z@Z 10018840 f   il_files.obj
 0001:00017890       ?il2ResetRead@@YGXPAUILimage@@@Z 10018890 f   il_files.obj
 0001:000178f0       ?il2SetWrite@@YGXPAUILimage@@P6GPAXPB_W@ZP6GXPAUSIO@@@ZP6GHE3@ZP6G_J3_JI@ZP6G_J3@ZP6G_JPBXII3@Z@Z 100188f0 f   il_files.obj
 0001:00017940       ?il2ResetWrite@@YGXPAUILimage@@@Z 10018940 f   il_files.obj
 0001:00017990       ?iSetInputFile@@YAXPAUSIO@@PAX@Z 10018990 f   il_files.obj
 0001:000179f0       ?iSetInputLump@@YAXPAUSIO@@PBXI@Z 100189f0 f   il_files.obj
 0001:00017a60       ?iSetOutputLump@@YAXPAUSIO@@PAXI@Z 10018a60 f   il_files.obj
 0001:00017ac0       ?il2GetLumpPos@@YG_KPAUILimage@@@Z 10018ac0 f   il_files.obj
 0001:00017af0       ?ilprintf@@YAIPAUSIO@@PBDZZ 10018af0 f   il_files.obj
 0001:00017b50       ?ipad@@YAXPAUSIO@@I@Z      10018b50 f   il_files.obj
 0001:00017b70       ?iEofLump@@YGEPAUSIO@@@Z   10018b70 f   il_files.obj
 0001:00017ba0       ?iGetcLump@@YGHPAUSIO@@@Z  10018ba0 f   il_files.obj
 0001:00017c10       ?iReadLump@@YG_JPAUSIO@@PAXII@Z 10018c10 f   il_files.obj
 0001:00017d40       ?iSeekLump@@YG_JPAUSIO@@_JI@Z 10018d40 f   il_files.obj
 0001:00017e20       ?iPutcLump@@YGHEPAUSIO@@@Z 10018e20 f   il_files.obj
 0001:00017e60       ?iWriteLump@@YG_JPBXIIPAUSIO@@@Z 10018e60 f   il_files.obj
 0001:00017ee0       ?iSizeTell@@YG_JPAUSIO@@@Z 10018ee0 f   il_size.obj
 0001:00017ee0       ?iTellLump@@YG_JPAUSIO@@@Z 10018ee0 f   il_files.obj
 0001:00017ef0       ?GetBigFloat@@YAMPAUSIO@@@Z 10018ef0 f i il_fits.obj
 0001:00017f40       ?GetBigDouble@@YANPAUSIO@@@Z 10018f40 f i il_fits.obj
 0001:00017fa0       ?GetCardInt@@YAEPADPAH@Z   10018fa0 f   il_fits.obj
 0001:00018060       ?GetCardImage@@YAIPAUSIO@@PAUFITSHEAD@@@Z 10019060 f   il_fits.obj
 0001:000182c0       ?iGetFitsHead@@YAEPAUSIO@@PAUFITSHEAD@@@Z 100192c0 f   il_fits.obj
 0001:00018450       ?iCheckFits@@YAEPAUFITSHEAD@@@Z 10019450 f   il_fits.obj
 0001:00018510       ?iLoadFitsInternal@@YAEPAUILimage@@@Z 10019510 f   il_fits.obj
 0001:00018760       ?iLoadFtxInternal@@YAEPAUILimage@@@Z 10019760 f   il_ftx.obj
 0001:00018810       ?setMinSizes@@YAEIIPAUILimage@@@Z 10019810 f   il_gif.obj
 0001:00018910       ?iGetPalette@@YAEPAUSIO@@EPAVILpal@@PAUILimage@@@Z 10019910 f   il_gif.obj
 0001:000189c0       ?get_next_code@@YAHPAVGifDecompressor@@@Z 100199c0 f   il_gif.obj
 0001:00018b00       ??0GifLoader@@QAE@XZ       10019b00 f   il_gif.obj
 0001:00018b90       ?GifGetData@GifLoader@@QAEEI@Z 10019b90 f   il_gif.obj
 0001:00019070       ?RemoveInterlace@@YAEPAUILimage@@@Z 1001a070 f   il_gif.obj
 0001:000191e0       ?ConvertTransparent@@YAEPAUILimage@@E@Z 1001a1e0 f   il_gif.obj
 0001:00019360       ?readImage@GifLoader@@QAEEXZ 1001a360 f   il_gif.obj
 0001:000195b0       ?GetImages@GifLoader@@QAEEXZ 1001a5b0 f   il_gif.obj
 0001:000196c0       ?iLoadGifInternal@@YAEPAUILimage@@@Z 1001a6c0 f   il_gif.obj
 0001:000198c0       ??1GifLoader@@QAE@XZ       1001a8c0 f i il_gif.obj
 0001:00019910       ?strnstr@@YAPBDPBD0I@Z     1001a910 f   il_hdr.obj
 0001:00019970       ?ReadScanline@@YAXPAUILimage@@PAEI@Z 1001a970 f   il_hdr.obj
 0001:00019b50       ?iLoadHdrInternal@@YAEPAUILimage@@@Z 1001ab50 f   il_hdr.obj
 0001:00019f10       ?RGBE_WriteHeader@@YAEIIPAUrgbe_header_info@@@Z 1001af10 f   il_hdr.obj
 0001:00019fe0       ?RGBE_WritePixels@@YAHPAUILimage@@PAMH@Z 1001afe0 f   il_hdr.obj
 0001:0001a120       ?RGBE_WriteBytes_RLE@@YAEPAUILimage@@PAEI@Z 1001b120 f   il_hdr.obj
 0001:0001a2d0       ?iSaveHdrInternal@@YAEPAUILimage@@@Z 1001b2d0 f   il_hdr.obj
 0001:0001a550       ?ilSaveCHeader@@YAEPAUILimage@@PAD@Z 1001b550 f   il_header.obj
 0001:0001a7f0       ?iIsValidIcns@@YAEPAUSIO@@@Z 1001b7f0 f   il_icns.obj
 0001:0001a880       ?iIcnsReadData@@YAEPAUILimage@@PAEEHPAUICNSDATA@@PAPAU1@@Z 1001b880 f   il_icns.obj
 0001:0001abd0       ?iLoadIcnsInternal@@YAEPAUILimage@@@Z 1001bbd0 f   il_icns.obj
 0001:0001aed0       ?iIsValidIcon@@YAEPAUSIO@@@Z 1001bed0 f   il_icon.obj
 0001:0001b030       ?ico_readpng_init@@YAHPAUILimage@@PAUIconData@@@Z 1001c030 f   il_icon.obj
 0001:0001b160       ?ico_readpng_get_image@@YAEPAUIconData@@PAUICOIMAGE@@N@Z 1001c160 f   il_icon.obj
 0001:0001b5d0       ?iLoadIconInternal@@YAEPAUILimage@@@Z 1001c5d0 f   il_icon.obj
 0001:0001c280       ?iffReadUncompressedTile@@YAPADPAUILimage@@GGC@Z 1001d280 f   il_iff.obj
 0001:0001c340       ?iff_read_data@@YAPADPAUILimage@@H@Z 1001d340 f   il_iff.obj
 0001:0001c3a0       ?iff_end_read_chunk@@YAXPAUILimage@@AAUIFFLoadState@@@Z 1001d3a0 f   il_iff.obj
 0001:0001c3f0       ?iff_begin_read_chunk@@YA?AU_iff_chunk@@PAUILimage@@UIFFLoadState@@@Z 1001d3f0 f   il_iff.obj
 0001:0001c560       ?iLoadIffInternal@@YAEPAUILimage@@@Z 1001d560 f   il_iff.obj
 0001:0001cc40       ?iff_decompress_tile_rle@@YAPADGGGPADI@Z 1001dc40 f   il_iff.obj
 0001:0001cdb0       ?iff_decompress_rle@@YAPADIPADIPAI@Z 1001ddb0 f   il_iff.obj
 0001:0001cea0       ?iIsValidIlbm@@YAEPAUSIO@@@Z 1001dea0 f   il_ilbm.obj
 0001:0001da20       ?iLoadIlbmInternal@@YAEPAUILimage@@@Z 1001ea20 f   il_ilbm.obj
 0001:0001da80       ?ilStrDup@@YAPA_WPB_W@Z    1001ea80 f   il_internal.obj
 0001:0001daf0       ?ilCharStrLen@@YAIPBD@Z    1001eaf0 f   il_internal.obj
 0001:0001db10       ?iCheckExtension@@YAEPB_W0@Z 1001eb10 f   il_internal.obj
 0001:0001dba0       ?iGetExtension@@YAPA_WPB_W@Z 1001eba0 f   il_internal.obj
 0001:0001dbe0       ?iSqrt@@YAHH@Z             1001ebe0 f   il_internal.obj
 0001:0001dd00       ?ilTypeFromExt@@YGIPB_W@Z  1001ed00 f   il_io.obj
 0001:0001e550       ?iDetermineTypeFuncs@@YGIPAUSIO@@@Z 1001f550 f   il_io.obj
 0001:0001eee0       ?il2DetermineTypeFuncs@@YGIPAUILimage@@@Z 1001fee0 f   il_io.obj
 0001:0001ef00       ?il2DetermineTypeF@@YGIPAX@Z 1001ff00 f   il_io.obj
 0001:0001ef30       ?il2DetermineTypeL@@YGIPBXI@Z 1001ff30 f   il_io.obj
 0001:0001ef60       ?il2DetermineType@@YGIPB_W@Z 1001ff60 f   il_io.obj
 0001:0001f010       ?il2LoadFuncs@@YGEPAUILimage@@I@Z 10020010 f   il_io.obj
 0001:0001f480       ?il2Load@@YGEPAUILimage@@IPB_W@Z 10020480 f   il_io.obj
 0001:0001f5d0       ?il2LoadF@@YGEPAUILimage@@IPAX@Z 100205d0 f   il_io.obj
 0001:0001f640       ?il2LoadL@@YGEPAUILimage@@IPBXI@Z 10020640 f   il_io.obj
 0001:0001f6a0       ?il2LoadImage@@YGEPAUILimage@@PB_W@Z 100206a0 f   il_io.obj
 0001:0001f840       ?il2SaveFuncs@@YGEPAUILimage@@I@Z 10020840 f   il_io.obj
 0001:0001fa10       ?il2Save@@YGEPAUILimage@@IPB_W@Z 10020a10 f   il_io.obj
 0001:0001fad0       ?il2SaveImage@@YGEPAUILimage@@PB_W@Z 10020ad0 f   il_io.obj
 0001:0001fb90       ?il2SaveF@@YGIPAUILimage@@IPAX@Z 10020b90 f   il_io.obj
 0001:0001fc00       ?il2SaveL@@YG_JPAUILimage@@IPAXI@Z 10020c00 f   il_io.obj
 0001:0001fcc0       ?iIsValidIwi@@YAEPAUSIO@@@Z 10020cc0 f   il_iwi.obj
 0001:0001fd20       ?iCheckIwi@@YAEPAUIWIHEAD@@@Z 10020d20 f   il_iwi.obj
 0001:0001fdb0       ?iLoadIwiInternal@@YAEPAUILimage@@@Z 10020db0 f   il_iwi.obj
 0001:0001fed0       ?IwiGetFormat@@YAIEPAE@Z   10020ed0 f   il_iwi.obj
 0001:0001ff40       ?IwiInitMipmaps@@YAEPAUILimage@@PAI@Z 10020f40 f   il_iwi.obj
 0001:00020040       ?IwiReadImage@@YAEPAUILimage@@PAUIWIHEAD@@I@Z 10021040 f   il_iwi.obj
 0001:00020350       ?iIsValidJp2@@YAEPAUSIO@@@Z 10021350 f   il_jp2.obj
 0001:000203c0       ?iLoadJp2Internal@@YAEPAUILimage@@PAUjas_stream_t@@@Z 100213c0 f   il_jp2.obj
 0001:000206a0       ?ilLoadJp2LInternal@@YAEPAUILimage@@PBXI@Z 100216a0 f   il_jp2.obj
 0001:00020810       ?format@Pxr24Compressor@Imf@@UBE?AW4Format@Compressor@2@XZ 10021810 f   OpenExr:ImfPxr24Compressor.obj
 0001:00020810       ?sync@?$basic_streambuf@DU?$char_traits@D@std@@@std@@MAEHXZ 10021810 f   OpenExr:ImfRgbaFile.obj
 0001:00020810       ___init_dummy              10021810 f   libcmt:wsetloca.obj
 0001:00020810       ___init_collate            10021810 f   libcmt:initcoll.obj
 0001:00020810       __matherr                  10021810 f   libcmt:matherr.obj
 0001:00020810       ?mymnggetticks@@YAIPAUmng_data_struct@@@Z 10021810 f   il_mng.obj
 0001:00020810       _mng_process_ani_term      10021810 f   libmng:libmng_object_prc.obj
 0001:00020890       ?iJp2WriteStream@@YAPAUjas_stream_t@@XZ 10021890 f   il_jp2.obj
 0001:00020940       ?Jp2ConvertData@@YAHPAUjas_stream_t@@PAUjas_image_t@@@Z 10021940 f   il_jp2.obj
 0001:00020bd0       ?iSaveJp2Internal@@YAEPAUILimage@@@Z 10021bd0 f   il_jp2.obj
 0001:00021090       ?devil_jpeg_read_init@@YAXPAUILimage@@PAUjpeg_decompress_struct@@@Z 10022090 f   il_jpeg.obj
 0001:00021150       ?iLoadJpegInternal@@YAEPAUILimage@@@Z 10022150 f   il_jpeg.obj
 0001:00021320       ?iSaveJpegInternal@@YAEPAUILimage@@@Z 10022320 f   il_jpeg.obj
 0001:00021580       ?ilLoadFromJpegStruct@@YAEPAUILimage@@PAX@Z 10022580 f   il_jpeg.obj
 0001:00021640       ?iGetLifHead@@YAEPAUSIO@@PAULIF_HEAD@@@Z 10022640 f   il_lif.obj
 0001:00021720       ?iIsValidLif@@YAEPAUSIO@@@Z 10022720 f   il_lif.obj
 0001:000217c0       ?iLoadLifInternal@@YAEPAUILimage@@@Z 100227c0 f   il_lif.obj
 0001:00021920       _DllMain@12                10022920 f   il_main.obj
 0001:00021930       ?iFlipBuffer@@YGXPAEIII@Z  10022930 f   il_manip.obj
 0001:00021a70       ?iFlipNewBuffer@@YAPAEPAEIII@Z 10022a70 f   il_manip.obj
 0001:00021b20       ?ilFlipImage@@YAEPAUILimage@@@Z 10022b20 f   il_manip.obj
 0001:00021b70       ?iGetFlipped@@YGPAEPAUILimage@@@Z 10022b70 f   il_manip.obj
 0001:00021bb0       ?iMirror@@YGEPAUILimage@@@Z 10022bb0 f   il_manip.obj
 0001:00021eb0       ?ilCopyPixels1D@@YAEPAUILimage@@IIPAX@Z 10022eb0 f   il_manip.obj
 0001:00021fa0       ?ilCopyPixels2D@@YAEPAUILimage@@IIIIPAX@Z 10022fa0 f   il_manip.obj
 0001:000220f0       ?ilCopyPixels3D@@YAEPAUILimage@@IIIIIIPAX@Z 100230f0 f   il_manip.obj
 0001:000222b0       ?il2CopyPixels@@YGIPAUILimage@@IIIIIIIIPAX@Z 100232b0 f   il_manip.obj
 0001:00022450       ?ilSetPixels1D@@YAEPAUILimage@@HIPAX@Z 10023450 f   il_manip.obj
 0001:00022550       ?ilSetPixels2D@@YAEPAUILimage@@HHIIPAX@Z 10023550 f   il_manip.obj
 0001:00022710       ?ilSetPixels3D@@YAEPAUILimage@@HHHIIIPAX@Z 10023710 f   il_manip.obj
 0001:00022960       ?il2SetPixels@@YGXPAUILimage@@HHHIIIIIPAX@Z 10023960 f   il_manip.obj
 0001:00022a80       ?il2DefaultImage@@YGEPAUILimage@@@Z 10023a80 f   il_manip.obj
 0001:00022bd0       ?il2GetAlpha@@YGPAEPAUILimage@@I@Z 10023bd0 f   il_manip.obj
 0001:00022e20       ?ilSetAlpha@@YGEPAUILimage@@N@Z 10023e20 f   il_manip.obj
 0001:00023090       ?ilModAlpha@@YGXPAUILimage@@N@Z 10024090 f   il_manip.obj
 0001:00023290       ?ilClampNTSC@@YGEPAUILimage@@@Z 10024290 f   il_manip.obj
 0001:00023360       ?iIsValidMdl@@YAEPAUSIO@@@Z 10024360 f   il_mdl.obj
 0001:000233b0       ?iLoadMdlInternal@@YAEPAUILimage@@@Z 100243b0 f   il_mdl.obj
 0001:00023670       ?mymngalloc@@YAPAXI@Z      10024670 f   il_mng.obj
 0001:000236b0       ?mymngfree@@YAXPAXI@Z      100246b0 f   il_mng.obj
 0001:000236d0       ?mymngopenstream@@YACPAUmng_data_struct@@@Z 100246d0 f   il_mng.obj
 0001:000236d0       ?mymngclosestream@@YACPAUmng_data_struct@@@Z 100246d0 f   il_mng.obj
 0001:000236d0       ?mymngsettimer@@YACPAUmng_data_struct@@I@Z 100246d0 f   il_mng.obj
 0001:000236d0       ?mymngrefresh@@YACPAUmng_data_struct@@IIII@Z 100246d0 f   il_mng.obj
 0001:000236e0       ?mymngreadstream@@YACPAUmng_data_struct@@PAXIPAI@Z 100246e0 f   il_mng.obj
 0001:00023720       ?mymngprocessheader@@YACPAUmng_data_struct@@II@Z 10024720 f   il_mng.obj
 0001:000237d0       ?mymnggetcanvasline@@YAPAXPAUmng_data_struct@@I@Z 100247d0 f   il_mng.obj
 0001:00023800       ?isMemoryMapped@IStream@Imf@@UBE_NXZ 10024800 f   OpenExr:ImfIO.obj
 0001:00023800       _mng_fill_input_buffer     10024800 f   libmng:libmng_jpeg.obj
 0001:00023800       ?mymngerror@@YACPAUmng_data_struct@@HCHIHHPAD@Z 10024800 f   il_mng.obj
 0001:00023810       ?iLoadMngInternal@@YAEPAUILimage@@@Z 10024810 f   il_mng.obj
 0001:000238f0       ?GetSynchInt@@YAIPAUSIO@@@Z 100248f0 f   il_mp3.obj
 0001:00023960       ?iIsValidMp3@@YAEPAUSIO@@@Z 10024960 f   il_mp3.obj
 0001:00023a10       ?iFindMp3Pic@@YAIPAUSIO@@PAUMP3HEAD@@@Z 10024a10 f   il_mp3.obj
 0001:00023c30       ?iLoadMp3Internal@@YAEPAUILimage@@@Z 10024c30 f   il_mp3.obj
 0001:00023d40       ?initnet@@YAXPAEHH@Z       10024d40 f   il_neuquant.obj
 0001:00023dd0       ?unbiasnet@@YAXXZ          10024dd0 f   il_neuquant.obj
 0001:00023e10       ?inxbuild@@YAXXZ           10024e10 f   il_neuquant.obj
 0001:00023f40       ?inxsearch@@YAEHHH@Z       10024f40 f   il_neuquant.obj
 0001:00024040       ?contest@@YAHHHH@Z         10025040 f   il_neuquant.obj
 0001:00024120       ?alterneigh@@YAXHHHHH@Z    10025120 f   il_neuquant.obj
 0001:00024280       ?learn@@YAXXZ              10025280 f   il_neuquant.obj
 0001:000244f0       ?iNeuQuant@@YAPAUILimage@@PAU1@I@Z 100254f0 f   il_neuquant.obj
 0001:00024740       ?ilNVidiaCompressDXT@@YGPAEPAEIIIIPAI@Z 10025740 f   il_nvidia.obj
 0001:00024740       ?ilSquishCompressDXT@@YGPAEPAEIIIIPAI@Z 10025740 f   il_squish.obj
 0001:00024750       ??0ILpal@@QAE@ABV0@@Z      10025750 f i il_palette.obj
 0001:000247d0       ?il2LoadPal@@YGEPAUILimage@@PB_W@Z 100257d0 f   il_palette.obj
 0001:00024980       ?ilLoadJascPal@@YAEPAUILimage@@PB_W@Z 10025980 f   il_palette.obj
 0001:00024c40       ?iFgetw@@YAPADPAEHPAU_iobuf@@@Z 10025c40 f   il_palette.obj
 0001:00024d30       ?ilLoadHaloPal@@YAEPAUILimage@@PB_W@Z 10025d30 f   il_palette.obj
 0001:00024f50       ?ilLoadColPal@@YAEPAUILimage@@PB_W@Z 10025f50 f   il_palette.obj
 0001:00025120       ?ilLoadActPal@@YAEPAUILimage@@PB_W@Z 10026120 f   il_palette.obj
 0001:00025240       ?ilLoadPltPal@@YAEPAUILimage@@PB_W@Z 10026240 f   il_palette.obj
 0001:00025360       ?iCopyPal@@YGPAVILpal@@PAUILimage@@@Z 10026360 f   il_palette.obj
 0001:00025400       ?iConvertPal@@YG?AVILpal@@PAV1@I@Z 10026400 f   il_palette.obj
 0001:00025530       ?il2ConvertPal@@YGEPAUILimage@@I@Z 10026530 f   il_palette.obj
 0001:000255f0       ?il2SetPal@@YGXPAUILimage@@PAVILpal@@@Z 100265f0 f   il_palette.obj
 0001:00025620       ?YCbCr2RGB@@YAXEEEPAE00@Z  10026620 f   il_pcd.obj
 0001:00025720       ?iLoadPcdInternal@@YAEPAUILimage@@@Z 10026720 f   il_pcd.obj
 0001:00025a90       ?iIsValidPcx@@YAEPAUSIO@@@Z 10026a90 f   il_pcx.obj
 0001:00025b30       ?iLoadPcxInternal@@YAEPAUILimage@@@Z 10026b30 f   il_pcx.obj
 0001:00025c20       ?iUncompressPcx@@YAEPAUILimage@@PAUPCXHEAD@@@Z 10026c20 f   il_pcx.obj
 0001:00025f00       ?iUncompressSmall@@YAEPAUILimage@@PAUPCXHEAD@@@Z 10026f00 f   il_pcx.obj
 0001:000262d0       ?encLine@@YAIPAUSIO@@PAEHE@Z 100272d0 f   il_pcx.obj
 0001:00026470       ?iSavePcxInternal@@YAEPAUILimage@@@Z 10027470 f   il_pcx.obj
 0001:00026800       ?iGetPicHead@@YAHPAUSIO@@PAUPIC_HEAD@@@Z 10027800 f   il_pic.obj
 0001:000268d0       ?iIsValidPic@@YAEPAUSIO@@@Z 100278d0 f   il_pic.obj
 0001:00026950       ?channelReadMixed@@YAEPAUSIO@@PAEHHPAHH@Z 10027950 f   il_pic.obj
 0001:00026af0       ?channelReadRaw@@YAEPAUSIO@@PAEHHPAHH@Z 10027af0 f   il_pic.obj
 0001:00026b70       ?channelReadPure@@YAEPAUSIO@@PAEHHPAHH@Z 10027b70 f   il_pic.obj
 0001:00026c30       ?readScanlines@@YAEPAUSIO@@PAIHHPAUCHANNEL@@I@Z 10027c30 f   il_pic.obj
 0001:00026d80       ?iLoadPicInternal@@YAEPAUILimage@@@Z 10027d80 f   il_pic.obj
 0001:00026fe0       ?iIsValidPix@@YAEPAUSIO@@@Z 10027fe0 f   il_pix.obj
 0001:00027070       ?iLoadPixInternal@@YAEPAUILimage@@@Z 10028070 f   il_pix.obj
 0001:00027200       ?iIsValidPng@@YAEPAUSIO@@@Z 10028200 f   il_png.obj
 0001:000272f0       ?readpng_init@@YAHPAUILimage@@PAUPNGData@@@Z 100282f0 f   il_png.obj
 0001:00027450       ?iLoadPngInternal@@YAEPAUILimage@@@Z 10028450 f   il_png.obj
 0001:000274f0       ?readpng_get_image@@YAEPAUILimage@@PAUPNGData@@N@Z 100284f0 f   il_png.obj
 0001:000279e0       ?readpng_cleanup@@YAXPAUPNGData@@@Z 100289e0 f   il_png.obj
 0001:00027a20       ?png_write@@YAXPAUpng_struct_def@@PAEI@Z 10028a20 f   il_png.obj
 0001:00027a50       ?iSavePngInternal@@YAEPAUILimage@@@Z 10028a50 f   il_png.obj
 0001:00027f90       ?ilReadAsciiPpm@@YAPAUILimage@@PAU1@PAUPPMINFO@@PAC@Z 10028f90 f   il_pnm.obj
 0001:00028210       ?ilReadBinaryPpm@@YAPAUILimage@@PAU1@PAUPPMINFO@@@Z 10029210 f   il_pnm.obj
 0001:00028280       ?ilReadBitPbm@@YAPAUILimage@@PAU1@PAUPPMINFO@@@Z 10029280 f   il_pnm.obj
 0001:00028320       ?iGetWord@@YAEPAUSIO@@EPAC@Z 10029320 f   il_pnm.obj
 0001:00028430       ?iLoadPnmInternal@@YAEPAUILimage@@@Z 10029430 f   il_pnm.obj
 0001:00028750       ?iSavePnmInternal@@YAEPAUILimage@@@Z 10029750 f   il_pnm.obj
 0001:00028ae0       ?il2ApplyProfile@@YGEPAUILimage@@PA_W1@Z 10029ae0 f   il_profiles.obj
 0001:00028da0       ?SaveBigInt@@YAEPAUSIO@@H@Z 10029da0 f i il_psd.obj
 0001:00028de0       ?iGetPsdHead@@YAEPAUSIO@@PAUPSDHEAD@@@Z 10029de0 f   il_psd.obj
 0001:00028e80       ?iCheckPsd@@YAEPAUPSDHEAD@@@Z 10029e80 f   il_psd.obj
 0001:00028ef0       ?iIsValidPsd@@YAEPAUSIO@@@Z 10029ef0 f   il_psd.obj
 0001:00028f30       ?GetCompChanLen@@YAPAIPAUILimage@@PAUPSDHEAD@@AAG@Z 10029f30 f   il_psd.obj
 0001:00029180       ?PsdGetData@@YAEPAUILimage@@PAUPSDHEAD@@PAXEAAG@Z 1002a180 f   il_psd.obj
 0001:000297c0       ?ParseResources@@YAEPAUILimage@@IPAE@Z 1002a7c0 f   il_psd.obj
 0001:00029900       ?ReadGrey@@YAEPAUILimage@@PAUPSDHEAD@@@Z 1002a900 f   il_psd.obj
 0001:00029b10       ?ReadIndexed@@YAEPAUILimage@@PAUPSDHEAD@@@Z 1002ab10 f   il_psd.obj
 0001:00029da0       ?ReadRGB@@YAEPAUILimage@@PAUPSDHEAD@@@Z 1002ada0 f   il_psd.obj
 0001:00029fc0       ?GetSingleChannel@@YAEPAUILimage@@PAUPSDHEAD@@PAEE@Z 1002afc0 f   il_psd.obj
 0001:0002a0d0       ?ReadCMYK@@YAEPAUILimage@@PAUPSDHEAD@@@Z 1002b0d0 f   il_psd.obj
 0001:0002a430       ?ReadPsd@@YAEPAUILimage@@PAUPSDHEAD@@@Z 1002b430 f   il_psd.obj
 0001:0002a490       ?iLoadPsdInternal@@YAEPAUILimage@@@Z 1002b490 f   il_psd.obj
 0001:0002a540       ?iSavePsdInternal@@YAEPAUILimage@@@Z 1002b540 f   il_psd.obj
 0001:0002aa70       ?iCheckPsp@@YAEPAUPSPHEAD@@@Z 1002ba70 f   il_psp.obj
 0001:0002aad0       ?iIsValidPsp@@YAEPAUSIO@@@Z 1002bad0 f   il_psp.obj
 0001:0002ab30       ?ReadGenAttributes@@YAEPAUPspLoadState@@PAUILimage@@@Z 1002bb30 f   il_psp.obj
 0001:0002ac50       ?UncompRLE@@YAEPAE0I@Z     1002bc50 f   il_psp.obj
 0001:0002acb0       ?GetChannel@@YAPAEPAUPspLoadState@@PAUILimage@@@Z 1002bcb0 f   il_psp.obj
 0001:0002aef0       ?ReadLayerBlock@@YAEPAUPspLoadState@@IPAUILimage@@@Z 1002bef0 f   il_psp.obj
 0001:0002b140       ?ReadAlphaBlock@@YAEPAUPspLoadState@@IPAUILimage@@@Z 1002c140 f   il_psp.obj
 0001:0002b330       ?ReadPalette@@YAEPAUPspLoadState@@IPAUILimage@@@Z 1002c330 f   il_psp.obj
 0001:0002b420       ?ParseChunks@@YAEPAUPspLoadState@@PAUILimage@@@Z 1002c420 f   il_psp.obj
 0001:0002b560       ?AssembleImage@@YAEPAUPspLoadState@@PAUILimage@@@Z 1002c560 f   il_psp.obj
 0001:0002b7f0       ?Cleanup@@YAEPAUPspLoadState@@@Z 1002c7f0 f   il_psp.obj
 0001:0002b870       ?iLoadPspInternal@@YAEPAUILimage@@@Z 1002c870 f   il_psp.obj
 0001:0002b9c0       ??1PspLoadState@@QAE@XZ    1002c9c0 f i il_psp.obj
 0001:0002b9f0       ?iLoadPxrInternal@@YAEPAUILimage@@@Z 1002c9f0 f   il_pxr.obj
 0001:0002bae0       ?Hist3d@@YAEPAE00PAH111PAMIPAG@Z 1002cae0 f   il_quantizer.obj
 0001:0002bce0       ?M3d@@YAXPAH000PAM@Z       1002cce0 f   il_quantizer.obj
 0001:0002c080       ?Vol@@YAHPAUBox@@QAY1CB@CB@H@Z 1002d080 f   il_quantizer.obj
 0001:0002c140       ?Bottom@@YAHPAUBox@@EQAY1CB@CB@H@Z 1002d140 f   il_quantizer.obj
 0001:0002c280       ?Top@@YAHPAUBox@@EHQAY1CB@CB@H@Z 1002d280 f   il_quantizer.obj
 0001:0002c3c0       ?Var@@YAMPAUBox@@PAUQuantizerState@@@Z 1002d3c0 f   il_quantizer.obj
 0001:0002c4f0       ?Maximize@@YAMPAUBox@@EHHPAHHHHHPAUQuantizerState@@@Z 1002d4f0 f   il_quantizer.obj
 0001:0002c680       ?Cut@@YAHPAUBox@@0PAUQuantizerState@@@Z 1002d680 f   il_quantizer.obj
 0001:0002c810       ?Mark@@YAXPAUBox@@HPAE@Z   1002d810 f   il_quantizer.obj
 0001:0002c890       ?iQuantizeImage@@YAPAUILimage@@PAU1@I@Z 1002d890 f   il_quantizer.obj
 0001:0002d0c0       ?iLoadRawInternal@@YAEPAUILimage@@@Z 1002e0c0 f   il_raw.obj
 0001:0002d210       ?iSaveRawInternal@@YAEPAUILimage@@@Z 1002e210 f   il_raw.obj
 0001:0002d2b0       ?ilRegisterLoad@@YGEPB_WP6GI0@Z@Z 1002e2b0 f   il_register.obj
 0001:0002d360       ?ilRegisterSave@@YGEPB_WP6GI0@Z@Z 1002e360 f   il_register.obj
 0001:0002d410       ?ilRemoveLoad@@YGEPB_W@Z   1002e410 f   il_register.obj
 0001:0002d480       ?ilRemoveSave@@YGEPB_W@Z   1002e480 f   il_register.obj
 0001:0002d4f0       ?ilRegisterOrigin@@YGXI@Z  1002e4f0 f   il_register.obj
 0001:0002d530       ?ilRegisterFormat@@YGXI@Z  1002e530 f   il_register.obj
 0001:0002d580       ?ilRegisterNumFaces@@YGEI@Z 1002e580 f   il_register.obj
 0001:0002d700       ?ilRegisterMipNum@@YGEI@Z  1002e700 f   il_register.obj
 0001:0002d880       ?ilRegisterNumImages@@YGEI@Z 1002e880 f   il_register.obj
 0001:0002da00       ?ilRegisterType@@YGXI@Z    1002ea00 f   il_register.obj
 0001:0002da50       ?il2RegisterPal@@YGXPAUILimage@@PAXII@Z 1002ea50 f   il_register.obj
 0001:0002da70       ?ilSetDuration@@YGEI@Z     1002ea70 f   il_register.obj
 0001:0002dab0       ?CountDiffPixels@@YAHPAEII@Z 1002eab0 f i il_rle.obj
 0001:0002db70       ?CountSamePixels@@YAHPAEII@Z 1002eb70 f i il_rle.obj
 0001:0002dbf0       ?ilRleCompressLine@@YAEPAEIE0PAII@Z 1002ebf0 f   il_rle.obj
 0001:0002de30       ?ilRleCompress@@YAIPAEIIIE0IPAI@Z 1002ee30 f   il_rle.obj
 0001:0002e100       ?iLoadRotInternal@@YAEPAUILimage@@@Z 1002f100 f   il_rot.obj
 0001:0002e660       ?iNewSgi@@YAEPAUILimage@@PAUiSgiHeader@@@Z 1002f660 f   il_sgi.obj
 0001:0002e720       ?iGetSgiHead@@YAHPAUSIO@@PAUiSgiHeader@@@Z 1002f720 f   il_sgi.obj
 0001:0002e820       ?iCheckSgi@@YAEPAUiSgiHeader@@@Z 1002f820 f   il_sgi.obj
 0001:0002e860       ?iIsValidSgi@@YAEPAUSIO@@@Z 1002f860 f   il_sgi.obj
 0001:0002e910       ?iReadNonRleSgi@@YAEPAUILimage@@PAUiSgiHeader@@@Z 1002f910 f   il_sgi.obj
 0001:0002e980       ?iGetScanLine@@YAHPAUILimage@@PAEPAUiSgiHeader@@I@Z 1002f980 f   il_sgi.obj
 0001:0002eb00       ?iReadRleSgi@@YAEPAUILimage@@PAUiSgiHeader@@@Z 1002fb00 f   il_sgi.obj
 0001:0002eef0       ?iLoadSgiInternal@@YAEPAUILimage@@@Z 1002fef0 f   il_sgi.obj
 0001:0002efd0       ?iSaveRleSgi@@YAEPAUILimage@@PAEIIII@Z 1002ffd0 f   il_sgi.obj
 0001:0002f340       ?iSaveSgiInternal@@YAEPAUILimage@@@Z 10030340 f   il_sgi.obj
 0001:0002f710       ?iSizeSeek@@YG_JPAUSIO@@_JI@Z 10030710 f   il_size.obj
 0001:0002f7b0       ?iSizePutc@@YGHEPAUSIO@@@Z 100307b0 f   il_size.obj
 0001:0002f7e0       ?iSizeWrite@@YG_JPBXIIPAUSIO@@@Z 100307e0 f   il_size.obj
 0001:0002f820       ?il2DetermineSize@@YG_JPAUILimage@@I@Z 10030820 f   il_size.obj
 0001:0002f8b0       ?ilIsValidPal@@YGEPAVILpal@@@Z 100308b0 f   il_stack.obj
 0001:0002f8f0       ?ilClosePal@@YGXPAVILpal@@@Z 100308f0 f   il_stack.obj
 0001:0002f930       ?il2CreateSubImage@@YGIPAUILimage@@II@Z 10030930 f   il_stack.obj
 0001:0002fa90       ?il2GetString@@YGPB_WI@Z   10030a90 f   il_states.obj
 0001:0002fc00       ?iClipString@@YAPADPADI@Z  10030c00 f   il_states.obj
 0001:0002fc70       ?ilAble@@YAEIE@Z           10030c70 f   il_states.obj
 0001:0002fe30       ?il2IsEnabled@@YGEI@Z      10030e30 f   il_states.obj
 0001:00030000       ?ilIsDisabled@@YGEI@Z      10031000 f   il_states.obj
 0001:00030020       ?il2GetIntegerv@@YGXIPAH@Z 10031020 f   il_states.obj
 0001:00030450       ?il2GetImageInteger@@YGXPAUILimage@@IPAH@Z 10031450 f   il_states.obj
 0001:00030770       ?ilOriginFunc@@YGEI@Z      10031770 f   il_states.obj
 0001:000307b0       ?ilFormatFunc@@YGEI@Z      100317b0 f   il_states.obj
 0001:00030800       ?ilTypeFunc@@YGEI@Z        10031800 f   il_states.obj
 0001:00030850       ?ilSetString@@YGXIPBD@Z    10031850 f   il_states.obj
 0001:00030b20       ?il2SetInteger@@YGXIH@Z    10031b20 f   il_states.obj
 0001:00030f10       ?il2SetImageInteger@@YGXPAUILimage@@IH@Z 10031f10 f   il_states.obj
 0001:00030fa0       ?iGetInt@@YAHI@Z           10031fa0 f   il_states.obj
 0001:00030ff0       ?iGetSunHead@@YAIPAUSIO@@PAUSUNHEAD@@@Z 10031ff0 f   il_sun.obj
 0001:00031160       ?iCheckSun@@YAEPAUSUNHEAD@@@Z 10032160 f   il_sun.obj
 0001:000311c0       ?iIsValidSun@@YAEPAUSIO@@@Z 100321c0 f   il_sun.obj
 0001:00031220       ?iSunDecodeRle@@YAXPAUILimage@@@Z 10032220 f   il_sun.obj
 0001:00031300       ?iSunPrepareImageBuffer@@YAXPAUILimage@@PAUSUNHEAD@@@Z 10032300 f   il_sun.obj
 0001:00031370       ?iLoadSunInternal@@YAEPAUILimage@@@Z 10032370 f   il_sun.obj
 0001:00031880       ?iCheckTarga@@YAEPAUTARGAHEAD@@@Z 10032880 f   il_targa.obj
 0001:000318e0       ?iIsValidTarga@@YAEPAUSIO@@@Z 100328e0 f   il_targa.obj
 0001:00031960       ?iUncompressTgaData@@YAEPAUILimage@@@Z 10032960 f   il_targa.obj
 0001:00031ac0       ?iReadColMapTga@@YAEPAUILimage@@PAUTARGAHEAD@@@Z 10032ac0 f   il_targa.obj
 0001:00031da0       ?i16BitTarga@@YAEPAUILimage@@@Z 10032da0 f   il_targa.obj
 0001:00031e50       ?iReadUnmapTga@@YAEPAUILimage@@PAUTARGAHEAD@@@Z 10032e50 f   il_targa.obj
 0001:00031fc0       ?iReadBwTga@@YAEPAUILimage@@PAUTARGAHEAD@@@Z 10032fc0 f   il_targa.obj
 0001:00032090       ?iLoadTargaInternal@@YAEPAUILimage@@@Z 10033090 f   il_targa.obj
 0001:000322a0       ?iSaveTargaInternal@@YAEPAUILimage@@@Z 100332a0 f   il_targa.obj
 0001:00032aa0       ?ilIsValidTiffFunc@@YAEPAUSIO@@@Z 10033aa0 f   il_tiff.obj
 0001:00032c40       ?warningHandler@@YAXPBD0PAD@Z 10033c40 f   il_tiff.obj
 0001:00032c50       ?errorHandler@@YAXPBD0PAD@Z 10033c50 f   il_tiff.obj
 0001:00032c60       ?initTiffLoadState@@YAXPAUtiff@@AAUTiffLoadState@@PAUILimage@@@Z 10033c60 f   il_tiff.obj
 0001:00032da0       ?addFrame@@YAEAAUTiffLoadState@@HEI@Z 10033da0 f   il_tiff.obj
 0001:00032e90       ?decodeTiffLuminanceOrPaletted@@YAEPAUILimage@@AAUTiffLoadState@@H@Z 10033e90 f   il_tiff.obj
 0001:000332e0       ?decodeRGB16@@YAEPAUILimage@@AAUTiffLoadState@@H@Z 100342e0 f   il_tiff.obj
 0001:000334d0       ?decodeOther@@YAEPAUILimage@@AAUTiffLoadState@@H@Z 100344d0 f   il_tiff.obj
 0001:00033600       ?decodeFrame@@YAEPAUILimage@@PAUtiff@@H@Z 10034600 f   il_tiff.obj
 0001:00033870       ?iLoadTiffInternal@@YAEPAUILimage@@@Z 10034870 f   il_tiff.obj
 0001:00033990       ?iSaveTiffInternal@@YAEPAUILimage@@@Z 10034990 f   il_tiff.obj
 0001:00033e60       ?iGetTplHead@@YAEPAUSIO@@PAUTPLHEAD@@@Z 10034e60 f   il_tpl.obj
 0001:00033f20       ?iIsValidTpl@@YAEPAUSIO@@@Z 10034f20 f   il_tpl.obj
 0001:00033f70       ?iLoadTplInternal@@YAEPAUILimage@@@Z 10034f70 f   il_tpl.obj
 0001:00034d60       ?TplGetIndexImage@@YAEPAUILimage@@II@Z 10035d60 f   il_tpl.obj
 0001:00035480       ?ilGetBppFormat@@YGEI@Z    10036480 f   il_utility.obj
 0001:000354f0       ?ilGetFormatBpp@@YGIE@Z    100364f0 f   il_utility.obj
 0001:00035540       ?ilGetBpcType@@YGEI@Z      10036540 f   il_utility.obj
 0001:000355a0       ?ilGetTypeBpc@@YGIE@Z      100365a0 f   il_utility.obj
 0001:00035600       ?ilGetBppPal@@YGEI@Z       10036600 f   il_utility.obj
 0001:00035650       ?ilGetPalBaseType@@YGII@Z  10036650 f   il_utility.obj
 0001:000356b0       ?ilNextPower2@@YGII@Z      100366b0 f   il_utility.obj
 0001:000356d0       ?iMemSwap@@YGXPAE0I@Z      100366d0 f   il_utility.obj
 0001:000357a0       ?compare@?$char_traits@D@std@@SAHPBD0I@Z 100367a0 f i il_utx.obj
 0001:00035800       ?GetUtxName@@YA?AV?$basic_string@DU?$char_traits@D@std@@V?$allocator@D@2@@std@@PAUSIO@@AAUUTXHEADER@@@Z 10036800 f   il_utx.obj
 0001:000358e0       ?GetUtxNameTable@@YA_NPAUSIO@@AAV?$vector@UUTXENTRYNAME@@V?$allocator@UUTXENTRYNAME@@@std@@@std@@AAUUTXHEADER@@@Z 100368e0 f   il_utx.obj
 0001:00035a50       ?UtxReadCompactInteger@@YAHPAUSIO@@@Z 10036a50 f   il_utx.obj
 0001:00035ad0       ?GetUtxExportTable@@YA_NPAUSIO@@AAV?$vector@UUTXEXPORTTABLE@@V?$allocator@UUTXEXPORTTABLE@@@std@@@std@@AAUUTXHEADER@@@Z 10036ad0 f   il_utx.obj
 0001:00035c40       ?GetUtxImportTable@@YA_NPAUSIO@@AAV?$vector@UUTXIMPORTTABLE@@V?$allocator@UUTXIMPORTTABLE@@@std@@@std@@AAUUTXHEADER@@@Z 10036c40 f   il_utx.obj
 0001:00035d20       ?iLoadUtxInternal@@YAEPAUILimage@@@Z 10036d20 f   il_utx.obj
 0001:000367d0       ??0?$basic_string@DU?$char_traits@D@std@@V?$allocator@D@2@@std@@QAE@ABV01@@Z 100377d0 f i il_utx.obj
 0001:00036800       ??1?$vector@UUTXENTRYNAME@@V?$allocator@UUTXENTRYNAME@@@std@@@std@@QAE@XZ 10037800 f i il_utx.obj
 0001:00036840       ?resize@?$vector@UUTXENTRYNAME@@V?$allocator@UUTXENTRYNAME@@@std@@@std@@QAEXI@Z 10037840 f i il_utx.obj
 0001:00036900       ??1?$vector@PAULineBuffer@?A0xad7979d8@Imf@@V?$allocator@PAULineBuffer@?A0xad7979d8@Imf@@@std@@@std@@QAE@XZ 10037900 f i OpenExr:ImfDeepScanLineInputFile.obj
 0001:00036900       ??1?$vector@UUTXEXPORTTABLE@@V?$allocator@UUTXEXPORTTABLE@@@std@@@std@@QAE@XZ 10037900 f i il_utx.obj
 0001:00036900       ??1?$vector@PAULineBuffer@?A0xa53b32cd@Imf@@V?$allocator@PAULineBuffer@?A0xa53b32cd@Imf@@@std@@@std@@QAE@XZ 10037900 f i OpenExr:ImfScanLineInputFile.obj
 0001:00036900       ??1?$vector@PAUTileBuffer@?A0xea54366f@Imf@@V?$allocator@PAUTileBuffer@?A0xea54366f@Imf@@@std@@@std@@QAE@XZ 10037900 f i OpenExr:ImfTiledInputFile.obj
 0001:00036900       ??1?$vector@UTInSliceInfo@?A0xea54366f@Imf@@V?$allocator@UTInSliceInfo@?A0xea54366f@Imf@@@std@@@std@@QAE@XZ 10037900 f i OpenExr:ImfTiledInputFile.obj
 0001:00036900       ??1?$vector@UsliceOptimizationData@?A0xa53b32cd@Imf@@V?$allocator@UsliceOptimizationData@?A0xa53b32cd@Imf@@@std@@@std@@QAE@XZ 10037900 f i OpenExr:ImfScanLineInputFile.obj
 0001:00036900       ??1?$vector@PAULineBuffer@?A0xd9c78d9d@Imf@@V?$allocator@PAULineBuffer@?A0xd9c78d9d@Imf@@@std@@@std@@QAE@XZ 10037900 f i OpenExr:ImfOutputFile.obj
 0001:00036900       ??1?$vector@UOutSliceInfo@?A0xd9c78d9d@Imf@@V?$allocator@UOutSliceInfo@?A0xd9c78d9d@Imf@@@std@@@std@@QAE@XZ 10037900 f i OpenExr:ImfOutputFile.obj
 0001:00036900       ??1?$vector@PBVHeader@Imf@@V?$allocator@PBVHeader@Imf@@@std@@@std@@QAE@XZ 10037900 f i OpenExr:ImfCompositeDeepScanLine.obj
 0001:00036900       ??1?$vector@_KV?$allocator@_K@std@@@std@@QAE@XZ 10037900 f i OpenExr:ImfOutputFile.obj
 0001:00036900       ??1?$vector@PBDV?$allocator@PBD@std@@@std@@QAE@XZ 10037900 f i OpenExr:ImfDwaCompressor.obj
 0001:00036900       ??1?$vector@PAUInputPartData@Imf@@V?$allocator@PAUInputPartData@Imf@@@std@@@std@@QAE@XZ 10037900 f i OpenExr:ImfMultiPartInputFile.obj
 0001:00036900       ??1?$vector@PAGV?$allocator@PAG@std@@@std@@QAE@XZ 10037900 f i OpenExr:ImfDwaCompressor.obj
 0001:00036900       ??1?$vector@UCscChannelSet@DwaCompressor@Imf@@V?$allocator@UCscChannelSet@DwaCompressor@Imf@@@std@@@std@@QAE@XZ 10037900 f i OpenExr:ImfDwaCompressor.obj
 0001:00036900       ??1?$vector@MV?$allocator@M@std@@@std@@QAE@XZ 10037900 f i OpenExr:ImfHeader.obj
 0001:00036900       ??1?$vector@HV?$allocator@H@std@@@std@@QAE@XZ 10037900 f i OpenExr:ImfMultiPartInputFile.obj
 0001:00036900       ??1?$vector@PAVDeepScanLineInputPart@Imf@@V?$allocator@PAVDeepScanLineInputPart@Imf@@@std@@@std@@QAE@XZ 10037900 f i OpenExr:ImfCompositeDeepScanLine.obj
 0001:00036900       ??1?$vector@PAUInSliceInfo@?A0xad7979d8@Imf@@V?$allocator@PAUInSliceInfo@?A0xad7979d8@Imf@@@std@@@std@@QAE@XZ 10037900 f i OpenExr:ImfDeepScanLineInputFile.obj
 0001:00036900       ??1?$vector@UInSliceInfo@?A0xa53b32cd@Imf@@V?$allocator@UInSliceInfo@?A0xa53b32cd@Imf@@@std@@@std@@QAE@XZ 10037900 f i OpenExr:ImfScanLineInputFile.obj
 0001:00036900       ??1?$vector@PAVTileOffsets@Imf@@V?$allocator@PAVTileOffsets@Imf@@@std@@@std@@QAE@XZ 10037900 f i OpenExr:ImfMultiPartInputFile.obj
 0001:00036900       ??1?$vector@PBMV?$allocator@PBM@std@@@std@@QAE@XZ 10037900 f i OpenExr:ImfCompositeDeepScanLine.obj
 0001:00036900       ??1?$vector@IV?$allocator@I@std@@@std@@QAE@XZ 10037900 f i OpenExr:ImfOutputFile.obj
 0001:00036900       ??1?$vector@PAVDeepScanLineInputFile@Imf@@V?$allocator@PAVDeepScanLineInputFile@Imf@@@std@@@std@@QAE@XZ 10037900 f i OpenExr:ImfCompositeDeepScanLine.obj
 0001:00036900       ??1?$vector@UUTXIMPORTTABLE@@V?$allocator@UUTXIMPORTTABLE@@@std@@@std@@QAE@XZ 10037900 f i il_utx.obj
 0001:00036900       ??1?$_Vb_val@V?$allocator@_N@std@@@std@@QAE@XZ 10037900 f i OpenExr:ImfDwaCompressor.obj
 0001:00036930       ?resize@?$vector@UUTXEXPORTTABLE@@V?$allocator@UUTXEXPORTTABLE@@@std@@@std@@QAEXI@Z 10037930 f i il_utx.obj
 0001:000369a0       ?resize@?$vector@UUTXIMPORTTABLE@@V?$allocator@UUTXIMPORTTABLE@@@std@@@std@@QAEXI@Z 100379a0 f i il_utx.obj
 0001:00036a50       ??1?$vector@VUTXPALETTE@@V?$allocator@VUTXPALETTE@@@std@@@std@@QAE@XZ 10037a50 f i il_utx.obj
 0001:00036a60       ?resize@?$vector@VUTXPALETTE@@V?$allocator@VUTXPALETTE@@@std@@@std@@QAEXI@Z 10037a60 f i il_utx.obj
 0001:00036b20       ?_Assign_rv@?$basic_string@DU?$char_traits@D@std@@V?$allocator@D@2@@std@@QAEX$$QAV12@@Z 10037b20 f i il_utx.obj
 0001:00036b80       ?_Reserve@?$vector@UUTXENTRYNAME@@V?$allocator@UUTXENTRYNAME@@@std@@@std@@IAEXI@Z 10037b80 f i il_utx.obj
 0001:00036bf0       ?_Reserve@?$vector@UUTXEXPORTTABLE@@V?$allocator@UUTXEXPORTTABLE@@@std@@@std@@IAEXI@Z 10037bf0 f i il_utx.obj
 0001:00036c70       ?_Reserve@?$vector@UUTXIMPORTTABLE@@V?$allocator@UUTXIMPORTTABLE@@@std@@@std@@IAEXI@Z 10037c70 f i il_utx.obj
 0001:00036d20       ?_Reserve@?$vector@VUTXPALETTE@@V?$allocator@VUTXPALETTE@@@std@@@std@@IAEXI@Z 10037d20 f i il_utx.obj
 0001:00036dc0       ?_Tidy@?$vector@VUTXPALETTE@@V?$allocator@VUTXPALETTE@@@std@@@std@@IAEXXZ 10037dc0 f i il_utx.obj
 0001:00036e10       ?_Destroy@?$vector@UUTXENTRYNAME@@V?$allocator@UUTXENTRYNAME@@@std@@@std@@IAEXPAUUTXENTRYNAME@@0@Z 10037e10 f i il_utx.obj
 0001:00036e50       ?_Grow_to@?$vector@UOutSliceInfo@?A0xd9c78d9d@Imf@@V?$allocator@UOutSliceInfo@?A0xd9c78d9d@Imf@@@std@@@std@@IBEII@Z 10037e50 f i OpenExr:ImfOutputFile.obj
 0001:00036e50       ?_Grow_to@?$vector@UUTXENTRYNAME@@V?$allocator@UUTXENTRYNAME@@@std@@@std@@IBEII@Z 10037e50 f i il_utx.obj
 0001:00036ea0       ?_Reallocate@?$vector@UUTXENTRYNAME@@V?$allocator@UUTXENTRYNAME@@@std@@@std@@IAEXI@Z 10037ea0 f i il_utx.obj
 0001:00036fa0       ?_Reallocate@?$vector@UUTXEXPORTTABLE@@V?$allocator@UUTXEXPORTTABLE@@@std@@@std@@IAEXI@Z 10037fa0 f i il_utx.obj
 0001:00036fa0       ?_Reallocate@?$vector@UsliceOptimizationData@?A0xa53b32cd@Imf@@V?$allocator@UsliceOptimizationData@?A0xa53b32cd@Imf@@@std@@@std@@IAEXI@Z 10037fa0 f i OpenExr:ImfScanLineInputFile.obj
 0001:00037020       ?_Reallocate@?$vector@UUTXIMPORTTABLE@@V?$allocator@UUTXIMPORTTABLE@@@std@@@std@@IAEXI@Z 10038020 f i il_utx.obj
 0001:000370b0       ?_Reallocate@?$vector@VUTXPALETTE@@V?$allocator@VUTXPALETTE@@@std@@@std@@IAEXI@Z 100380b0 f i il_utx.obj
 0001:00037180       ??$?8DU?$char_traits@D@std@@V?$allocator@D@1@@std@@YA_NABV?$basic_string@DU?$char_traits@D@std@@V?$allocator@D@2@@0@PBD@Z 10038180 f i il_utx.obj
 0001:000371e0       ?replace@?$basic_string@DU?$char_traits@D@std@@V?$allocator@D@2@@std@@QAEAAV12@IIPBDI@Z 100381e0 f i il_utx.obj
 0001:00037360       ?replace@?$basic_string@DU?$char_traits@D@std@@V?$allocator@D@2@@std@@QAEAAV12@IIABV12@II@Z 10038360 f i il_utx.obj
 0001:000376b0       ??$_Uninit_def_fill_n@PAUUTXENTRYNAME@@IV?$allocator@UUTXENTRYNAME@@@std@@U1@@std@@YAXPAUUTXENTRYNAME@@IAAU?$_Wrap_alloc@V?$allocator@UUTXENTRYNAME@@@std@@@0@0U_Nonscalar_ptr_iterator_tag@0@@Z 100386b0 f i il_utx.obj
 0001:000376d0       ??$_Uninit_def_fill_n@PAUUTXEXPORTTABLE@@IV?$allocator@UUTXEXPORTTABLE@@@std@@U1@@std@@YAXPAUUTXEXPORTTABLE@@IAAU?$_Wrap_alloc@V?$allocator@UUTXEXPORTTABLE@@@std@@@0@0U_Nonscalar_ptr_iterator_tag@0@@Z 100386d0 f i il_utx.obj
 0001:000376f0       ??$_Uninit_def_fill_n@PAUUTXIMPORTTABLE@@IV?$allocator@UUTXIMPORTTABLE@@@std@@U1@@std@@YAXPAUUTXIMPORTTABLE@@IAAU?$_Wrap_alloc@V?$allocator@UUTXIMPORTTABLE@@@std@@@0@0U_Nonscalar_ptr_iterator_tag@0@@Z 100386f0 f i il_utx.obj
 0001:00037710       ??$_Uninit_def_fill_n@PAVUTXPALETTE@@IV?$allocator@VUTXPALETTE@@@std@@V1@@std@@YAXPAVUTXPALETTE@@IAAU?$_Wrap_alloc@V?$allocator@VUTXPALETTE@@@std@@@0@0U_Nonscalar_ptr_iterator_tag@0@@Z 10038710 f i il_utx.obj
 0001:00037730       ??$_Destroy_range@U?$_Wrap_alloc@V?$allocator@UUTXENTRYNAME@@@std@@@std@@@std@@YAXPAUUTXENTRYNAME@@0AAU?$_Wrap_alloc@V?$allocator@UUTXENTRYNAME@@@std@@@0@U_Nonscalar_ptr_iterator_tag@0@@Z 10038730 f i il_utx.obj
 0001:00037770       ??$destroy@V?$basic_string@DU?$char_traits@D@std@@V?$allocator@D@2@@std@@@?$_Wrap_alloc@V?$allocator@V?$basic_string@DU?$char_traits@D@std@@V?$allocator@D@2@@std@@@std@@@std@@QAEXPAV?$basic_string@DU?$char_traits@D@std@@V?$allocator@D@2@@1@@Z 10038770 f i OpenExr:ImfHeader.obj
 0001:00037770       ??$destroy@UClassifier@DwaCompressor@Imf@@@?$_Wrap_alloc@V?$allocator@UClassifier@DwaCompressor@Imf@@@std@@@std@@QAEXPAUClassifier@DwaCompressor@Imf@@@Z 10038770 f i OpenExr:ImfDwaCompressor.obj
 0001:00037770       ??$destroy@UChannelData@DwaCompressor@Imf@@@?$_Wrap_alloc@V?$allocator@UChannelData@DwaCompressor@Imf@@@std@@@std@@QAEXPAUChannelData@DwaCompressor@Imf@@@Z 10038770 f i OpenExr:ImfDwaCompressor.obj
 0001:00037770       ??$destroy@UUTXENTRYNAME@@@?$_Wrap_alloc@V?$allocator@UUTXENTRYNAME@@@std@@@std@@QAEXPAUUTXENTRYNAME@@@Z 10038770 f i il_utx.obj
 0001:000377a0       ??$_Uninit_move@PAUUTXENTRYNAME@@PAU1@V?$allocator@UUTXENTRYNAME@@@std@@U1@@std@@YAPAUUTXENTRYNAME@@PAU1@00AAU?$_Wrap_alloc@V?$allocator@UUTXENTRYNAME@@@std@@@0@0U_Nonscalar_ptr_iterator_tag@0@@Z 100387a0 f i il_utx.obj
 0001:00037860       ??$_Uninit_copy@PAUsliceOptimizationData@?A0xa53b32cd@Imf@@PAU123@V?$allocator@UsliceOptimizationData@?A0xa53b32cd@Imf@@@std@@@std@@YAPAUsliceOptimizationData@?A0xa53b32cd@Imf@@PAU123@00AAU?$_Wrap_alloc@V?$allocator@UsliceOptimizationData@?A0xa53b32cd@Imf@@@std@@@0@U_Nonscalar_ptr_iterator_tag@0@@Z 10038860 f i OpenExr:ImfScanLineInputFile.obj
 0001:00037860       ??$_Uninit_move@PAUUTXEXPORTTABLE@@PAU1@V?$allocator@UUTXEXPORTTABLE@@@std@@U1@@std@@YAPAUUTXEXPORTTABLE@@PAU1@00AAU?$_Wrap_alloc@V?$allocator@UUTXEXPORTTABLE@@@std@@@0@0U_Nonscalar_ptr_iterator_tag@0@@Z 10038860 f i il_utx.obj
 0001:00037860       ??$_Uninit_move@PAUsliceOptimizationData@?A0xa53b32cd@Imf@@PAU123@V?$allocator@UsliceOptimizationData@?A0xa53b32cd@Imf@@@std@@U123@@std@@YAPAUsliceOptimizationData@?A0xa53b32cd@Imf@@PAU123@00AAU?$_Wrap_alloc@V?$allocator@UsliceOptimizationData@?A0xa53b32cd@Imf@@@std@@@0@0U_Nonscalar_ptr_iterator_tag@0@@Z 10038860 f i OpenExr:ImfScanLineInputFile.obj
 0001:000378a0       ??$_Uninit_move@PAUUTXIMPORTTABLE@@PAU1@V?$allocator@UUTXIMPORTTABLE@@@std@@U1@@std@@YAPAUUTXIMPORTTABLE@@PAU1@00AAU?$_Wrap_alloc@V?$allocator@UUTXIMPORTTABLE@@@std@@@0@0U_Nonscalar_ptr_iterator_tag@0@@Z 100388a0 f i il_utx.obj
 0001:000378d0       ??$_Uninit_move@PAVUTXPALETTE@@PAV1@V?$allocator@VUTXPALETTE@@@std@@V1@@std@@YAPAVUTXPALETTE@@PAV1@00AAU?$_Wrap_alloc@V?$allocator@VUTXPALETTE@@@std@@@0@0U_Nonscalar_ptr_iterator_tag@0@@Z 100388d0 f i il_utx.obj
 0001:000378d0       ??$_Uninit_move@PAUCscChannelSet@DwaCompressor@Imf@@PAU123@V?$allocator@UCscChannelSet@DwaCompressor@Imf@@@std@@U123@@std@@YAPAUCscChannelSet@DwaCompressor@Imf@@PAU123@00AAU?$_Wrap_alloc@V?$allocator@UCscChannelSet@DwaCompressor@Imf@@@std@@@0@0U_Nonscalar_ptr_iterator_tag@0@@Z 100388d0 f i OpenExr:ImfDwaCompressor.obj
 0001:00037900       ?iIsValidVtf@@YAEPAUSIO@@@Z 10038900 f   il_vtf.obj
 0001:00037990       ?iCheckVtf@@YAEPAUVTFHEAD@@@Z 10038990 f   il_vtf.obj
 0001:00037a70       ?iLoadVtfInternal@@YAEPAUILimage@@@Z 10038a70 f   il_vtf.obj
 0001:00038500       ?VtfInitFacesMipmaps@@YAEPAUILimage@@IPAUVTFHEAD@@@Z 10039500 f   il_vtf.obj
 0001:00038650       ?VtfInitMipmaps@@YAEPAUILimage@@PAUVTFHEAD@@@Z 10039650 f   il_vtf.obj
 0001:00038780       ?iSaveVtfInternal@@YAEPAUILimage@@@Z 10039780 f   il_vtf.obj
 0001:00038c10       ?iLoadWalInternal@@YAEPAUILimage@@@Z 10039c10 f   il_wal.obj
 0001:00038fa0       ?WbmpGetMultibyte@@YAIPAUSIO@@@Z 10039fa0 f   il_wbmp.obj
 0001:00038fe0       ?iLoadWbmpInternal@@YAEPAUILimage@@@Z 10039fe0 f   il_wbmp.obj
 0001:00039160       ?WbmpPutMultibyte@@YAEPAUSIO@@I@Z 1003a160 f   il_wbmp.obj
 0001:000391b0       ?iSaveWbmpInternal@@YAEPAUILimage@@@Z 1003a1b0 f   il_wbmp.obj
 0001:00039450       ?XpmGetsInternal@@YAHPAUSIO@@PAEH@Z 1003a450 f   il_xpm.obj
 0001:000394d0       ?iIsValidXpm@@YAEPAUSIO@@@Z 1003a4d0 f   il_xpm.obj
 0001:00039540       ?XpmCreateHashTable@@YAPAPAUXPMHASHENTRY@@XZ 1003a540 f   il_xpm.obj
 0001:00039580       ?XpmDestroyHashTable@@YAXPAPAUXPMHASHENTRY@@@Z 1003a580 f   il_xpm.obj
 0001:000395d0       ?XpmGets@@YAHPAUSIO@@PAEH@Z 1003a5d0 f   il_xpm.obj
 0001:000396d0       ?XpmGetInt@@YAHPAEHPAH@Z   1003a6d0 f   il_xpm.obj
 0001:000397a0       ?XpmPredefCol@@YAEPADPAY03E@Z 1003a7a0 f   il_xpm.obj
 0001:00039ae0       ?XpmGetColour@@YAEPAEHHPAPAUXPMHASHENTRY@@@Z 1003aae0 f   il_xpm.obj
 0001:00039eb0       ?iLoadXpmInternal@@YAEPAUILimage@@@Z 1003aeb0 f   il_xpm.obj
 0001:0003a210       _jas_image_create          1003b210 f   libjasper:jas_image.obj
 0001:0003a390       _jas_image_create0         1003b390 f   libjasper:jas_image.obj
 0001:0003a3f0       _jas_image_destroy         1003b3f0 f   libjasper:jas_image.obj
 0001:0003a620       _jas_image_decode          1003b620 f   libjasper:jas_image.obj
 0001:0003a6b0       _jas_image_encode          1003b6b0 f   libjasper:jas_image.obj
 0001:0003a700       _jas_image_readcmpt        1003b700 f   libjasper:jas_image.obj
 0001:0003a8b0       _jas_image_writecmpt       1003b8b0 f   libjasper:jas_image.obj
 0001:0003aa70       _jas_image_clearfmts       1003ba70 f   libjasper:jas_image.obj
 0001:0003aae0       _jas_image_addfmt          1003bae0 f   libjasper:jas_image.obj
 0001:0003abd0       _jas_image_getfmt          1003bbd0 f   libjasper:jas_image.obj
 0001:0003ac20       _jas_image_rawsize         1003bc20 f   libjasper:jas_image.obj
 0001:0003acd0       _jas_image_addcmpt         1003bcd0 f   libjasper:jas_image.obj
 0001:0003ad70       _jas_image_lookupfmtbyname 1003bd70 f   libjasper:jas_image.obj
 0001:0003af20       _jas_image_depalettize     1003bf20 f   libjasper:jas_image.obj
 0001:0003b010       _jas_image_readcmptsample  1003c010 f   libjasper:jas_image.obj
 0001:0003b110       _jas_image_writecmptsample 1003c110 f   libjasper:jas_image.obj
 0001:0003b220       _jas_image_getcmptbytype   1003c220 f   libjasper:jas_image.obj
 0001:0003b250       _jas_matrix_create         1003c250 f   libjasper:jas_seq.obj
 0001:0003b340       _jas_matrix_destroy        1003c340 f   libjasper:jas_seq.obj
 0001:0003b380       _jas_seq2d_bindsub         1003c380 f   libjasper:jas_seq.obj
 0001:0003b3b0       _jas_matrix_bindsub        1003c3b0 f   libjasper:jas_seq.obj
 0001:0003b490       _jas_matrix_divpow2        1003c490 f   libjasper:jas_seq.obj
 0001:0003b500       _jas_matrix_clip           1003c500 f   libjasper:jas_seq.obj
 0001:0003b580       _jas_matrix_resize         1003c580 f   libjasper:jas_seq.obj
 0001:0003b5e0       _jas_stream_memopen        1003c5e0 f   libjasper:jas_stream.obj
 0001:0003b730       _jas_stream_tmpfile        1003c730 f   libjasper:jas_stream.obj
 0001:0003b7b0       _jas_stream_close          1003c7b0 f   libjasper:jas_stream.obj
 0001:0003b7f0       _jas_stream_read           1003c7f0 f   libjasper:jas_stream.obj
 0001:0003b8f0       _jas_stream_write          1003c8f0 f   libjasper:jas_stream.obj
 0001:0003b9f0       _jas_stream_printf         1003c9f0 f   libjasper:jas_stream.obj
 0001:0003ba50       _jas_stream_puts           1003ca50 f   libjasper:jas_stream.obj
 0001:0003bb40       _jas_stream_gobble         1003cb40 f   libjasper:jas_stream.obj
 0001:0003bba0       _jas_stream_pad            1003cba0 f   libjasper:jas_stream.obj
 0001:0003bc00       _jas_stream_rewind         1003cc00 f   libjasper:jas_stream.obj
 0001:0003bc50       _jas_stream_seek           1003cc50 f   libjasper:jas_stream.obj
 0001:0003bcb0       _jas_stream_tell           1003ccb0 f   libjasper:jas_stream.obj
 0001:0003bd40       _jas_stream_flush          1003cd40 f   libjasper:jas_stream.obj
 0001:0003bda0       _jas_stream_fillbuf        1003cda0 f   libjasper:jas_stream.obj
 0001:0003be30       _jas_stream_flushbuf       1003ce30 f   libjasper:jas_stream.obj
 0001:0003bec0       _jas_stream_copy           1003cec0 f   libjasper:jas_stream.obj
 0001:0003c1e0       _jas_init                  1003d1e0 f   libjasper:jas_init.obj
 0001:0003c3d0       _jas_cleanup               1003d3d0 f   libjasper:jas_init.obj
 0001:0003c3e0       _jas_cmprof_createfromclrspc 1003d3e0 f   libjasper:jas_cm.obj
 0001:0003c630       _jas_cmprof_createfromiccprof 1003d630 f   libjasper:jas_cm.obj
 0001:0003c850       _jas_cmprof_destroy        1003d850 f   libjasper:jas_cm.obj
 0001:0003dae0       _jas_strdup                1003eae0 f   libjasper:jas_string.obj
 0001:0003db90       _jpc_encode                1003eb90 f   libjasper:jpc_enc.obj
 0001:0003e7c0       _ratestrtosize             1003f7c0 f   libjasper:jpc_enc.obj
 0001:0003e860       _jpc_enc_create            1003f860 f   libjasper:jpc_enc.obj
 0001:0003e8e0       _jpc_enc_destroy           1003f8e0 f   libjasper:jpc_enc.obj
 0001:0003ffc0       _jpc_quantize              10040fc0 f   libjasper:jpc_enc.obj
 0001:00040050       _calcrdslopes              10041050 f   libjasper:jpc_enc.obj
 0001:00040100       _dump_layeringinfo         10041100 f   libjasper:jpc_enc.obj
 0001:00040270       _rateallocate              10041270 f   libjasper:jpc_enc.obj
 0001:00040bb0       _jpc_enc_tile_create       10041bb0 f   libjasper:jpc_enc.obj
 0001:00040ec0       _jpc_enc_tile_destroy      10041ec0 f   libjasper:jpc_enc.obj
 0001:00041f80       _jpc_enc_dump              10042f80 f   libjasper:jpc_enc.obj
 0001:00042110       _jpc_decode                10043110 f   libjasper:jpc_dec.obj
 0001:00044c70       _jpc_seg_alloc             10045c70 f   libjasper:jpc_dec.obj
 0001:00044ef0       _jpc_streamlist_create     10045ef0 f   libjasper:jpc_dec.obj
 0001:00044f60       _jpc_streamlist_insert     10045f60 f   libjasper:jpc_dec.obj
 0001:00044fd0       _jpc_streamlist_remove     10045fd0 f   libjasper:jpc_dec.obj
 0001:00045010       _jpc_streamlist_destroy    10046010 f   libjasper:jpc_dec.obj
 0001:000450e0       _jpc_ppxstab_destroy       100460e0 f   libjasper:jpc_dec.obj
 0001:00045140       _jpc_ppxstab_insert        10046140 f   libjasper:jpc_dec.obj
 0001:000451e0       _jpc_ppmstabtostreams      100461e0 f   libjasper:jpc_dec.obj
 0001:00045350       _jpc_pptstabwrite          10046350 f   libjasper:jpc_dec.obj
 0001:00045410       _bmp_encode                10046410 f   libjasper:bmp_enc.obj
 0001:00045f10       _ras_encode                10046f10 f   libjasper:ras_enc.obj
 0001:000469a0       _jpg_encode                100479a0 f   libjasper:jpg_enc.obj
 0001:00046df0       _mif_decode                10047df0 f   libjasper:mif_cod.obj
 0001:000470f0       _mif_encode                100480f0 f   libjasper:mif_cod.obj
 0001:00047390       _mif_validate              10048390 f   libjasper:mif_cod.obj
 0001:00047d80       _pnm_decode                10048d80 f   libjasper:pnm_dec.obj
 0001:00047ed0       _pnm_validate              10048ed0 f   libjasper:pnm_dec.obj
 0001:00048c90       _pgx_decode                10049c90 f   libjasper:pgx_dec.obj
 0001:00048d40       _pgx_validate              10049d40 f   libjasper:pgx_dec.obj
 0001:00049650       _pnm_encode                1004a650 f   libjasper:pnm_enc.obj
 0001:00049dd0       _jpc_putuint16             1004add0 f   libjasper:jpc_cs.obj
 0001:00049e70       _bmp_decode                1004ae70 f   libjasper:bmp_dec.obj
 0001:0004a120       _bmp_validate              1004b120 f   libjasper:bmp_dec.obj
 0001:0004aca0       _jpg_decode                1004bca0 f   libjasper:jpg_dec.obj
 0001:0004b250       _jpg_validate              1004c250 f   libjasper:jpg_val.obj
 0001:0004b2c0       _ras_decode                1004c2c0 f   libjasper:ras_dec.obj
 0001:0004b4a0       _ras_validate              1004c4a0 f   libjasper:ras_dec.obj
 0001:0004bb60       _jpc_getms                 1004cb60 f   libjasper:jpc_cs.obj
 0001:0004bd70       _jpc_putms                 1004cd70 f   libjasper:jpc_cs.obj
 0001:0004be60       _jpc_ms_create             1004ce60 f   libjasper:jpc_cs.obj
 0001:0004bec0       _jpc_ms_destroy            1004cec0 f   libjasper:jpc_cs.obj
 0001:0004bef0       _jpc_ms_dump               1004cef0 f   libjasper:jpc_cs.obj
 0001:0004d9d0       ?underflow@?$basic_streambuf@DU?$char_traits@D@std@@@std@@MAEHXZ 1004e9d0 f   OpenExr:ImfRgbaFile.obj
 0001:0004da20       _jpc_getuint8              1004ea20 f   libjasper:jpc_cs.obj
 0001:0004da70       _jpc_putuint8              1004ea70 f   libjasper:jpc_cs.obj
 0001:0004dac0       _jpc_getuint16             1004eac0 f   libjasper:jpc_cs.obj
 0001:0004db70       _jpc_getuint32             1004eb70 f   libjasper:jpc_cs.obj
 0001:0004dca0       _jpc_putuint32             1004eca0 f   libjasper:jpc_cs.obj
 0001:0004de10       _jpc_validate              1004ee10 f   libjasper:jpc_cs.obj
 0001:0004de80       _jp2_decode                1004ee80 f   libjasper:jp2_dec.obj
 0001:0004e760       _jp2_validate              1004f760 f   libjasper:jp2_dec.obj
 0001:0004e9a0       _jp2_encode                1004f9a0 f   libjasper:jp2_enc.obj
 0001:0004f060       _pgx_encode                10050060 f   libjasper:pgx_enc.obj
 0001:0004f410       _jas_iccprof_copy          10050410 f   libjasper:jas_icc.obj
 0001:0004f4b0       _jas_iccprof_destroy       100504b0 f   libjasper:jas_icc.obj
 0001:0004f4e0       _jas_iccprof_load          100504e0 f   libjasper:jas_icc.obj
 0001:0004f710       _jas_iccprof_save          10050710 f   libjasper:jas_icc.obj
 0001:0004fee0       _jas_iccprof_getattr       10050ee0 f   libjasper:jas_icc.obj
 0001:0004ff20       _jas_iccprof_setattr       10050f20 f   libjasper:jas_icc.obj
 0001:0004ffc0       _jas_iccprof_gethdr        10050fc0 f   libjasper:jas_icc.obj
 0001:00050460       _jas_iccattrval_create     10051460 f   libjasper:jas_icc.obj
 0001:000504f0       _jas_iccattrval_destroy    100514f0 f   libjasper:jas_icc.obj
 0001:000521d0       _jas_iccprof_createfrombuf 100531d0 f   libjasper:jas_icc.obj
 0001:00052200       _jas_iccprof_createfromclrspc 10053200 f   libjasper:jas_icc.obj
 0001:00052260       _jpc_atoaf                 10053260 f   libjasper:jpc_util.obj
 0001:000523c0       _jas_eprintf               100533c0 f   libjasper:jas_debug.obj
 0001:000523e0       _jas_memdump               100533e0 f   libjasper:jas_debug.obj
 0001:00052450       _jas_tvparser_create       10053450 f   libjasper:jas_tvp.obj
 0001:000524d0       _jas_tvparser_next         100534d0 f   libjasper:jas_tvp.obj
 0001:00052610       _jas_taginfos_lookup       10053610 f   libjasper:jas_tvp.obj
 0001:00052660       _jpc_pi_next               10053660 f   libjasper:jpc_t2cod.obj
 0001:000531c0       _jpc_pi_destroy            100541c0 f   libjasper:jpc_t2cod.obj
 0001:00053280       _jpc_pi_create0            10054280 f   libjasper:jpc_t2cod.obj
 0001:000532e0       _jpc_pchglist_insert       100542e0 f   libjasper:jpc_t2cod.obj
 0001:00053350       _jpc_pchglist_copy         10054350 f   libjasper:jpc_t2cod.obj
 0001:00053420       _jpc_pchglist_destroy      10054420 f   libjasper:jpc_t2cod.obj
 0001:00053460       _jpc_pi_init               10054460 f   libjasper:jpc_t2cod.obj
 0001:000534f0       _JPC_PASSTYPE              100544f0 f   libjasper:jpc_t1cod.obj
 0001:00053530       _JPC_SEGTYPE               10054530 f   libjasper:jpc_t1cod.obj
 0001:00053570       _JPC_SEGPASSCNT            10054570 f   libjasper:jpc_t1cod.obj
 0001:00053600       _jpc_initluts              10054600 f   libjasper:jpc_t1cod.obj
 0001:000538d0       _jpc_getzcctxno            100548d0 f   libjasper:jpc_t1cod.obj
 0001:00053a30       _jpc_getspb                10054a30 f   libjasper:jpc_t1cod.obj
 0001:00053b00       _jpc_getscctxno            10054b00 f   libjasper:jpc_t1cod.obj
 0001:00053c20       _jpc_initctxs              10054c20 f   libjasper:jpc_t1cod.obj
 0001:00053c70       _jpc_pow2i                 10054c70 f   libjasper:jpc_t1cod.obj
 0001:00053fc0       _jpc_enc_encpkts           10054fc0 f   libjasper:jpc_t2enc.obj
 0001:00054040       _jpc_enc_encpkt            10055040 f   libjasper:jpc_t2enc.obj
 0001:000547a0       _jpc_save_t2state          100557a0 f   libjasper:jpc_t2enc.obj
 0001:00054920       _jpc_restore_t2state       10055920 f   libjasper:jpc_t2enc.obj
 0001:00054aa0       _jpc_init_t2state          10055aa0 f   libjasper:jpc_t2enc.obj
 0001:00054d20       _jpc_enc_pi_create         10055d20 f   libjasper:jpc_t2enc.obj
 0001:00054fe0       _jpc_enc_enccblks          10055fe0 f   libjasper:jpc_t1enc.obj
 0001:000551e0       _getthebyte                100561e0 f   libjasper:jpc_t1enc.obj
 0001:00055320       _jpc_enc_enccblk           10056320 f   libjasper:jpc_t1enc.obj
 0001:00058520       _jpc_cod_gettsfb           10059520 f   libjasper:jpc_tsfb.obj
 0001:00058570       _jpc_tsfb_analyze2         10059570 f   libjasper:jpc_tsfb.obj
 0001:00058600       _jpc_tsfb_synthesize2      10059600 f   libjasper:jpc_tsfb.obj
 0001:000586a0       _jpc_tsfb_getbands         100596a0 f   libjasper:jpc_tsfb.obj
 0001:00058730       _jpc_tsfb_getbands2        10059730 f   libjasper:jpc_tsfb.obj
 0001:00058960       _jpc_rct                   10059960 f   libjasper:jpc_mct.obj
 0001:00058a00       _jpc_irct                  10059a00 f   libjasper:jpc_mct.obj
 0001:00058ab0       _jpc_ict                   10059ab0 f   libjasper:jpc_mct.obj
 0001:00058c60       _jpc_iict                  10059c60 f   libjasper:jpc_mct.obj
 0001:00058d90       _jpc_tagtree_create        10059d90 f   libjasper:jpc_tagtree.obj
 0001:00058f70       _jpc_tagtree_encode        10059f70 f   libjasper:jpc_tagtree.obj
 0001:000591b0       _jpc_tagtree_decode        1005a1b0 f   libjasper:jpc_tagtree.obj
 0001:00059430       _jpc_mqenc_create          1005a430 f   libjasper:jpc_mqenc.obj
 0001:000594b0       _jpc_mqenc_setctxs         1005a4b0 f   libjasper:jpc_mqenc.obj
 0001:00059510       _jpc_mqenc_codemps2        1005a510 f   libjasper:jpc_mqenc.obj
 0001:000596b0       _jpc_mqenc_codelps         1005a6b0 f   libjasper:jpc_mqenc.obj
 0001:00059850       _jpc_mqenc_flush           1005a850 f   libjasper:jpc_mqenc.obj
 0001:0005a5b0       _jpc_dec_decodepkts        1005b5b0 f   libjasper:jpc_t2dec.obj
 0001:0005a770       _jpc_dec_pi_create         1005b770 f   libjasper:jpc_t2dec.obj
 0001:0005aa20       _jpc_dec_lookahead         1005ba20 f   libjasper:jpc_t2dec.obj
 0001:0005aaa0       _jpc_mqdec_create          1005baa0 f   libjasper:jpc_mqdec.obj
 0001:0005ab00       _jpc_mqdec_init            1005bb00 f   libjasper:jpc_mqdec.obj
 0001:0005ab90       _jpc_mqdec_setctxs         1005bb90 f   libjasper:jpc_mqdec.obj
 0001:0005abf0       _jpc_mqdec_mpsexchrenormd  1005bbf0 f   libjasper:jpc_mqdec.obj
 0001:0005acd0       _jpc_mqdec_lpsexchrenormd  1005bcd0 f   libjasper:jpc_mqdec.obj
 0001:0005ae70       _jpc_bitstream_close       1005be70 f   libjasper:jpc_bs.obj
 0001:0005aed0       _jpc_bitstream_getbits     1005bed0 f   libjasper:jpc_bs.obj
 0001:0005aff0       _jpc_bitstream_putbits     1005bff0 f   libjasper:jpc_bs.obj
 0001:0005b0f0       _jpc_bitstream_fillbuf     1005c0f0 f   libjasper:jpc_bs.obj
 0001:0005b1c0       _jpc_bitstream_inalign     1005c1c0 f   libjasper:jpc_bs.obj
 0001:0005b280       _jpc_bitstream_outalign    1005c280 f   libjasper:jpc_bs.obj
 0001:0005b340       _jpc_dec_decodecblks       1005c340 f   libjasper:jpc_t1dec.obj
 0001:0005d5b0       _bmp_info_destroy          1005e5b0 f   libjasper:bmp_cod.obj
 0001:0005d5d0       _bmp_numcmpts              1005e5d0 f   libjasper:bmp_cod.obj
 0001:0005d640       _pnm_type                  1005e640 f   libjasper:pnm_cod.obj
 0001:0005d680       _pnm_maxvaltodepth         1005e680 f   libjasper:pnm_cod.obj
 0001:0005d690       _jp2_box_create            1005e690 f   libjasper:jp2_cod.obj
 0001:0005d700       _jp2_box_destroy           1005e700 f   libjasper:jp2_cod.obj
 0001:0005d750       _jp2_box_get               1005e750 f   libjasper:jp2_cod.obj
 0001:0005d8f0       _jp2_box_dump              1005e8f0 f   libjasper:jp2_cod.obj
 0001:0005de10       _jp2_box_put               1005ee10 f   libjasper:jp2_cod.obj
 0001:0005e500       _jp2_boxinfolookup         1005f500 f   libjasper:jp2_cod.obj
 0001:0005e960       _jpc_qmfb_split_row        1005f960 f   libjasper:jpc_qmfb.obj
 0001:0005eac0       _jpc_qmfb_split_colgrp     1005fac0 f   libjasper:jpc_qmfb.obj
 0001:0005ecf0       _jpc_qmfb_split_colres     1005fcf0 f   libjasper:jpc_qmfb.obj
 0001:0005ef60       _jpc_qmfb_join_row         1005ff60 f   libjasper:jpc_qmfb.obj
 0001:0005f080       _jpc_qmfb_join_colgrp      10060080 f   libjasper:jpc_qmfb.obj
 0001:0005f250       _jpc_qmfb_join_colres      10060250 f   libjasper:jpc_qmfb.obj
 0001:0005f470       _jpc_ft_fwdlift_row        10060470 f   libjasper:jpc_qmfb.obj
 0001:0005f550       _jpc_ft_fwdlift_colgrp     10060550 f   libjasper:jpc_qmfb.obj
 0001:0005f8f0       _jpc_ft_fwdlift_colres     100608f0 f   libjasper:jpc_qmfb.obj
 0001:0005faf0       _jpc_ft_invlift_row        10060af0 f   libjasper:jpc_qmfb.obj
 0001:0005fbf0       _jpc_ft_invlift_colgrp     10060bf0 f   libjasper:jpc_qmfb.obj
 0001:0005ff90       _jpc_ft_invlift_colres     10060f90 f   libjasper:jpc_qmfb.obj
 0001:00060180       _jpc_ft_analyze            10061180 f   libjasper:jpc_qmfb.obj
 0001:00060260       _jpc_ft_synthesize         10061260 f   libjasper:jpc_qmfb.obj
 0001:00060340       _jpc_ns_fwdlift_row        10061340 f   libjasper:jpc_qmfb.obj
 0001:00060670       _jpc_ns_fwdlift_colgrp     10061670 f   libjasper:jpc_qmfb.obj
 0001:000611b0       _jpc_ns_fwdlift_colres     100621b0 f   libjasper:jpc_qmfb.obj
 0001:000616f0       _jpc_ns_invlift_row        100626f0 f   libjasper:jpc_qmfb.obj
 0001:00061a10       _jpc_ns_invlift_colgrp     10062a10 f   libjasper:jpc_qmfb.obj
 0001:00062560       _jpc_ns_invlift_colres     10063560 f   libjasper:jpc_qmfb.obj
 0001:00062a90       _jpc_ns_analyze            10063a90 f   libjasper:jpc_qmfb.obj
 0001:00062b70       _jpc_ns_synthesize         10063b70 f   libjasper:jpc_qmfb.obj
 0001:00063160       _mng_initialize            10064160 f   libmng:libmng_hlapi.obj
 0001:00063410       _mng_reset                 10064410 f   libmng:libmng_hlapi.obj
 0001:00063c90       _mng_read                  10064c90 f   libmng:libmng_hlapi.obj
 0001:00063dc0       _mng_display               10064dc0 f   libmng:libmng_hlapi.obj
 0001:00063f40       _mnglcms_createsrgbprofile 10064f40 f   libmng:libmng_cms.obj
 0001:00064000       _mng_clear_cms             10065000 f   libmng:libmng_cms.obj
 0001:00064030       _mng_init_full_cms         10065030 f   libmng:libmng_cms.obj
 0001:00064550       _mng_correct_full_cms      10065550 f   libmng:libmng_cms.obj
 0001:00064580       _mng_init_gamma_only       10065580 f   libmng:libmng_cms.obj
 0001:000646f0       _mng_correct_gamma_only    100656f0 f   libmng:libmng_cms.obj
 0001:000647a0       _mng_process_eof           100657a0 f   libmng:libmng_read.obj
 0001:000647f0       _mng_release_pushdata      100657f0 f   libmng:libmng_read.obj
 0001:00064870       _mng_release_pushchunk     10065870 f   libmng:libmng_read.obj
 0001:000666a0       _mng_read_graphic          100676a0 f   libmng:libmng_read.obj
 0001:000668a0       _mng_drop_chunks           100678a0 f   libmng:libmng_write.obj
 0001:000668e0       _mngzlib_alloc             100678e0 f   libmng:libmng_zlib.obj
 0001:00066910       _mngzlib_free              10067910 f   libmng:libmng_zlib.obj
 0001:00066930       _mngzlib_inflateinit       10067930 f   libmng:libmng_zlib.obj
 0001:00066980       _mngzlib_inflaterows       10067980 f   libmng:libmng_zlib.obj
 0001:00066bf0       _mngzlib_inflatefree       10067bf0 f   libmng:libmng_zlib.obj
 0001:00066cf0       _mng_display_progressive_refresh 10067cf0 f   libmng:libmng_display.obj
 0001:00068040       _mng_display_image         10069040 f   libmng:libmng_display.obj
 0001:000683c0       _mng_execute_delta_image   100693c0 f   libmng:libmng_display.obj
 0001:00069170       _mng_reset_objzero         1006a170 f   libmng:libmng_display.obj
 0001:00069630       _mng_process_display       1006a630 f   libmng:libmng_display.obj
 0001:000698c0       _mng_process_display_ihdr  1006a8c0 f   libmng:libmng_display.obj
 0001:00069d20       _mng_process_display_idat  1006ad20 f   libmng:libmng_display.obj
 0001:00069da0       _mng_process_display_iend  1006ada0 f   libmng:libmng_display.obj
 0001:00069fd0       _mng_process_display_mend  1006afd0 f   libmng:libmng_display.obj
 0001:0006a220       _mng_process_display_defi  1006b220 f   libmng:libmng_display.obj
 0001:0006a3d0       _mng_process_display_basi  1006b3d0 f   libmng:libmng_display.obj
 0001:0006aa80       _mng_process_display_clon  1006ba80 f   libmng:libmng_display.obj
 0001:0006abe0       _mng_process_display_clon2 1006bbe0 f   libmng:libmng_display.obj
 0001:0006ac00       _mng_process_display_disc  1006bc00 f   libmng:libmng_display.obj
 0001:0006ad40       _mng_process_display_fram2 1006bd40 f   libmng:libmng_display.obj
 0001:0006ae30       _mng_process_display_move  1006be30 f   libmng:libmng_display.obj
 0001:0006aea0       _mng_process_display_clip  1006bea0 f   libmng:libmng_display.obj
 0001:0006af30       _mng_process_display_show  1006bf30 f   libmng:libmng_display.obj
 0001:0006b250       _mng_process_display_seek  1006c250 f   libmng:libmng_display.obj
 0001:0006b2a0       _mng_process_display_jhdr  1006c2a0 f   libmng:libmng_display.obj
 0001:0006b880       _mng_process_display_jdaa  1006c880 f   libmng:libmng_display.obj
 0001:0006b8e0       _mng_process_display_jdat  1006c8e0 f   libmng:libmng_display.obj
 0001:0006b960       _mng_process_display_dhdr  1006c960 f   libmng:libmng_display.obj
 0001:0006bff0       _mng_process_display_prom  1006cff0 f   libmng:libmng_display.obj
 0001:0006c0f0       _mng_process_display_pplt  1006d0f0 f   libmng:libmng_display.obj
 0001:0006c310       _mng_process_display_magn  1006d310 f   libmng:libmng_display.obj
 0001:0006c4b0       _mng_process_display_magn2 1006d4b0 f   libmng:libmng_display.obj
 0001:0006c540       _mng_process_display_past  1006d540 f   libmng:libmng_display.obj
 0001:0006ce50       _mng_process_display_past2 1006de50 f   libmng:libmng_display.obj
 0001:0006cea0       _mng_create_imagedataobject 1006dea0 f   libmng:libmng_object_prc.obj
 0001:0006d0c0       _mng_free_imagedataobject  1006e0c0 f   libmng:libmng_object_prc.obj
 0001:0006d140       _mng_clone_imagedataobject 1006e140 f   libmng:libmng_object_prc.obj
 0001:0006d250       _mng_create_imageobject    1006e250 f   libmng:libmng_object_prc.obj
 0001:0006d3c0       _mng_free_imageobject      1006e3c0 f   libmng:libmng_object_prc.obj
 0001:0006d420       _mng_find_imageobject      1006e420 f   libmng:libmng_object_prc.obj
 0001:0006d440       _mng_clone_imageobject     1006e440 f   libmng:libmng_object_prc.obj
 0001:0006d5e0       _mng_renum_imageobject     1006e5e0 f   libmng:libmng_object_prc.obj
 0001:0006d6b0       _mng_reset_object_details  1006e6b0 f   libmng:libmng_object_prc.obj
 0001:0006da50       _mng_promote_imageobject   1006ea50 f   libmng:libmng_object_prc.obj
 0001:0006e190       _mng_magnify_imageobject   1006f190 f   libmng:libmng_object_prc.obj
 0001:0006ea40       _mng_colorcorrect_object   1006fa40 f   libmng:libmng_object_prc.obj
 0001:0006ec90       _mng_add_ani_object        1006fc90 f   libmng:libmng_object_prc.obj
 0001:0006ed00       _mng_create_ani_image      1006fd00 f   libmng:libmng_object_prc.obj
 0001:0006ed80       _mng_free_ani_image        1006fd80 f   libmng:libmng_object_prc.obj
 0001:0006edb0       _mng_process_ani_image     1006fdb0 f   libmng:libmng_object_prc.obj
 0001:0006f0b0       _mng_create_ani_plte       100700b0 f   libmng:libmng_object_prc.obj
 0001:0006f120       _mng_free_ani_plte         10070120 f   libmng:libmng_object_prc.obj
 0001:0006f150       _mng_process_ani_plte      10070150 f   libmng:libmng_object_prc.obj
 0001:0006f190       _mng_create_ani_trns       10070190 f   libmng:libmng_object_prc.obj
 0001:0006f200       _mng_free_ani_trns         10070200 f   libmng:libmng_object_prc.obj
 0001:0006f230       _mng_process_ani_trns      10070230 f   libmng:libmng_object_prc.obj
 0001:0006f270       _mng_create_ani_gama       10070270 f   libmng:libmng_object_prc.obj
 0001:0006f2d0       _mng_free_ani_show         100702d0 f   libmng:libmng_object_prc.obj
 0001:0006f2d0       _mng_free_prom             100702d0 f   libmng:libmng_chunk_prc.obj
 0001:0006f2d0       _mng_free_endl             100702d0 f   libmng:libmng_chunk_prc.obj
 0001:0006f2d0       _mng_free_ani_bkgd         100702d0 f   libmng:libmng_object_prc.obj
 0001:0006f2d0       _mng_free_ani_endl         100702d0 f   libmng:libmng_object_prc.obj
 0001:0006f2d0       _mng_free_srgb             100702d0 f   libmng:libmng_chunk_prc.obj
 0001:0006f2d0       _mng_free_fpri             100702d0 f   libmng:libmng_chunk_prc.obj
 0001:0006f2d0       _mng_free_ani_gama         100702d0 f   libmng:libmng_object_prc.obj
 0001:0006f2f0       _mng_process_ani_gama      100702f0 f   libmng:libmng_object_prc.obj
 0001:0006f330       _mng_create_ani_chrm       10070330 f   libmng:libmng_object_prc.obj
 0001:0006f3c0       _mng_free_ani_chrm         100703c0 f   libmng:libmng_object_prc.obj
 0001:0006f3c0       _mng_free_ani_fram         100703c0 f   libmng:libmng_object_prc.obj
 0001:0006f3c0       _mng_free_ani_defi         100703c0 f   libmng:libmng_object_prc.obj
 0001:0006f3e0       _mng_process_ani_chrm      100703e0 f   libmng:libmng_object_prc.obj
 0001:0006f4a0       _mng_create_ani_srgb       100704a0 f   libmng:libmng_object_prc.obj
 0001:0006f500       _mng_free_ipng             10070500 f   libmng:libmng_chunk_prc.obj
 0001:0006f500       _mng_free_ani_srgb         10070500 f   libmng:libmng_object_prc.obj
 0001:0006f500       _mng_free_iend             10070500 f   libmng:libmng_chunk_prc.obj
 0001:0006f500       _mng_free_jsep             10070500 f   libmng:libmng_chunk_prc.obj
 0001:0006f500       _mng_free_mend             10070500 f   libmng:libmng_chunk_prc.obj
 0001:0006f500       _mng_free_ani_prom         10070500 f   libmng:libmng_object_prc.obj
 0001:0006f500       _mng_free_ijng             10070500 f   libmng:libmng_chunk_prc.obj
 0001:0006f520       _mng_process_ani_srgb      10070520 f   libmng:libmng_object_prc.obj
 0001:0006f560       _mng_create_ani_iccp       10070560 f   libmng:libmng_object_prc.obj
 0001:0006f5f0       _mng_free_ani_iccp         100705f0 f   libmng:libmng_object_prc.obj
 0001:0006f5f0       _mng_free_unknown          100705f0 f   libmng:libmng_chunk_prc.obj
 0001:0006f630       _mng_process_ani_iccp      10070630 f   libmng:libmng_object_prc.obj
 0001:0006f6e0       _mng_create_ani_bkgd       100706e0 f   libmng:libmng_object_prc.obj
 0001:0006f750       _mng_process_ani_bkgd      10070750 f   libmng:libmng_object_prc.obj
 0001:0006f790       _mng_create_ani_loop       10070790 f   libmng:libmng_object_prc.obj
 0001:0006f810       _mng_free_ani_loop         10070810 f   libmng:libmng_object_prc.obj
 0001:0006f850       _mng_process_ani_loop      10070850 f   libmng:libmng_object_prc.obj
 0001:0006f880       _mng_create_ani_endl       10070880 f   libmng:libmng_object_prc.obj
 0001:0006f8f0       _mng_process_ani_endl      100708f0 f   libmng:libmng_object_prc.obj
 0001:0006fa10       _mng_create_ani_defi       10070a10 f   libmng:libmng_object_prc.obj
 0001:0006fae0       _mng_process_ani_defi      10070ae0 f   libmng:libmng_object_prc.obj
 0001:0006fb70       _mng_create_ani_basi       10070b70 f   libmng:libmng_object_prc.obj
 0001:0006fc10       _mng_free_ani_term         10070c10 f   libmng:libmng_object_prc.obj
 0001:0006fc10       _mng_free_time             10070c10 f   libmng:libmng_chunk_prc.obj
 0001:0006fc10       _mng_free_show             10070c10 f   libmng:libmng_chunk_prc.obj
 0001:0006fc10       _mng_free_gama             10070c10 f   libmng:libmng_chunk_prc.obj
 0001:0006fc10       _mng_free_sbit             10070c10 f   libmng:libmng_chunk_prc.obj
 0001:0006fc10       _mng_free_ani_back         10070c10 f   libmng:libmng_object_prc.obj
 0001:0006fc10       _mng_free_ani_basi         10070c10 f   libmng:libmng_object_prc.obj
 0001:0006fc30       _mng_process_ani_basi      10070c30 f   libmng:libmng_object_prc.obj
 0001:0006fc60       _mng_create_ani_clon       10070c60 f   libmng:libmng_object_prc.obj
 0001:0006fd20       _mng_free_phys             10070d20 f   libmng:libmng_chunk_prc.obj
 0001:0006fd20       _mng_free_move             10070d20 f   libmng:libmng_chunk_prc.obj
 0001:0006fd20       _mng_free_ani_dhdr         10070d20 f   libmng:libmng_object_prc.obj
 0001:0006fd20       _mng_free_jhdr             10070d20 f   libmng:libmng_chunk_prc.obj
 0001:0006fd20       _mng_free_ihdr             10070d20 f   libmng:libmng_chunk_prc.obj
 0001:0006fd20       _mng_free_ani_magn         10070d20 f   libmng:libmng_object_prc.obj
 0001:0006fd20       _mng_free_ani_clon         10070d20 f   libmng:libmng_object_prc.obj
 0001:0006fd20       _mng_free_phyg             10070d20 f   libmng:libmng_chunk_prc.obj
 0001:0006fd40       _mng_process_ani_clon      10070d40 f   libmng:libmng_object_prc.obj
 0001:0006fd80       _mng_create_ani_back       10070d80 f   libmng:libmng_object_prc.obj
 0001:0006fe00       _mng_process_ani_back      10070e00 f   libmng:libmng_object_prc.obj
 0001:0006fe50       _mng_create_ani_fram       10070e50 f   libmng:libmng_object_prc.obj
 0001:0006ff30       _mng_process_ani_fram      10070f30 f   libmng:libmng_object_prc.obj
 0001:0006ffc0       _mng_create_ani_move       10070fc0 f   libmng:libmng_object_prc.obj
 0001:00070050       _mng_free_term             10071050 f   libmng:libmng_chunk_prc.obj
 0001:00070050       _mng_free_back             10071050 f   libmng:libmng_chunk_prc.obj
 0001:00070050       _mng_free_bkgd             10071050 f   libmng:libmng_chunk_prc.obj
 0001:00070050       _mng_free_ani_move         10071050 f   libmng:libmng_object_prc.obj
 0001:00070070       _mng_process_ani_move      10071070 f   libmng:libmng_object_prc.obj
 0001:000700a0       _mng_create_ani_clip       100710a0 f   libmng:libmng_object_prc.obj
 0001:00070140       _mng_free_clon             10071140 f   libmng:libmng_chunk_prc.obj
 0001:00070140       _mng_free_ani_clip         10071140 f   libmng:libmng_object_prc.obj
 0001:00070140       _mng_free_dhdr             10071140 f   libmng:libmng_chunk_prc.obj
 0001:00070140       _mng_free_magn             10071140 f   libmng:libmng_chunk_prc.obj
 0001:00070160       _mng_process_ani_clip      10071160 f   libmng:libmng_object_prc.obj
 0001:00070190       _mng_create_ani_show       10071190 f   libmng:libmng_object_prc.obj
 0001:00070200       _mng_process_ani_show      10071200 f   libmng:libmng_object_prc.obj
 0001:00070250       _mng_create_ani_term       10071250 f   libmng:libmng_object_prc.obj
 0001:000702c0       _mng_create_ani_save       100712c0 f   libmng:libmng_object_prc.obj
 0001:00070310       _mng_free_ani_ipng         10071310 f   libmng:libmng_object_prc.obj
 0001:00070310       _mng_free_ani_ijng         10071310 f   libmng:libmng_object_prc.obj
 0001:00070310       _mng_free_ani_save         10071310 f   libmng:libmng_object_prc.obj
 0001:00070330       _mng_process_ani_save      10071330 f   libmng:libmng_object_prc.obj
 0001:00070340       _mng_create_ani_seek       10071340 f   libmng:libmng_object_prc.obj
 0001:000703d0       _mng_free_ani_seek         100713d0 f   libmng:libmng_object_prc.obj
 0001:00070410       _mng_process_ani_seek      10071410 f   libmng:libmng_object_prc.obj
 0001:00070510       _mng_create_ani_dhdr       10071510 f   libmng:libmng_object_prc.obj
 0001:000705b0       _mng_process_ani_dhdr      100715b0 f   libmng:libmng_object_prc.obj
 0001:000705f0       _mng_create_ani_prom       100715f0 f   libmng:libmng_object_prc.obj
 0001:00070680       _mng_process_ani_prom      10071680 f   libmng:libmng_object_prc.obj
 0001:000706a0       _mng_create_ani_ipng       100716a0 f   libmng:libmng_object_prc.obj
 0001:000706f0       _mng_process_ani_ipng      100716f0 f   libmng:libmng_object_prc.obj
 0001:00070710       _mng_create_ani_ijng       10071710 f   libmng:libmng_object_prc.obj
 0001:00070760       _mng_process_ani_ijng      10071760 f   libmng:libmng_object_prc.obj
 0001:00070780       _mng_create_ani_pplt       10071780 f   libmng:libmng_object_prc.obj
 0001:00070840       _mng_free_ani_pplt         10071840 f   libmng:libmng_object_prc.obj
 0001:00070870       _mng_process_ani_pplt      10071870 f   libmng:libmng_object_prc.obj
 0001:000708a0       _mng_create_ani_magn       100718a0 f   libmng:libmng_object_prc.obj
 0001:00070990       _mng_process_ani_magn      10071990 f   libmng:libmng_object_prc.obj
 0001:000709e0       _mng_create_ani_past       100719e0 f   libmng:libmng_object_prc.obj
 0001:00070ac0       _mng_free_ani_past         10071ac0 f   libmng:libmng_object_prc.obj
 0001:00070b00       _mng_process_ani_past      10071b00 f   libmng:libmng_object_prc.obj
 0001:00070b30       _mng_create_ani_disc       10071b30 f   libmng:libmng_object_prc.obj
 0001:00070bd0       _mng_free_ani_disc         10071bd0 f   libmng:libmng_object_prc.obj
 0001:00070c10       _mng_process_ani_disc      10071c10 f   libmng:libmng_object_prc.obj
 0001:00070c30       _mng_create_event          10071c30 f   libmng:libmng_object_prc.obj
 0001:00070d20       _mng_free_event            10071d20 f   libmng:libmng_object_prc.obj
 0001:00070d60       _mng_process_event         10071d60 f   libmng:libmng_object_prc.obj
 0001:00070e50       _mng_display_progressive_check 10071e50 f   libmng:libmng_pixels.obj
 0001:00070f30       _mng_display_rgb8          10071f30 f   libmng:libmng_pixels.obj
 0001:00071320       _mng_display_rgba8         10072320 f   libmng:libmng_pixels.obj
 0001:00071910       _mng_display_rgba8_pm      10072910 f   libmng:libmng_pixels.obj
 0001:00071d20       _mng_display_argb8         10072d20 f   libmng:libmng_pixels.obj
 0001:00072280       _mng_display_argb8_pm      10073280 f   libmng:libmng_pixels.obj
 0001:00072690       _mng_display_rgb8_a8       10073690 f   libmng:libmng_pixels.obj
 0001:00072cd0       _mng_display_bgr8          10073cd0 f   libmng:libmng_pixels.obj
 0001:000730c0       _mng_display_bgrx8         100740c0 f   libmng:libmng_pixels.obj
 0001:000734c0       _mng_display_bgra8         100744c0 f   libmng:libmng_pixels.obj
 0001:00073aa0       _mng_display_bgra8_pm      10074aa0 f   libmng:libmng_pixels.obj
 0001:00073eb0       _mng_display_abgr8         10074eb0 f   libmng:libmng_pixels.obj
 0001:000744b0       _mng_display_abgr8_pm      100754b0 f   libmng:libmng_pixels.obj
 0001:000748c0       _mng_display_bgr565        100758c0 f   libmng:libmng_pixels.obj
 0001:00074d60       _mng_display_rgb565        10075d60 f   libmng:libmng_pixels.obj
 0001:000751f0       _mng_display_bgra565       100761f0 f   libmng:libmng_pixels.obj
 0001:000758f0       _mng_display_rgba565       100768f0 f   libmng:libmng_pixels.obj
 0001:00075fe0       _mng_display_bgr565_a8     10076fe0 f   libmng:libmng_pixels.obj
 0001:00076730       _mng_display_rgb555        10077730 f   libmng:libmng_pixels.obj
 0001:00076bd0       _mng_display_bgr555        10077bd0 f   libmng:libmng_pixels.obj
 0001:00077070       _mng_restore_bkgd_backimage 10078070 f   libmng:libmng_pixels.obj
 0001:000771b0       _mng_restore_bkgd_backcolor 100781b0 f   libmng:libmng_pixels.obj
 0001:00077200       _mng_restore_bkgd_bkgd     10078200 f   libmng:libmng_pixels.obj
 0001:00077320       _mng_restore_bkgd_bgcolor  10078320 f   libmng:libmng_pixels.obj
 0001:00077360       _mng_restore_bkgd_rgb8     10078360 f   libmng:libmng_pixels.obj
 0001:000773e0       _mng_restore_bkgd_bgr8     100783e0 f   libmng:libmng_pixels.obj
 0001:00077470       _mng_restore_bkgd_bgrx8    10078470 f   libmng:libmng_pixels.obj
 0001:00077500       _mng_restore_bkgd_bgr565   10078500 f   libmng:libmng_pixels.obj
 0001:000775a0       _mng_restore_bkgd_rgb565   100785a0 f   libmng:libmng_pixels.obj
 0001:00077640       _mng_retrieve_g8           10078640 f   libmng:libmng_pixels.obj
 0001:00077750       _mng_retrieve_g16          10078750 f   libmng:libmng_pixels.obj
 0001:00077890       _mng_retrieve_rgb8         10078890 f   libmng:libmng_pixels.obj
 0001:00077980       _mng_retrieve_rgb16        10078980 f   libmng:libmng_pixels.obj
 0001:00077b80       _mng_retrieve_idx8         10078b80 f   libmng:libmng_pixels.obj
 0001:00077d70       _mng_retrieve_ga8          10078d70 f   libmng:libmng_pixels.obj
 0001:00077dd0       _mng_retrieve_ga16         10078dd0 f   libmng:libmng_pixels.obj
 0001:00077e90       _mng_retrieve_rgba16       10078e90 f   libmng:libmng_pixels.obj
 0001:00077e90       _mng_retrieve_rgba8        10078e90 f   libmng:libmng_pixels.obj
 0001:00077ed0       _mng_store_g1              10078ed0 f   libmng:libmng_pixels.obj
 0001:00077ed0       _mng_store_idx1            10078ed0 f   libmng:libmng_pixels.obj
 0001:00077f50       _mng_store_g2              10078f50 f   libmng:libmng_pixels.obj
 0001:00077f50       _mng_store_idx2            10078f50 f   libmng:libmng_pixels.obj
 0001:00077fe0       _mng_store_g4              10078fe0 f   libmng:libmng_pixels.obj
 0001:00077fe0       _mng_store_idx4            10078fe0 f   libmng:libmng_pixels.obj
 0001:00078070       _mng_store_g8              10079070 f   libmng:libmng_pixels.obj
 0001:00078070       _mng_store_idx8            10079070 f   libmng:libmng_pixels.obj
 0001:000780e0       _mng_store_g16             100790e0 f   libmng:libmng_pixels.obj
 0001:00078170       _mng_store_rgb8            10079170 f   libmng:libmng_pixels.obj
 0001:000781f0       _mng_store_rgb16           100791f0 f   libmng:libmng_pixels.obj
 0001:00078260       _mng_store_ga8             10079260 f   libmng:libmng_pixels.obj
 0001:000782d0       _mng_store_ga16            100792d0 f   libmng:libmng_pixels.obj
 0001:00078340       _mng_store_rgba8           10079340 f   libmng:libmng_pixels.obj
 0001:000783c0       _mng_store_rgba16          100793c0 f   libmng:libmng_pixels.obj
 0001:00078430       _mng_store_jpeg_g8         10079430 f   libmng:libmng_pixels.obj
 0001:00078470       _mng_store_jpeg_rgb8       10079470 f   libmng:libmng_pixels.obj
 0001:000784c0       _mng_store_jpeg_ga8        100794c0 f   libmng:libmng_pixels.obj
 0001:000785a0       _mng_store_jpeg_rgba8      100795a0 f   libmng:libmng_pixels.obj
 0001:00078690       _mng_store_jpeg_g8_alpha   10079690 f   libmng:libmng_pixels.obj
 0001:00078700       _mng_store_jpeg_rgb8_alpha 10079700 f   libmng:libmng_pixels.obj
 0001:00078770       _mng_store_jpeg_g8_a1      10079770 f   libmng:libmng_pixels.obj
 0001:00078810       _mng_store_jpeg_g8_a2      10079810 f   libmng:libmng_pixels.obj
 0001:000788f0       _mng_store_jpeg_g8_a4      100798f0 f   libmng:libmng_pixels.obj
 0001:000789c0       _mng_store_jpeg_g8_a8      100799c0 f   libmng:libmng_pixels.obj
 0001:00078a50       _mng_store_jpeg_g8_a16     10079a50 f   libmng:libmng_pixels.obj
 0001:00078ae0       _mng_store_jpeg_rgb8_a1    10079ae0 f   libmng:libmng_pixels.obj
 0001:00078b80       _mng_store_jpeg_rgb8_a2    10079b80 f   libmng:libmng_pixels.obj
 0001:00078c60       _mng_store_jpeg_rgb8_a4    10079c60 f   libmng:libmng_pixels.obj
 0001:00078d30       _mng_store_jpeg_rgb8_a8    10079d30 f   libmng:libmng_pixels.obj
 0001:00078dc0       _mng_store_jpeg_rgb8_a16   10079dc0 f   libmng:libmng_pixels.obj
 0001:00078e50       _mng_delta_g1              10079e50 f   libmng:libmng_pixels.obj
 0001:00078f40       _mng_delta_g2              10079f40 f   libmng:libmng_pixels.obj
 0001:000790a0       _mng_delta_g4              1007a0a0 f   libmng:libmng_pixels.obj
 0001:000791c0       _mng_delta_g8              1007a1c0 f   libmng:libmng_pixels.obj
 0001:000791c0       _mng_delta_idx8            1007a1c0 f   libmng:libmng_pixels.obj
 0001:000792b0       _mng_delta_g16             1007a2b0 f   libmng:libmng_pixels.obj
 0001:000793a0       _mng_delta_rgb8            1007a3a0 f   libmng:libmng_pixels.obj
 0001:00079480       _mng_delta_rgb16           1007a480 f   libmng:libmng_pixels.obj
 0001:00079610       _mng_delta_idx1            1007a610 f   libmng:libmng_pixels.obj
 0001:000796f0       _mng_delta_idx2            1007a6f0 f   libmng:libmng_pixels.obj
 0001:00079810       _mng_delta_idx4            1007a810 f   libmng:libmng_pixels.obj
 0001:00079930       _mng_delta_ga8             1007a930 f   libmng:libmng_pixels.obj
 0001:00079a50       _mng_delta_ga16            1007aa50 f   libmng:libmng_pixels.obj
 0001:00079b80       _mng_delta_rgba8           1007ab80 f   libmng:libmng_pixels.obj
 0001:00079c60       _mng_delta_rgba16          1007ac60 f   libmng:libmng_pixels.obj
 0001:00079e00       _mng_delta_g1_g1           1007ae00 f   libmng:libmng_pixels.obj
 0001:00079e90       _mng_delta_g2_g2           1007ae90 f   libmng:libmng_pixels.obj
 0001:00079f20       _mng_delta_g4_g4           1007af20 f   libmng:libmng_pixels.obj
 0001:00079fb0       _mng_delta_g8_g8           1007afb0 f   libmng:libmng_pixels.obj
 0001:0007a040       _mng_delta_g16_g16         1007b040 f   libmng:libmng_pixels.obj
 0001:0007a100       _mng_delta_rgb8_rgb8       1007b100 f   libmng:libmng_pixels.obj
 0001:0007a1a0       _mng_delta_rgb16_rgb16     1007b1a0 f   libmng:libmng_pixels.obj
 0001:0007a300       _mng_delta_ga8_ga8         1007b300 f   libmng:libmng_pixels.obj
 0001:0007a3a0       _mng_delta_ga8_g8          1007b3a0 f   libmng:libmng_pixels.obj
 0001:0007a440       _mng_delta_ga8_a8          1007b440 f   libmng:libmng_pixels.obj
 0001:0007a4e0       _mng_delta_ga16_ga16       1007b4e0 f   libmng:libmng_pixels.obj
 0001:0007a5e0       _mng_delta_ga16_g16        1007b5e0 f   libmng:libmng_pixels.obj
 0001:0007a6e0       _mng_delta_ga16_a16        1007b6e0 f   libmng:libmng_pixels.obj
 0001:0007a7e0       _mng_delta_rgba8_rgba8     1007b7e0 f   libmng:libmng_pixels.obj
 0001:0007a880       _mng_delta_rgba8_rgb8      1007b880 f   libmng:libmng_pixels.obj
 0001:0007a940       _mng_delta_rgba8_a8        1007b940 f   libmng:libmng_pixels.obj
 0001:0007a9e0       _mng_delta_rgba16_rgba16   1007b9e0 f   libmng:libmng_pixels.obj
 0001:0007ab70       _mng_delta_rgba16_rgb16    1007bb70 f   libmng:libmng_pixels.obj
 0001:0007ad70       _mng_delta_rgba16_a16      1007bd70 f   libmng:libmng_pixels.obj
 0001:0007ae70       _mng_scale_g1_g2           1007be70 f   libmng:libmng_pixels.obj
 0001:0007aea0       _mng_scale_g1_g4           1007bea0 f   libmng:libmng_pixels.obj
 0001:0007aed0       _mng_scale_g1_g8           1007bed0 f   libmng:libmng_pixels.obj
 0001:0007af00       _mng_scale_g1_g16          1007bf00 f   libmng:libmng_pixels.obj
 0001:0007af50       _mng_scale_g2_g4           1007bf50 f   libmng:libmng_pixels.obj
 0001:0007af80       _mng_scale_g2_g8           1007bf80 f   libmng:libmng_pixels.obj
 0001:0007afb0       _mng_scale_g2_g16          1007bfb0 f   libmng:libmng_pixels.obj
 0001:0007b000       _mng_scale_g4_g8           1007c000 f   libmng:libmng_pixels.obj
 0001:0007b030       _mng_scale_g4_g16          1007c030 f   libmng:libmng_pixels.obj
 0001:0007b080       _mng_scale_g8_g16          1007c080 f   libmng:libmng_pixels.obj
 0001:0007b0d0       _mng_scale_ga8_ga16        1007c0d0 f   libmng:libmng_pixels.obj
 0001:0007b130       _mng_scale_rgb8_rgb16      1007c130 f   libmng:libmng_pixels.obj
 0001:0007b1a0       _mng_scale_rgba8_rgba16    1007c1a0 f   libmng:libmng_pixels.obj
 0001:0007b220       _mng_scale_g2_g1           1007c220 f   libmng:libmng_pixels.obj
 0001:0007b250       _mng_scale_g4_g1           1007c250 f   libmng:libmng_pixels.obj
 0001:0007b280       _mng_scale_g8_g1           1007c280 f   libmng:libmng_pixels.obj
 0001:0007b2b0       _mng_scale_g16_g1          1007c2b0 f   libmng:libmng_pixels.obj
 0001:0007b300       _mng_scale_g4_g2           1007c300 f   libmng:libmng_pixels.obj
 0001:0007b330       _mng_scale_g8_g2           1007c330 f   libmng:libmng_pixels.obj
 0001:0007b360       _mng_scale_g16_g2          1007c360 f   libmng:libmng_pixels.obj
 0001:0007b3b0       _mng_scale_g8_g4           1007c3b0 f   libmng:libmng_pixels.obj
 0001:0007b3e0       _mng_scale_g16_g4          1007c3e0 f   libmng:libmng_pixels.obj
 0001:0007b430       _mng_scale_g16_g8          1007c430 f   libmng:libmng_pixels.obj
 0001:0007b480       _mng_scale_ga16_ga8        1007c480 f   libmng:libmng_pixels.obj
 0001:0007b4f0       _mng_scale_rgb16_rgb8      1007c4f0 f   libmng:libmng_pixels.obj
 0001:0007b580       _mng_scale_rgba16_rgba8    1007c580 f   libmng:libmng_pixels.obj
 0001:0007b630       _mng_promote_replicate_1_2 1007c630 f   libmng:libmng_pixels.obj
 0001:0007b640       _mng_promote_replicate_1_4 1007c640 f   libmng:libmng_pixels.obj
 0001:0007b660       _mng_promote_replicate_1_8 1007c660 f   libmng:libmng_pixels.obj
 0001:0007b680       _mng_promote_replicate_1_16 1007c680 f   libmng:libmng_pixels.obj
 0001:0007b6a0       _mng_promote_replicate_2_4 1007c6a0 f   libmng:libmng_pixels.obj
 0001:0007b6b0       _mng_promote_replicate_2_8 1007c6b0 f   libmng:libmng_pixels.obj
 0001:0007b6d0       _mng_promote_replicate_2_16 1007c6d0 f   libmng:libmng_pixels.obj
 0001:0007b6f0       _mng_promote_replicate_4_8 1007c6f0 f   libmng:libmng_pixels.obj
 0001:0007b710       _mng_promote_replicate_4_16 1007c710 f   libmng:libmng_pixels.obj
 0001:0007b730       _mng_promote_replicate_8_16 1007c730 f   libmng:libmng_pixels.obj
 0001:0007b750       _mng_promote_zerofill_1_2  1007c750 f   libmng:libmng_pixels.obj
 0001:0007b760       _mng_promote_zerofill_1_4  1007c760 f   libmng:libmng_pixels.obj
 0001:0007b770       _mng_promote_zerofill_1_8  1007c770 f   libmng:libmng_pixels.obj
 0001:0007b780       _mng_promote_zerofill_1_16 1007c780 f   libmng:libmng_pixels.obj
 0001:0007b790       _mng_promote_zerofill_2_4  1007c790 f   libmng:libmng_pixels.obj
 0001:0007b7a0       _mng_promote_zerofill_2_8  1007c7a0 f   libmng:libmng_pixels.obj
 0001:0007b7b0       _mng_promote_zerofill_2_16 1007c7b0 f   libmng:libmng_pixels.obj
 0001:0007b7c0       _mng_promote_zerofill_4_8  1007c7c0 f   libmng:libmng_pixels.obj
 0001:0007b7d0       _mng_promote_zerofill_4_16 1007c7d0 f   libmng:libmng_pixels.obj
 0001:0007b7e0       _mng_promote_zerofill_8_16 1007c7e0 f   libmng:libmng_pixels.obj
 0001:0007b7f0       _mng_promote_g8_g8         1007c7f0 f   libmng:libmng_pixels.obj
 0001:0007b840       _mng_promote_g8_g16        1007c840 f   libmng:libmng_pixels.obj
 0001:0007b8b0       _mng_promote_g8_ga8        1007c8b0 f   libmng:libmng_pixels.obj
 0001:0007b940       _mng_promote_g8_ga16       1007c940 f   libmng:libmng_pixels.obj
 0001:0007b9e0       _mng_promote_g16_ga16      1007c9e0 f   libmng:libmng_pixels.obj
 0001:0007ba40       _mng_promote_g8_rgb8       1007ca40 f   libmng:libmng_pixels.obj
 0001:0007baa0       _mng_promote_g8_rgb16      1007caa0 f   libmng:libmng_pixels.obj
 0001:0007bb20       _mng_promote_g16_rgb16     1007cb20 f   libmng:libmng_pixels.obj
 0001:0007bb70       _mng_promote_g8_rgba8      1007cb70 f   libmng:libmng_pixels.obj
 0001:0007bc00       _mng_promote_g8_rgba16     1007cc00 f   libmng:libmng_pixels.obj
 0001:0007bca0       _mng_promote_g16_rgba16    1007cca0 f   libmng:libmng_pixels.obj
 0001:0007bd10       _mng_promote_ga8_ga16      1007cd10 f   libmng:libmng_pixels.obj
 0001:0007bdb0       _mng_promote_ga8_rgba8     1007cdb0 f   libmng:libmng_pixels.obj
 0001:0007be00       _mng_promote_ga8_rgba16    1007ce00 f   libmng:libmng_pixels.obj
 0001:0007beb0       _mng_promote_ga16_rgba16   1007ceb0 f   libmng:libmng_pixels.obj
 0001:0007bf00       _mng_promote_rgb8_rgb16    1007cf00 f   libmng:libmng_pixels.obj
 0001:0007bfd0       _mng_promote_rgb8_rgba8    1007cfd0 f   libmng:libmng_pixels.obj
 0001:0007c060       _mng_promote_rgb8_rgba16   1007d060 f   libmng:libmng_pixels.obj
 0001:0007c180       _mng_promote_rgb16_rgba16  1007d180 f   libmng:libmng_pixels.obj
 0001:0007c220       _mng_promote_idx8_rgb8     1007d220 f   libmng:libmng_pixels.obj
 0001:0007c2a0       _mng_promote_idx8_rgb16    1007d2a0 f   libmng:libmng_pixels.obj
 0001:0007c390       _mng_promote_idx8_rgba8    1007d390 f   libmng:libmng_pixels.obj
 0001:0007c430       _mng_promote_idx8_rgba16   1007d430 f   libmng:libmng_pixels.obj
 0001:0007c570       _mng_promote_rgba8_rgba16  1007d570 f   libmng:libmng_pixels.obj
 0001:0007c670       _mng_process_g1            1007d670 f   libmng:libmng_pixels.obj
 0001:0007c780       _mng_process_g2            1007d780 f   libmng:libmng_pixels.obj
 0001:0007c900       _mng_process_g4            1007d900 f   libmng:libmng_pixels.obj
 0001:0007ca30       _mng_process_g8            1007da30 f   libmng:libmng_pixels.obj
 0001:0007caf0       _mng_process_g16           1007daf0 f   libmng:libmng_pixels.obj
 0001:0007cc50       _mng_process_rgb8          1007dc50 f   libmng:libmng_pixels.obj
 0001:0007cd50       _mng_process_rgb16         1007dd50 f   libmng:libmng_pixels.obj
 0001:0007cf60       _mng_process_idx1          1007df60 f   libmng:libmng_pixels.obj
 0001:0007d1a0       _mng_process_idx2          1007e1a0 f   libmng:libmng_pixels.obj
 0001:0007d3f0       _mng_process_idx4          1007e3f0 f   libmng:libmng_pixels.obj
 0001:0007d640       _mng_process_idx8          1007e640 f   libmng:libmng_pixels.obj
 0001:0007d840       _mng_process_ga8           1007e840 f   libmng:libmng_pixels.obj
 0001:0007d8a0       _mng_process_ga16          1007e8a0 f   libmng:libmng_pixels.obj
 0001:0007d950       _mng_process_rgba16        1007e950 f   libmng:libmng_pixels.obj
 0001:0007d950       _mng_process_rgba8         1007e950 f   libmng:libmng_pixels.obj
 0001:0007d990       _mng_init_g1_ni            1007e990 f   libmng:libmng_pixels.obj
 0001:0007da70       _mng_init_g1_i             1007ea70 f   libmng:libmng_pixels.obj
 0001:0007db60       _mng_init_g2_ni            1007eb60 f   libmng:libmng_pixels.obj
 0001:0007dc40       _mng_init_g2_i             1007ec40 f   libmng:libmng_pixels.obj
 0001:0007dd30       _mng_init_g4_ni            1007ed30 f   libmng:libmng_pixels.obj
 0001:0007de10       _mng_init_g4_i             1007ee10 f   libmng:libmng_pixels.obj
 0001:0007df00       _mng_init_g8_ni            1007ef00 f   libmng:libmng_pixels.obj
 0001:0007dfe0       _mng_init_g8_i             1007efe0 f   libmng:libmng_pixels.obj
 0001:0007e0c0       _mng_init_g16_ni           1007f0c0 f   libmng:libmng_pixels.obj
 0001:0007e1a0       _mng_init_g16_i            1007f1a0 f   libmng:libmng_pixels.obj
 0001:0007e280       _mng_init_rgb8_ni          1007f280 f   libmng:libmng_pixels.obj
 0001:0007e360       _mng_init_rgb8_i           1007f360 f   libmng:libmng_pixels.obj
 0001:0007e440       _mng_init_rgb16_ni         1007f440 f   libmng:libmng_pixels.obj
 0001:0007e520       _mng_init_rgb16_i          1007f520 f   libmng:libmng_pixels.obj
 0001:0007e610       _mng_init_idx1_ni          1007f610 f   libmng:libmng_pixels.obj
 0001:0007e6f0       _mng_init_idx1_i           1007f6f0 f   libmng:libmng_pixels.obj
 0001:0007e7e0       _mng_init_idx2_ni          1007f7e0 f   libmng:libmng_pixels.obj
 0001:0007e8c0       _mng_init_idx2_i           1007f8c0 f   libmng:libmng_pixels.obj
 0001:0007e9b0       _mng_init_idx4_ni          1007f9b0 f   libmng:libmng_pixels.obj
 0001:0007ea90       _mng_init_idx4_i           1007fa90 f   libmng:libmng_pixels.obj
 0001:0007eb80       _mng_init_idx8_ni          1007fb80 f   libmng:libmng_pixels.obj
 0001:0007ec60       _mng_init_idx8_i           1007fc60 f   libmng:libmng_pixels.obj
 0001:0007ed40       _mng_init_ga8_ni           1007fd40 f   libmng:libmng_pixels.obj
 0001:0007ee20       _mng_init_ga8_i            1007fe20 f   libmng:libmng_pixels.obj
 0001:0007ef00       _mng_init_ga16_ni          1007ff00 f   libmng:libmng_pixels.obj
 0001:0007efe0       _mng_init_ga16_i           1007ffe0 f   libmng:libmng_pixels.obj
 0001:0007f0c0       _mng_init_rgba8_ni         100800c0 f   libmng:libmng_pixels.obj
 0001:0007f1a0       _mng_init_rgba8_i          100801a0 f   libmng:libmng_pixels.obj
 0001:0007f280       _mng_init_rgba16_ni        10080280 f   libmng:libmng_pixels.obj
 0001:0007f360       _mng_init_rgba16_i         10080360 f   libmng:libmng_pixels.obj
 0001:0007f440       _mng_init_jpeg_a1_ni       10080440 f   libmng:libmng_pixels.obj
 0001:0007f510       _mng_init_jpeg_a2_ni       10080510 f   libmng:libmng_pixels.obj
 0001:0007f5e0       _mng_init_jpeg_a4_ni       100805e0 f   libmng:libmng_pixels.obj
 0001:0007f6b0       _mng_init_jpeg_a8_ni       100806b0 f   libmng:libmng_pixels.obj
 0001:0007f780       _mng_init_jpeg_a16_ni      10080780 f   libmng:libmng_pixels.obj
 0001:0007f850       _mng_init_rowproc          10080850 f   libmng:libmng_pixels.obj
 0001:0007f910       _mng_next_row              10080910 f   libmng:libmng_pixels.obj
 0001:0007fa50       _mng_cleanup_rowproc       10080a50 f   libmng:libmng_pixels.obj
 0001:0007fb00       _mng_display_jpeg_rows     10080b00 f   libmng:libmng_pixels.obj
 0001:0007fbb0       _mng_next_jpeg_row         10080bb0 f   libmng:libmng_pixels.obj
 0001:0007fc40       _mng_magnify_g8_x1         10080c40 f   libmng:libmng_pixels.obj
 0001:0007fca0       _mng_magnify_g8_x2         10080ca0 f   libmng:libmng_pixels.obj
 0001:0007fd90       _mng_magnify_g8_x3         10080d90 f   libmng:libmng_pixels.obj
 0001:0007fe70       _mng_magnify_rgb8_x1       10080e70 f   libmng:libmng_pixels.obj
 0001:0007fef0       _mng_magnify_rgb8_x2       10080ef0 f   libmng:libmng_pixels.obj
 0001:00080050       _mng_magnify_rgb8_x3       10081050 f   libmng:libmng_pixels.obj
 0001:00080150       _mng_magnify_ga8_x1        10081150 f   libmng:libmng_pixels.obj
 0001:000801c0       _mng_magnify_ga8_x2        100811c0 f   libmng:libmng_pixels.obj
 0001:000802f0       _mng_magnify_ga8_x3        100812f0 f   libmng:libmng_pixels.obj
 0001:000803e0       _mng_magnify_ga8_x4        100813e0 f   libmng:libmng_pixels.obj
 0001:00080530       _mng_magnify_ga8_x5        10081530 f   libmng:libmng_pixels.obj
 0001:00080690       _mng_magnify_rgba8_x1      10081690 f   libmng:libmng_pixels.obj
 0001:00080720       _mng_magnify_rgba8_x2      10081720 f   libmng:libmng_pixels.obj
 0001:000808c0       _mng_magnify_rgba8_x3      100818c0 f   libmng:libmng_pixels.obj
 0001:000809e0       _mng_magnify_rgba8_x4      100819e0 f   libmng:libmng_pixels.obj
 0001:00080c00       _mng_magnify_rgba8_x5      10081c00 f   libmng:libmng_pixels.obj
 0001:00080d80       _mng_magnify_g8_y1         10081d80 f   libmng:libmng_pixels.obj
 0001:00080da0       _mng_magnify_g8_y2         10081da0 f   libmng:libmng_pixels.obj
 0001:00080e20       _mng_magnify_g8_y3         10081e20 f   libmng:libmng_pixels.obj
 0001:00080e60       _mng_magnify_rgb8_y1       10081e60 f   libmng:libmng_pixels.obj
 0001:00080e80       _mng_magnify_rgb8_y2       10081e80 f   libmng:libmng_pixels.obj
 0001:00080f60       _mng_magnify_rgb8_y3       10081f60 f   libmng:libmng_pixels.obj
 0001:00080fb0       _mng_magnify_g16_y1        10081fb0 f   libmng:libmng_pixels.obj
 0001:00080fb0       _mng_magnify_ga8_y1        10081fb0 f   libmng:libmng_pixels.obj
 0001:00080fd0       _mng_magnify_ga8_y2        10081fd0 f   libmng:libmng_pixels.obj
 0001:00081080       _mng_magnify_ga8_y3        10082080 f   libmng:libmng_pixels.obj
 0001:00081080       _mng_magnify_g16_y3        10082080 f   libmng:libmng_pixels.obj
 0001:000810d0       _mng_magnify_ga8_y4        100820d0 f   libmng:libmng_pixels.obj
 0001:000811b0       _mng_magnify_ga8_y5        100821b0 f   libmng:libmng_pixels.obj
 0001:00081290       _mng_magnify_ga16_y1       10082290 f   libmng:libmng_pixels.obj
 0001:00081290       _mng_magnify_rgba8_y1      10082290 f   libmng:libmng_pixels.obj
 0001:000812b0       _mng_magnify_rgba8_y2      100822b0 f   libmng:libmng_pixels.obj
 0001:000813b0       _mng_magnify_ga16_y3       100823b0 f   libmng:libmng_pixels.obj
 0001:000813b0       _mng_magnify_rgba8_y3      100823b0 f   libmng:libmng_pixels.obj
 0001:00081400       _mng_magnify_rgba8_y4      10082400 f   libmng:libmng_pixels.obj
 0001:000815a0       _mng_magnify_rgba8_y5      100825a0 f   libmng:libmng_pixels.obj
 0001:000816a0       _mng_magnify_g16_x1        100826a0 f   libmng:libmng_pixels.obj
 0001:00081700       _mng_magnify_g16_x2        10082700 f   libmng:libmng_pixels.obj
 0001:00081850       _mng_magnify_g16_x3        10082850 f   libmng:libmng_pixels.obj
 0001:00081940       _mng_magnify_rgb16_x1      10082940 f   libmng:libmng_pixels.obj
 0001:000819d0       _mng_magnify_rgb16_x2      100829d0 f   libmng:libmng_pixels.obj
 0001:00081c00       _mng_magnify_rgb16_x3      10082c00 f   libmng:libmng_pixels.obj
 0001:00081d10       _mng_magnify_ga16_x1       10082d10 f   libmng:libmng_pixels.obj
 0001:00081d80       _mng_magnify_ga16_x2       10082d80 f   libmng:libmng_pixels.obj
 0001:00081f40       _mng_magnify_ga16_x3       10082f40 f   libmng:libmng_pixels.obj
 0001:00082040       _mng_magnify_ga16_x4       10083040 f   libmng:libmng_pixels.obj
 0001:00082220       _mng_magnify_ga16_x5       10083220 f   libmng:libmng_pixels.obj
 0001:00082410       _mng_magnify_rgba16_x1     10083410 f   libmng:libmng_pixels.obj
 0001:000824b0       _mng_magnify_rgba16_x2     100834b0 f   libmng:libmng_pixels.obj
 0001:00082740       _mng_magnify_rgba16_x3     10083740 f   libmng:libmng_pixels.obj
 0001:00082880       _mng_magnify_rgba16_x4     10083880 f   libmng:libmng_pixels.obj
 0001:00082c50       _mng_magnify_rgba16_x5     10083c50 f   libmng:libmng_pixels.obj
 0001:00082e90       _mng_magnify_g16_y2        10083e90 f   libmng:libmng_pixels.obj
 0001:00082f60       _mng_magnify_rgb16_y1      10083f60 f   libmng:libmng_pixels.obj
 0001:00082f80       _mng_magnify_rgb16_y2      10083f80 f   libmng:libmng_pixels.obj
 0001:00083130       _mng_magnify_rgb16_y3      10084130 f   libmng:libmng_pixels.obj
 0001:00083180       _mng_magnify_ga16_y2       10084180 f   libmng:libmng_pixels.obj
 0001:000832d0       _mng_magnify_ga16_y4       100842d0 f   libmng:libmng_pixels.obj
 0001:00083450       _mng_magnify_ga16_y5       10084450 f   libmng:libmng_pixels.obj
 0001:000835e0       _mng_magnify_rgba16_y1     100845e0 f   libmng:libmng_pixels.obj
 0001:00083600       _mng_magnify_rgba16_y2     10084600 f   libmng:libmng_pixels.obj
 0001:00083810       _mng_magnify_rgba16_y3     10084810 f   libmng:libmng_pixels.obj
 0001:00083860       _mng_magnify_rgba16_y4     10084860 f   libmng:libmng_pixels.obj
 0001:00083b90       _mng_magnify_rgba16_y5     10084b90 f   libmng:libmng_pixels.obj
 0001:00083d40       _mng_composeover_rgba8     10084d40 f   libmng:libmng_pixels.obj
 0001:00083f30       _mng_composeover_rgba16    10084f30 f   libmng:libmng_pixels.obj
 0001:00084250       _mng_composeunder_rgba8    10085250 f   libmng:libmng_pixels.obj
 0001:00084420       _mng_composeunder_rgba16   10085420 f   libmng:libmng_pixels.obj
 0001:00084720       _mng_flip_rgba8            10085720 f   libmng:libmng_pixels.obj
 0001:00084770       _mng_flip_rgba16           10085770 f   libmng:libmng_pixels.obj
 0001:000847d0       _mng_tile_rgba8            100857d0 f   libmng:libmng_pixels.obj
 0001:00084840       _mng_tile_rgba16           10085840 f   libmng:libmng_pixels.obj
 0001:000848c0       _mng_store_error           100858c0 f   libmng:libmng_error.obj
 0001:00084990       _mng_process_error         10085990 f   libmng:libmng_error.obj
 0001:00084a00       _mng_skip_input_data       10085a00 f   libmng:libmng_jpeg.obj
 0001:00084a50       _mng_skip_input_data2      10085a50 f   libmng:libmng_jpeg.obj
 0001:00084aa0       _mng_error_exit            10085aa0 f   libmng:libmng_jpeg.obj
 0001:00084ad0       _mngjpeg_initialize        10085ad0 f   libmng:libmng_jpeg.obj
 0001:00084d40       _mngjpeg_cleanup           10085d40 f   libmng:libmng_jpeg.obj
 0001:00084ff0       _mngjpeg_decompressinit    10085ff0 f   libmng:libmng_jpeg.obj
 0001:00085100       _mngjpeg_decompressdata    10086100 f   libmng:libmng_jpeg.obj
 0001:00085730       _mngjpeg_decompressfree    10086730 f   libmng:libmng_jpeg.obj
 0001:000857d0       _mngjpeg_decompressinit2   100867d0 f   libmng:libmng_jpeg.obj
 0001:000858e0       _mngjpeg_decompressdata2   100868e0 f   libmng:libmng_jpeg.obj
 0001:00085ea0       _mngjpeg_decompressfree2   10086ea0 f   libmng:libmng_jpeg.obj
 0001:00086040       _mng_get_int32             10087040 f   libmng:libmng_chunk_io.obj
 0001:00086040       _mng_get_uint32            10087040 f   libmng:libmng_chunk_io.obj
 0001:00086060       _mng_inflate_buffer        10087060 f   libmng:libmng_chunk_io.obj
 0001:000867a0       _mng_read_ihdr             100877a0 f   libmng:libmng_chunk_io.obj
 0001:00086b40       _mng_read_plte             10087b40 f   libmng:libmng_chunk_io.obj
 0001:00086f30       _mng_read_idat             10087f30 f   libmng:libmng_chunk_io.obj
 0001:000870c0       _mng_read_iend             100880c0 f   libmng:libmng_chunk_io.obj
 0001:000871b0       _mng_read_trns             100881b0 f   libmng:libmng_chunk_io.obj
 0001:00087780       _mng_read_gama             10088780 f   libmng:libmng_chunk_io.obj
 0001:000879d0       _mng_read_chrm             100889d0 f   libmng:libmng_chunk_io.obj
 0001:00087d80       _mng_read_srgb             10088d80 f   libmng:libmng_chunk_io.obj
 0001:00087fa0       _mng_read_iccp             10088fa0 f   libmng:libmng_chunk_io.obj
 0001:00088510       _mng_read_text             10089510 f   libmng:libmng_chunk_io.obj
 0001:00088780       _mng_read_ztxt             10089780 f   libmng:libmng_chunk_io.obj
 0001:00088b30       _mng_read_itxt             10089b30 f   libmng:libmng_chunk_io.obj
 0001:00089230       _mng_read_bkgd             1008a230 f   libmng:libmng_chunk_io.obj
 0001:00089640       _mng_read_phys             1008a640 f   libmng:libmng_chunk_io.obj
 0001:000897a0       _mng_read_sbit             1008a7a0 f   libmng:libmng_chunk_io.obj
 0001:000899d0       _mng_read_splt             1008a9d0 f   libmng:libmng_chunk_io.obj
 0001:00089bf0       _mng_read_hist             1008abf0 f   libmng:libmng_chunk_io.obj
 0001:00089d40       _mng_read_time             1008ad40 f   libmng:libmng_chunk_io.obj
 0001:00089e20       _mng_read_mhdr             1008ae20 f   libmng:libmng_chunk_io.obj
 0001:0008a0f0       _mng_read_mend             1008b0f0 f   libmng:libmng_chunk_io.obj
 0001:0008a1b0       _mng_read_loop             1008b1b0 f   libmng:libmng_chunk_io.obj
 0001:0008a440       _mng_read_endl             1008b440 f   libmng:libmng_chunk_io.obj
 0001:0008a510       _mng_read_defi             1008b510 f   libmng:libmng_chunk_io.obj
 0001:0008a7c0       _mng_read_basi             1008b7c0 f   libmng:libmng_chunk_io.obj
 0001:0008ab50       _mng_read_clon             1008bb50 f   libmng:libmng_chunk_io.obj
 0001:0008ad80       _mng_read_past             1008bd80 f   libmng:libmng_chunk_io.obj
 0001:0008b030       _mng_read_disc             1008c030 f   libmng:libmng_chunk_io.obj
 0001:0008b1c0       _mng_read_back             1008c1c0 f   libmng:libmng_chunk_io.obj
 0001:0008b3d0       _mng_read_fram             1008c3d0 f   libmng:libmng_chunk_io.obj
 0001:0008b850       _mng_read_move             1008c850 f   libmng:libmng_chunk_io.obj
 0001:0008b9a0       _mng_read_clip             1008c9a0 f   libmng:libmng_chunk_io.obj
 0001:0008bb30       _mng_read_show             1008cb30 f   libmng:libmng_chunk_io.obj
 0001:0008bcf0       _mng_read_term             1008ccf0 f   libmng:libmng_chunk_io.obj
 0001:0008beb0       _mng_read_save             1008ceb0 f   libmng:libmng_chunk_io.obj
 0001:0008c2b0       _mng_read_seek             1008d2b0 f   libmng:libmng_chunk_io.obj
 0001:0008c490       _mng_read_expi             1008d490 f   libmng:libmng_chunk_io.obj
 0001:0008c5a0       _mng_read_fpri             1008d5a0 f   libmng:libmng_chunk_io.obj
 0001:0008c890       _mng_read_need             1008d890 f   libmng:libmng_chunk_io.obj
 0001:0008ca40       _mng_read_phyg             1008da40 f   libmng:libmng_chunk_io.obj
 0001:0008cb10       _mng_read_jhdr             1008db10 f   libmng:libmng_chunk_io.obj
 0001:0008cee0       _mng_read_jdaa             1008dee0 f   libmng:libmng_chunk_io.obj
 0001:0008d000       _mng_read_jdat             1008e000 f   libmng:libmng_chunk_io.obj
 0001:0008d110       _mng_read_jsep             1008e110 f   libmng:libmng_chunk_io.obj
 0001:0008d180       _mng_read_dhdr             1008e180 f   libmng:libmng_chunk_io.obj
 0001:0008d3c0       _mng_read_prom             1008e3c0 f   libmng:libmng_chunk_io.obj
 0001:0008d560       _mng_read_ipng             1008e560 f   libmng:libmng_chunk_io.obj
 0001:0008d630       _mng_read_pplt             1008e630 f   libmng:libmng_chunk_io.obj
 0001:0008db60       _mng_read_ijng             1008eb60 f   libmng:libmng_chunk_io.obj
 0001:0008dc30       _mng_read_drop             1008ec30 f   libmng:libmng_chunk_io.obj
 0001:0008dd60       _mng_read_dbyk             1008ed60 f   libmng:libmng_chunk_io.obj
 0001:0008dea0       _mng_read_ordr             1008eea0 f   libmng:libmng_chunk_io.obj
 0001:0008dfe0       _mng_read_magn             1008efe0 f   libmng:libmng_chunk_io.obj
 0001:0008e4d0       _mng_read_evnt             1008f4d0 f   libmng:libmng_chunk_io.obj
 0001:0008ec70       _mng_read_unknown          1008fc70 f   libmng:libmng_chunk_io.obj
 0001:0008edb0       _mng_write_ihdr            1008fdb0 f   libmng:libmng_chunk_io.obj
 0001:0008ee40       _mng_write_plte            1008fe40 f   libmng:libmng_chunk_io.obj
 0001:0008f1b0       _mng_write_jdat            100901b0 f   libmng:libmng_chunk_io.obj
 0001:0008f1b0       _mng_write_jdaa            100901b0 f   libmng:libmng_chunk_io.obj
 0001:0008f1b0       _mng_write_idat            100901b0 f   libmng:libmng_chunk_io.obj
 0001:0008f1f0       _mng_write_ijng            100901f0 f   libmng:libmng_chunk_io.obj
 0001:0008f1f0       _mng_write_jsep            100901f0 f   libmng:libmng_chunk_io.obj
 0001:0008f1f0       _mng_write_mend            100901f0 f   libmng:libmng_chunk_io.obj
 0001:0008f1f0       _mng_write_ipng            100901f0 f   libmng:libmng_chunk_io.obj
 0001:0008f1f0       _mng_write_iend            100901f0 f   libmng:libmng_chunk_io.obj
 0001:0008f210       _mng_write_trns            10090210 f   libmng:libmng_chunk_io.obj
 0001:0008f340       _mng_write_gama            10090340 f   libmng:libmng_chunk_io.obj
 0001:0008f3a0       _mng_write_chrm            100903a0 f   libmng:libmng_chunk_io.obj
 0001:0008f4e0       _mng_write_srgb            100904e0 f   libmng:libmng_chunk_io.obj
 0001:0008f520       _mng_write_iccp            10090520 f   libmng:libmng_chunk_io.obj
 0001:0008f660       _mng_write_text            10090660 f   libmng:libmng_chunk_io.obj
 0001:0008f720       _mng_write_ztxt            10090720 f   libmng:libmng_chunk_io.obj
 0001:0008f840       _mng_write_itxt            10090840 f   libmng:libmng_chunk_io.obj
 0001:0008f9d0       _mng_write_bkgd            100909d0 f   libmng:libmng_chunk_io.obj
 0001:0008fa90       _mng_write_phys            10090a90 f   libmng:libmng_chunk_io.obj
 0001:0008fa90       _mng_write_phyg            10090a90 f   libmng:libmng_chunk_io.obj
 0001:0008fb20       _mng_write_sbit            10090b20 f   libmng:libmng_chunk_io.obj
 0001:0008fc90       _mng_write_splt            10090c90 f   libmng:libmng_chunk_io.obj
 0001:0008fd70       _mng_write_hist            10090d70 f   libmng:libmng_chunk_io.obj
 0001:000900f0       _mng_write_time            100910f0 f   libmng:libmng_chunk_io.obj
 0001:00090150       _mng_write_mhdr            10091150 f   libmng:libmng_chunk_io.obj
 0001:00090250       _mng_write_loop            10091250 f   libmng:libmng_chunk_io.obj
 0001:00090360       _mng_write_endl            10091360 f   libmng:libmng_chunk_io.obj
 0001:00090390       _mng_write_defi            10091390 f   libmng:libmng_chunk_io.obj
 0001:000904e0       _mng_write_basi            100914e0 f   libmng:libmng_chunk_io.obj
 0001:00090600       _mng_write_clon            10091600 f   libmng:libmng_chunk_io.obj
 0001:000906f0       _mng_write_past            100916f0 f   libmng:libmng_chunk_io.obj
 0001:00090900       _mng_write_disc            10091900 f   libmng:libmng_chunk_io.obj
 0001:00090c80       _mng_write_back            10091c80 f   libmng:libmng_chunk_io.obj
 0001:00090d30       _mng_write_fram            10091d30 f   libmng:libmng_chunk_io.obj
 0001:00090f30       _mng_write_move            10091f30 f   libmng:libmng_chunk_io.obj
 0001:00090fc0       _mng_write_clip            10091fc0 f   libmng:libmng_chunk_io.obj
 0001:00091090       _mng_write_show            10092090 f   libmng:libmng_chunk_io.obj
 0001:00091120       _mng_write_term            10092120 f   libmng:libmng_chunk_io.obj
 0001:000911a0       _mng_write_save            100921a0 f   libmng:libmng_chunk_io.obj
 0001:000913a0       _mng_write_seek            100923a0 f   libmng:libmng_chunk_io.obj
 0001:000913a0       _mng_write_need            100923a0 f   libmng:libmng_chunk_io.obj
 0001:000913e0       _mng_write_expi            100923e0 f   libmng:libmng_chunk_io.obj
 0001:00091440       _mng_write_fpri            10092440 f   libmng:libmng_chunk_io.obj
 0001:00091470       _mng_write_jhdr            10092470 f   libmng:libmng_chunk_io.obj
 0001:00091510       _mng_write_dhdr            10092510 f   libmng:libmng_chunk_io.obj
 0001:000915f0       _mng_write_prom            100925f0 f   libmng:libmng_chunk_io.obj
 0001:00091630       _mng_write_pplt            10092630 f   libmng:libmng_chunk_io.obj
 0001:00091750       _mng_write_drop            10092750 f   libmng:libmng_chunk_io.obj
 0001:000917d0       _mng_write_dbyk            100927d0 f   libmng:libmng_chunk_io.obj
 0001:00091840       _mng_write_ordr            10092840 f   libmng:libmng_chunk_io.obj
 0001:000918c0       _mng_write_magn            100928c0 f   libmng:libmng_chunk_io.obj
 0001:000919f0       _mng_write_evnt            100929f0 f   libmng:libmng_chunk_io.obj
 0001:00091cb0       _mng_write_unknown         10092cb0 f   libmng:libmng_chunk_io.obj
 0001:00091cd0       _mng_add_chunk             10092cd0 f   libmng:libmng_chunk_prc.obj
 0001:00091d60       _mng_init_move             10092d60 f   libmng:libmng_chunk_prc.obj
 0001:00091d60       _mng_init_jhdr             10092d60 f   libmng:libmng_chunk_prc.obj
 0001:00091d60       _mng_init_text             10092d60 f   libmng:libmng_chunk_prc.obj
 0001:00091d60       _mng_init_dbyk             10092d60 f   libmng:libmng_chunk_prc.obj
 0001:00091d60       _mng_init_phyg             10092d60 f   libmng:libmng_chunk_prc.obj
 0001:00091d60       _mng_init_phys             10092d60 f   libmng:libmng_chunk_prc.obj
 0001:00091d60       _mng_init_ihdr             10092d60 f   libmng:libmng_chunk_prc.obj
 0001:00091dc0       _mng_init_plte             10092dc0 f   libmng:libmng_chunk_prc.obj
 0001:00091e20       _mng_init_back             10092e20 f   libmng:libmng_chunk_prc.obj
 0001:00091e20       _mng_init_save             10092e20 f   libmng:libmng_chunk_prc.obj
 0001:00091e20       _mng_init_idat             10092e20 f   libmng:libmng_chunk_prc.obj
 0001:00091e20       _mng_init_term             10092e20 f   libmng:libmng_chunk_prc.obj
 0001:00091e20       _mng_init_expi             10092e20 f   libmng:libmng_chunk_prc.obj
 0001:00091e20       _mng_init_jdaa             10092e20 f   libmng:libmng_chunk_prc.obj
 0001:00091e20       _mng_init_jdat             10092e20 f   libmng:libmng_chunk_prc.obj
 0001:00091e20       _mng_init_bkgd             10092e20 f   libmng:libmng_chunk_prc.obj
 0001:00091e80       _mng_init_ijng             10092e80 f   libmng:libmng_chunk_prc.obj
 0001:00091e80       _mng_init_jsep             10092e80 f   libmng:libmng_chunk_prc.obj
 0001:00091e80       _mng_init_iend             10092e80 f   libmng:libmng_chunk_prc.obj
 0001:00091e80       _mng_init_ipng             10092e80 f   libmng:libmng_chunk_prc.obj
 0001:00091e80       _mng_init_mend             10092e80 f   libmng:libmng_chunk_prc.obj
 0001:00091ee0       _mng_init_trns             10092ee0 f   libmng:libmng_chunk_prc.obj
 0001:00091f40       _mng_init_need             10092f40 f   libmng:libmng_chunk_prc.obj
 0001:00091f40       _mng_init_unknown          10092f40 f   libmng:libmng_chunk_prc.obj
 0001:00091f40       _mng_init_seek             10092f40 f   libmng:libmng_chunk_prc.obj
 0001:00091f40       _mng_init_gama             10092f40 f   libmng:libmng_chunk_prc.obj
 0001:00091f40       _mng_init_evnt             10092f40 f   libmng:libmng_chunk_prc.obj
 0001:00091f40       _mng_init_disc             10092f40 f   libmng:libmng_chunk_prc.obj
 0001:00091f40       _mng_init_drop             10092f40 f   libmng:libmng_chunk_prc.obj
 0001:00091f40       _mng_init_ordr             10092f40 f   libmng:libmng_chunk_prc.obj
 0001:00091f40       _mng_init_sbit             10092f40 f   libmng:libmng_chunk_prc.obj
 0001:00091f40       _mng_init_time             10092f40 f   libmng:libmng_chunk_prc.obj
 0001:00091f40       _mng_init_show             10092f40 f   libmng:libmng_chunk_prc.obj
 0001:00091fa0       _mng_init_itxt             10092fa0 f   libmng:libmng_chunk_prc.obj
 0001:00091fa0       _mng_init_chrm             10092fa0 f   libmng:libmng_chunk_prc.obj
 0001:00091fa0       _mng_init_defi             10092fa0 f   libmng:libmng_chunk_prc.obj
 0001:00092000       _mng_init_endl             10093000 f   libmng:libmng_chunk_prc.obj
 0001:00092000       _mng_init_srgb             10093000 f   libmng:libmng_chunk_prc.obj
 0001:00092000       _mng_init_prom             10093000 f   libmng:libmng_chunk_prc.obj
 0001:00092000       _mng_init_fpri             10093000 f   libmng:libmng_chunk_prc.obj
 0001:00092060       _mng_init_iccp             10093060 f   libmng:libmng_chunk_prc.obj
 0001:00092060       _mng_init_basi             10093060 f   libmng:libmng_chunk_prc.obj
 0001:00092060       _mng_init_splt             10093060 f   libmng:libmng_chunk_prc.obj
 0001:00092060       _mng_init_clip             10093060 f   libmng:libmng_chunk_prc.obj
 0001:000920c0       _mng_init_clon             100930c0 f   libmng:libmng_chunk_prc.obj
 0001:000920c0       _mng_init_past             100930c0 f   libmng:libmng_chunk_prc.obj
 0001:000920c0       _mng_init_dhdr             100930c0 f   libmng:libmng_chunk_prc.obj
 0001:000920c0       _mng_init_magn             100930c0 f   libmng:libmng_chunk_prc.obj
 0001:000920c0       _mng_init_ztxt             100930c0 f   libmng:libmng_chunk_prc.obj
 0001:00092120       _mng_init_hist             10093120 f   libmng:libmng_chunk_prc.obj
 0001:00092180       _mng_init_mhdr             10093180 f   libmng:libmng_chunk_prc.obj
 0001:00092180       _mng_init_loop             10093180 f   libmng:libmng_chunk_prc.obj
 0001:000921e0       _mng_init_fram             100931e0 f   libmng:libmng_chunk_prc.obj
 0001:00092240       _mng_init_pplt             10093240 f   libmng:libmng_chunk_prc.obj
 0001:000922a0       _mng_free_plte             100932a0 f   libmng:libmng_chunk_prc.obj
 0001:000922d0       _mng_free_idat             100932d0 f   libmng:libmng_chunk_prc.obj
 0001:000922d0       _mng_free_jdat             100932d0 f   libmng:libmng_chunk_prc.obj
 0001:000922d0       _mng_free_jdaa             100932d0 f   libmng:libmng_chunk_prc.obj
 0001:00092310       _mng_free_trns             10093310 f   libmng:libmng_chunk_prc.obj
 0001:00092340       _mng_free_defi             10093340 f   libmng:libmng_chunk_prc.obj
 0001:00092340       _mng_free_chrm             10093340 f   libmng:libmng_chunk_prc.obj
 0001:00092360       _mng_free_iccp             10093360 f   libmng:libmng_chunk_prc.obj
 0001:000923c0       _mng_free_text             100933c0 f   libmng:libmng_chunk_prc.obj
 0001:00092420       _mng_free_ztxt             10093420 f   libmng:libmng_chunk_prc.obj
 0001:00092480       _mng_free_itxt             10093480 f   libmng:libmng_chunk_prc.obj
 0001:00092510       _mng_free_splt             10093510 f   libmng:libmng_chunk_prc.obj
 0001:00092580       _mng_free_hist             10093580 f   libmng:libmng_chunk_prc.obj
 0001:000925b0       _mng_free_mhdr             100935b0 f   libmng:libmng_chunk_prc.obj
 0001:000925d0       _mng_free_loop             100935d0 f   libmng:libmng_chunk_prc.obj
 0001:00092610       _mng_free_basi             10093610 f   libmng:libmng_chunk_prc.obj
 0001:00092610       _mng_free_clip             10093610 f   libmng:libmng_chunk_prc.obj
 0001:00092630       _mng_free_past             10093630 f   libmng:libmng_chunk_prc.obj
 0001:00092670       _mng_free_disc             10093670 f   libmng:libmng_chunk_prc.obj
 0001:000926b0       _mng_free_fram             100936b0 f   libmng:libmng_chunk_prc.obj
 0001:00092710       _mng_free_save             10093710 f   libmng:libmng_chunk_prc.obj
 0001:00092790       _mng_free_seek             10093790 f   libmng:libmng_chunk_prc.obj
 0001:00092790       _mng_free_need             10093790 f   libmng:libmng_chunk_prc.obj
 0001:000927d0       _mng_free_expi             100937d0 f   libmng:libmng_chunk_prc.obj
 0001:00092810       _mng_free_pplt             10093810 f   libmng:libmng_chunk_prc.obj
 0001:00092840       _mng_free_drop             10093840 f   libmng:libmng_chunk_prc.obj
 0001:00092880       _mng_free_dbyk             10093880 f   libmng:libmng_chunk_prc.obj
 0001:000928c0       _mng_free_ordr             100938c0 f   libmng:libmng_chunk_prc.obj
 0001:00092900       _mng_free_evnt             10093900 f   libmng:libmng_chunk_prc.obj
 0001:00092980       _mng_assign_ihdr           10093980 f   libmng:libmng_chunk_prc.obj
 0001:000929e0       _mng_assign_plte           100939e0 f   libmng:libmng_chunk_prc.obj
 0001:00092a50       _mng_assign_idat           10093a50 f   libmng:libmng_chunk_prc.obj
 0001:00092ae0       _mng_assign_iend           10093ae0 f   libmng:libmng_chunk_prc.obj
 0001:00092b10       _mng_assign_trns           10093b10 f   libmng:libmng_chunk_prc.obj
 0001:00092c00       _mng_assign_gama           10093c00 f   libmng:libmng_chunk_prc.obj
 0001:00092c40       _mng_assign_chrm           10093c40 f   libmng:libmng_chunk_prc.obj
 0001:00092cb0       _mng_assign_srgb           10093cb0 f   libmng:libmng_chunk_prc.obj
 0001:00092cf0       _mng_assign_iccp           10093cf0 f   libmng:libmng_chunk_prc.obj
 0001:00092dc0       _mng_assign_text           10093dc0 f   libmng:libmng_chunk_prc.obj
 0001:00092e80       _mng_assign_ztxt           10093e80 f   libmng:libmng_chunk_prc.obj
 0001:00092f40       _mng_assign_itxt           10093f40 f   libmng:libmng_chunk_prc.obj
 0001:00093070       _mng_assign_bkgd           10094070 f   libmng:libmng_chunk_prc.obj
 0001:000930e0       _mng_assign_phys           100940e0 f   libmng:libmng_chunk_prc.obj
 0001:00093130       _mng_assign_sbit           10094130 f   libmng:libmng_chunk_prc.obj
 0001:00093190       _mng_assign_splt           10094190 f   libmng:libmng_chunk_prc.obj
 0001:00093270       _mng_assign_hist           10094270 f   libmng:libmng_chunk_prc.obj
 0001:000932d0       _mng_assign_time           100942d0 f   libmng:libmng_chunk_prc.obj
 0001:00093330       _mng_assign_mhdr           10094330 f   libmng:libmng_chunk_prc.obj
 0001:00093390       _mng_assign_mend           10094390 f   libmng:libmng_chunk_prc.obj
 0001:000933c0       _mng_assign_loop           100943c0 f   libmng:libmng_chunk_prc.obj
 0001:00093470       _mng_assign_endl           10094470 f   libmng:libmng_chunk_prc.obj
 0001:000934b0       _mng_assign_defi           100944b0 f   libmng:libmng_chunk_prc.obj
 0001:00093540       _mng_assign_basi           10094540 f   libmng:libmng_chunk_prc.obj
 0001:000935d0       _mng_assign_clon           100945d0 f   libmng:libmng_chunk_prc.obj
 0001:00093640       _mng_assign_past           10094640 f   libmng:libmng_chunk_prc.obj
 0001:000936e0       _mng_assign_disc           100946e0 f   libmng:libmng_chunk_prc.obj
 0001:00093760       _mng_assign_back           10094760 f   libmng:libmng_chunk_prc.obj
 0001:000937c0       _mng_assign_fram           100947c0 f   libmng:libmng_chunk_prc.obj
 0001:000938d0       _mng_assign_move           100948d0 f   libmng:libmng_chunk_prc.obj
 0001:00093930       _mng_assign_clip           10094930 f   libmng:libmng_chunk_prc.obj
 0001:00093990       _mng_assign_show           10094990 f   libmng:libmng_chunk_prc.obj
 0001:000939e0       _mng_assign_term           100949e0 f   libmng:libmng_chunk_prc.obj
 0001:00093a30       _mng_assign_save           10094a30 f   libmng:libmng_chunk_prc.obj
 0001:00093b40       _mng_assign_seek           10094b40 f   libmng:libmng_chunk_prc.obj
 0001:00093bc0       _mng_assign_expi           10094bc0 f   libmng:libmng_chunk_prc.obj
 0001:00093c50       _mng_assign_fpri           10094c50 f   libmng:libmng_chunk_prc.obj
 0001:00093c90       _mng_assign_need           10094c90 f   libmng:libmng_chunk_prc.obj
 0001:00093d10       _mng_assign_phyg           10094d10 f   libmng:libmng_chunk_prc.obj
 0001:00093d60       _mng_assign_jhdr           10094d60 f   libmng:libmng_chunk_prc.obj
 0001:00093de0       _mng_assign_jdaa           10094de0 f   libmng:libmng_chunk_prc.obj
 0001:00093e70       _mng_assign_jdat           10094e70 f   libmng:libmng_chunk_prc.obj
 0001:00093f00       _mng_assign_jsep           10094f00 f   libmng:libmng_chunk_prc.obj
 0001:00093f30       _mng_assign_dhdr           10094f30 f   libmng:libmng_chunk_prc.obj
 0001:00093f90       _mng_assign_prom           10094f90 f   libmng:libmng_chunk_prc.obj
 0001:00093fe0       _mng_assign_ipng           10094fe0 f   libmng:libmng_chunk_prc.obj
 0001:00094010       _mng_assign_pplt           10095010 f   libmng:libmng_chunk_prc.obj
 0001:00094070       _mng_assign_ijng           10095070 f   libmng:libmng_chunk_prc.obj
 0001:000940a0       _mng_assign_drop           100950a0 f   libmng:libmng_chunk_prc.obj
 0001:00094130       _mng_assign_dbyk           10095130 f   libmng:libmng_chunk_prc.obj
 0001:000941c0       _mng_assign_ordr           100951c0 f   libmng:libmng_chunk_prc.obj
 0001:00094250       _mng_assign_magn           10095250 f   libmng:libmng_chunk_prc.obj
 0001:000942d0       _mng_assign_evnt           100952d0 f   libmng:libmng_chunk_prc.obj
 0001:000943b0       _mng_assign_unknown        100953b0 f   libmng:libmng_chunk_prc.obj
 0001:00094660       _mng_filter_a_row          10095660 f   libmng:libmng_filter.obj
 0001:000946b0       _png_get_IHDR              100956b0 f   libPNG:pngget.obj
 0001:00094730       _png_get_PLTE              10095730 f   libPNG:pngget.obj
 0001:00094760       _png_get_tRNS              10095760 f   libPNG:pngget.obj
 0001:000947a0       _png_read_info             100957a0 f   libPNG:pngread.obj
 0001:00094bf0       _png_read_row              10095bf0 f   libPNG:pngread.obj
 0001:00094f20       _png_read_image            10095f20 f   libPNG:pngread.obj
 0001:000951c0       _png_destroy_read_struct   100961c0 f   libPNG:pngread.obj
 0001:00095200       _png_set_gamma_fixed       10096200 f   libPNG:pngrtran.obj
 0001:000952c0       _png_set_gamma             100962c0 f   libPNG:pngrtran.obj
 0001:000953c0       _png_set_expand_gray_1_2_4_to_8 100963c0 f   libPNG:pngrtran.obj
 0001:000953f0       _png_set_tRNS_to_alpha     100963f0 f   libPNG:pngrtran.obj
 0001:00095630       _png_init_read_transformations 10096630 f   libPNG:pngrtran.obj
 0001:00096170       _png_read_transform_info   10097170 f   libPNG:pngrtran.obj
 0001:00098f00       _png_do_read_transformations 10099f00 f   libPNG:pngrtran.obj
 0001:000992e0       _png_do_invert             1009a2e0 f   libPNG:pngtrans.obj
 0001:00099390       _png_do_swap               1009a390 f   libPNG:pngtrans.obj
 0001:000993c0       _png_do_packswap           1009a3c0 f   libPNG:pngtrans.obj
 0001:00099420       _png_do_strip_channel      1009a420 f   libPNG:pngtrans.obj
 0001:000995a0       _png_do_bgr                1009a5a0 f   libPNG:pngtrans.obj
 0001:00099660       _png_do_check_palette_indexes 1009a660 f   libPNG:pngtrans.obj
 0001:000997b0       _png_sig_cmp               1009a7b0 f   libPNG:png.obj
 0001:00099890       _png_zalloc                1009a890 f   libPNG:png.obj
 0001:00099900       _png_zfree                 1009a900 f   libPNG:png.obj
 0001:00099930       _png_calculate_crc         1009a930 f   libPNG:png.obj
 0001:000999b0       _png_user_version_check    1009a9b0 f   libPNG:png.obj
 0001:00099b10       _png_create_png_struct     1009ab10 f   libPNG:png.obj
 0001:00099c90       _png_create_info_struct    1009ac90 f   libPNG:png.obj
 0001:00099ce0       _png_destroy_info_struct   1009ace0 f   libPNG:png.obj
 0001:00099d40       _png_free_data             1009ad40 f   libPNG:png.obj
 0001:0009a320       _png_chunk_unknown_handling 1009b320 f   libPNG:png.obj
 0001:0009a3a0       _png_zstream_error         1009b3a0 f   libPNG:png.obj
 0001:0009a640       _png_colorspace_set_gamma  1009b640 f   libPNG:png.obj
 0001:0009a700       _png_colorspace_sync_info  1009b700 f   libPNG:png.obj
 0001:0009a750       _png_colorspace_sync       1009b750 f   libPNG:png.obj
 0001:0009aed0       _png_colorspace_set_chromaticities 1009bed0 f   libPNG:png.obj
 0001:0009b300       _png_colorspace_set_sRGB   1009c300 f   libPNG:png.obj
 0001:0009b490       _png_icc_check_length      1009c490 f   libPNG:png.obj
 0001:0009b4c0       _png_icc_check_header      1009c4c0 f   libPNG:png.obj
 0001:0009b7f0       _png_icc_check_tag_table   1009c7f0 f   libPNG:png.obj
 0001:0009bbf0       _png_icc_set_sRGB          1009cbf0 f   libPNG:png.obj
 0001:0009bc30       _png_colorspace_set_rgb_coefficients 1009cc30 f   libPNG:png.obj
 0001:0009bd90       _png_check_IHDR            1009cd90 f   libPNG:png.obj
 0001:0009bf40       _png_check_fp_number       1009cf40 f   libPNG:png.obj
 0001:0009c0d0       _png_check_fp_string       1009d0d0 f   libPNG:png.obj
 0001:0009c120       _png_muldiv                1009d120 f   libPNG:png.obj
 0001:0009c1d0       _png_reciprocal            1009d1d0 f   libPNG:png.obj
 0001:0009c2b0       _png_reciprocal2           1009d2b0 f   libPNG:png.obj
 0001:0009c330       _png_gamma_8bit_correct    1009d330 f   libPNG:png.obj
 0001:0009c3b0       _png_gamma_16bit_correct   1009d3b0 f   libPNG:png.obj
 0001:0009c440       _png_gamma_correct         1009d440 f   libPNG:png.obj
 0001:0009c9a0       _png_destroy_gamma_table   1009d9a0 f   libPNG:png.obj
 0001:0009cbc0       _png_build_gamma_table     1009dbc0 f   libPNG:png.obj
 0001:0009cda0       _png_error                 1009dda0 f   libPNG:pngerror.obj
 0001:0009cdd0       _png_format_number         1009ddd0 f   libPNG:pngerror.obj
 0001:0009cef0       _png_warning               1009def0 f   libPNG:pngerror.obj
 0001:0009cf60       _png_warning_parameter_signed 1009df60 f   libPNG:pngerror.obj
 0001:0009cff0       _png_formatted_warning     1009dff0 f   libPNG:pngerror.obj
 0001:0009d0f0       _png_benign_error          1009e0f0 f   libPNG:pngerror.obj
 0001:0009d240       _png_chunk_error           1009e240 f   libPNG:pngerror.obj
 0001:0009d280       _png_chunk_warning         1009e280 f   libPNG:pngerror.obj
 0001:0009d2e0       _png_chunk_benign_error    1009e2e0 f   libPNG:pngerror.obj
 0001:0009d330       _png_chunk_report          1009e330 f   libPNG:pngerror.obj
 0001:0009d3d0       _png_fixed_error           1009e3d0 f   libPNG:pngerror.obj
 0001:0009d440       _png_set_longjmp_fn        1009e440 f   libPNG:pngerror.obj
 0001:0009d490       _png_free_jmpbuf           1009e490 f   libPNG:pngerror.obj
 0001:0009d580       _png_default_read_data     1009e580 f   libPNG:pngrio.obj
 0001:0009d5c0       _png_set_read_fn           1009e5c0 f   libPNG:pngrio.obj
 0001:0009d710       _png_write_info_before_PLTE 1009e710 f   libPNG:pngwrite.obj
 0001:0009d870       _png_write_info            1009e870 f   libPNG:pngwrite.obj
 0001:0009dbb0       _png_write_end             1009ebb0 f   libPNG:pngwrite.obj
 0001:0009dd10       _png_create_write_struct_2 1009ed10 f   libPNG:pngwrite.obj
 0001:0009dde0       _png_write_image           1009ede0 f   libPNG:pngwrite.obj
 0001:0009df30       _png_write_row             1009ef30 f   libPNG:pngwrite.obj
 0001:0009e390       _png_destroy_write_struct  1009f390 f   libPNG:pngwrite.obj
 0001:0009e460       _png_default_write_data    1009f460 f   libPNG:pngwio.obj
 0001:0009e4a0       _png_default_flush         1009f4a0 f   libPNG:pngwio.obj
 0001:0009e4c0       _png_set_hIST              1009f4c0 f   libPNG:pngset.obj
 0001:0009e560       _png_set_IHDR              1009f560 f   libPNG:pngset.obj
 0001:0009e620       _png_set_pCAL              1009f620 f   libPNG:pngset.obj
 0001:0009e850       _png_set_sCAL_s            1009f850 f   libPNG:pngset.obj
 0001:0009e9b0       _png_set_PLTE              1009f9b0 f   libPNG:pngset.obj
 0001:0009ea80       _png_set_text_2            1009fa80 f   libPNG:pngset.obj
 0001:0009eef0       _png_set_tIME              1009fef0 f   libPNG:pngset.obj
 0001:0009ef60       _png_set_tRNS              1009ff60 f   libPNG:pngset.obj
 0001:0009f050       _png_set_sPLT              100a0050 f   libPNG:pngset.obj
 0001:0009f2f0       _png_set_unknown_chunks    100a02f0 f   libPNG:pngset.obj
 0001:0009f4e0       _png_read_sig              100a04e0 f   libPNG:pngrutil.obj
 0001:0009f590       _png_read_chunk_header     100a0590 f   libPNG:pngrutil.obj
 0001:0009f6e0       _png_crc_read              100a06e0 f   libPNG:pngrutil.obj
 0001:0009f720       _png_crc_finish            100a0720 f   libPNG:pngrutil.obj
 0001:0009f810       _png_crc_error             100a0810 f   libPNG:pngrutil.obj
 0001:0009ff40       _png_handle_IHDR           100a0f40 f   libPNG:pngrutil.obj
 0001:000a0170       _png_handle_PLTE           100a1170 f   libPNG:pngrutil.obj
 0001:000a0340       _png_handle_gAMA           100a1340 f   libPNG:pngrutil.obj
 0001:000a04d0       _png_handle_sBIT           100a14d0 f   libPNG:pngrutil.obj
 0001:000a06f0       _png_handle_cHRM           100a16f0 f   libPNG:pngrutil.obj
 0001:000a0990       _png_handle_sRGB           100a1990 f   libPNG:pngrutil.obj
 0001:000a0b50       _png_handle_iCCP           100a1b50 f   libPNG:pngrutil.obj
 0001:000a10c0       _png_handle_sPLT           100a20c0 f   libPNG:pngrutil.obj
 0001:000a1320       _png_handle_tRNS           100a2320 f   libPNG:pngrutil.obj
 0001:000a1590       _png_handle_bKGD           100a2590 f   libPNG:pngrutil.obj
 0001:000a17d0       _png_handle_hIST           100a27d0 f   libPNG:pngrutil.obj
 0001:000a1a00       _png_handle_pHYs           100a2a00 f   libPNG:pngrutil.obj
 0001:000a1b70       _png_handle_oFFs           100a2b70 f   libPNG:pngrutil.obj
 0001:000a1ce0       _png_handle_pCAL           100a2ce0 f   libPNG:pngrutil.obj
 0001:000a2040       _png_handle_sCAL           100a3040 f   libPNG:pngrutil.obj
 0001:000a22c0       _png_handle_tIME           100a32c0 f   libPNG:pngrutil.obj
 0001:000a2440       _png_handle_tEXt           100a3440 f   libPNG:pngrutil.obj
 0001:000a2590       _png_handle_zTXt           100a3590 f   libPNG:pngrutil.obj
 0001:000a27e0       _png_handle_iTXt           100a37e0 f   libPNG:pngrutil.obj
 0001:000a2c40       _png_handle_unknown        100a3c40 f   libPNG:pngrutil.obj
 0001:000a2dc0       _png_check_chunk_name      100a3dc0 f   libPNG:pngrutil.obj
 0001:000a2e00       _png_combine_row           100a3e00 f   libPNG:pngrutil.obj
 0001:000a32b0       _png_do_read_interlace     100a42b0 f   libPNG:pngrutil.obj
 0001:000a3980       _png_read_filter_row       100a4980 f   libPNG:pngrutil.obj
 0001:000a3a00       _png_read_IDAT_data        100a4a00 f   libPNG:pngrutil.obj
 0001:000a3ca0       _png_read_finish_IDAT      100a4ca0 f   libPNG:pngrutil.obj
 0001:000a3d10       _png_read_finish_row       100a4d10 f   libPNG:pngrutil.obj
 0001:000a3e00       _png_read_start_row        100a4e00 f   libPNG:pngrutil.obj
 0001:000a4180       _png_destroy_png_struct    100a5180 f   libPNG:pngmem.obj
 0001:000a4200       _png_calloc                100a5200 f   libPNG:pngmem.obj
 0001:000a4260       _png_malloc_base           100a5260 f   libPNG:pngmem.obj
 0001:000a42e0       _png_realloc_array         100a52e0 f   libPNG:pngmem.obj
 0001:000a4370       _png_malloc                100a5370 f   libPNG:pngmem.obj
 0001:000a43b0       _png_malloc_warn           100a53b0 f   libPNG:pngmem.obj
 0001:000a43f0       _png_free                  100a53f0 f   libPNG:pngmem.obj
 0001:000a4420       _png_write_sig             100a5420 f   libPNG:pngwutil.obj
 0001:000a4560       _png_write_chunk_data      100a5560 f   libPNG:pngwutil.obj
 0001:000a45b0       _png_write_chunk_end       100a55b0 f   libPNG:pngwutil.obj
 0001:000a4ac0       _png_free_buffer_list      100a5ac0 f   libPNG:pngwutil.obj
 0001:000a4e80       _png_write_IHDR            100a5e80 f   libPNG:pngwutil.obj
 0001:000a51a0       _png_write_PLTE            100a61a0 f   libPNG:pngwutil.obj
 0001:000a5290       _png_compress_IDAT         100a6290 f   libPNG:pngwutil.obj
 0001:000a54f0       _png_write_gAMA_fixed      100a64f0 f   libPNG:pngwutil.obj
 0001:000a5560       _png_write_sRGB            100a6560 f   libPNG:pngwutil.obj
 0001:000a55d0       _png_write_iCCP            100a65d0 f   libPNG:pngwutil.obj
 0001:000a5720       _png_write_sPLT            100a6720 f   libPNG:pngwutil.obj
 0001:000a5940       _png_write_sBIT            100a6940 f   libPNG:pngwutil.obj
 0001:000a5a00       _png_write_cHRM_fixed      100a6a00 f   libPNG:pngwutil.obj
 0001:000a5b60       _png_write_tRNS            100a6b60 f   libPNG:pngwutil.obj
 0001:000a5d20       _png_write_bKGD            100a6d20 f   libPNG:pngwutil.obj
 0001:000a5f10       _png_write_hIST            100a6f10 f   libPNG:pngwutil.obj
 0001:000a5fe0       _png_write_tEXt            100a6fe0 f   libPNG:pngwutil.obj
 0001:000a60d0       _png_write_zTXt            100a70d0 f   libPNG:pngwutil.obj
 0001:000a6200       _png_write_iTXt            100a7200 f   libPNG:pngwutil.obj
 0001:000a6470       _png_write_oFFs            100a7470 f   libPNG:pngwutil.obj
 0001:000a6530       _png_write_pCAL            100a7530 f   libPNG:pngwutil.obj
 0001:000a6800       _png_write_sCAL_s          100a7800 f   libPNG:pngwutil.obj
 0001:000a68c0       _png_write_pHYs            100a78c0 f   libPNG:pngwutil.obj
 0001:000a6980       _png_write_tIME            100a7980 f   libPNG:pngwutil.obj
 0001:000a6a60       _png_write_start_row       100a7a60 f   libPNG:pngwutil.obj
 0001:000a6c00       _png_write_finish_row      100a7c00 f   libPNG:pngwutil.obj
 0001:000a6d50       _png_do_write_interlace    100a7d50 f   libPNG:pngwutil.obj
 0001:000a6fb0       _png_write_find_filter     100a7fb0 f   libPNG:pngwutil.obj
 0001:000a8290       _png_do_write_transformations 100a9290 f   libPNG:pngwtran.obj
 0001:000a84d0       _cmsOpenIOhandlerFromNULL  100a94d0 f   lcms:cmsio0.obj
 0001:000a8760       _cmsOpenIOhandlerFromMem   100a9760 f   lcms:cmsio0.obj
 0001:000a89c0       _cmsOpenIOhandlerFromFile  100a99c0 f   lcms:cmsio0.obj
 0001:000a8b40       _cmsCreateProfilePlaceholder 100a9b40 f   lcms:cmsio0.obj
 0001:000a8c20       __cmsSearchTag             100a9c20 f   lcms:cmsio0.obj
 0001:000a8d60       _cmsIsTag                  100a9d60 f   lcms:cmsio0.obj
 0001:000a8da0       __cmsReadHeader            100a9da0 f   lcms:cmsio0.obj
 0001:000a9290       __cmsWriteHeader           100aa290 f   lcms:cmsio0.obj
 0001:000a9960       _cmsSetProfileVersion      100aa960 f   lcms:cmsio0.obj
 0001:000a9a10       _cmsGetProfileVersion      100aaa10 f   lcms:cmsio0.obj
 0001:000a9a90       _cmsOpenProfileFromFile    100aaa90 f   lcms:cmsio0.obj
 0001:000a9b50       _cmsOpenProfileFromMem     100aab50 f   lcms:cmsio0.obj
 0001:000a9fd0       _cmsSaveProfileToIOhandler 100aafd0 f   lcms:cmsio0.obj
 0001:000aa0f0       _cmsSaveProfileToFile      100ab0f0 f   lcms:cmsio0.obj
 0001:000aa150       _cmsCloseProfile           100ab150 f   lcms:cmsio0.obj
 0001:000aa310       _cmsReadTag                100ab310 f   lcms:cmsio0.obj
 0001:000aa550       __cmsGetTagTrueType        100ab550 f   lcms:cmsio0.obj
 0001:000aa590       _cmsWriteTag               100ab590 f   lcms:cmsio0.obj
 0001:000aa7f0       _cmsLinkTag                100ab7f0 f   lcms:cmsio0.obj
 0001:000aa8d0       _cmsDeleteTransform        100ab8d0 f   lcms:cmsxform.obj
 0001:000ab820       _cmsCreateExtendedTransform 100ac820 f   lcms:cmsxform.obj
 0001:000abb60       _cmsCreateMultiprofileTransformTHR 100acb60 f   lcms:cmsxform.obj
 0001:000abc80       _cmsCreateTransformTHR     100acc80 f   lcms:cmsxform.obj
 0001:000abcc0       _cmsCreateTransform        100accc0 f   lcms:cmsxform.obj
 0001:000abd10       _cmsWhitePointFromTemp     100acd10 f   lcms:cmswtpnt.obj
 0001:000abe50       _cmsTempFromWhitePoint     100ace50 f   lcms:cmswtpnt.obj
 0001:000ac5a0       __cmsAdaptationMatrix      100ad5a0 f   lcms:cmswtpnt.obj
 0001:000ac900       __cmsBuildRGB2XYZtransferMatrix 100ad900 f   lcms:cmswtpnt.obj
 0001:000acc80       _cmsCreateRGBProfileTHR    100adc80 f   lcms:cmsvirt.obj
 0001:000acf80       _cmsCreateLab2ProfileTHR   100adf80 f   lcms:cmsvirt.obj
 0001:000ad0a0       _cmsCreateLab4ProfileTHR   100ae0a0 f   lcms:cmsvirt.obj
 0001:000add10       _cmsBuildSegmentedToneCurve 100aed10 f   lcms:cmsgamma.obj
 0001:000ade20       _cmsBuildTabulatedToneCurveFloat 100aee20 f   lcms:cmsgamma.obj
 0001:000adf10       _cmsBuildParametricToneCurve 100aef10 f   lcms:cmsgamma.obj
 0001:000adfd0       _cmsFreeToneCurve          100aefd0 f   lcms:cmsgamma.obj
 0001:000ae1f0       _cmsFreeToneCurveTriple    100af1f0 f   lcms:cmsgamma.obj
 0001:000ae230       _cmsJoinToneCurve          100af230 f   lcms:cmsgamma.obj
 0001:000ae410       _cmsReverseToneCurveEx     100af410 f   lcms:cmsgamma.obj
 0001:000ae640       _cmsIsToneCurveMonotonic   100af640 f   lcms:cmsgamma.obj
 0001:000ae6d0       _cmsEvalToneCurveFloat     100af6d0 f   lcms:cmsgamma.obj
 0001:000ae780       _cmsfilelength             100af780 f   lcms:cmserr.obj
 0001:000ae940       __cmsMalloc                100af940 f   lcms:cmserr.obj
 0001:000ae980       __cmsMallocZero            100af980 f   lcms:cmserr.obj
 0001:000ae9c0       __cmsCalloc                100af9c0 f   lcms:cmserr.obj
 0001:000aea00       __cmsRealloc               100afa00 f   lcms:cmserr.obj
 0001:000aea40       __cmsFree                  100afa40 f   lcms:cmserr.obj
 0001:000aea80       __cmsDupMem                100afa80 f   lcms:cmserr.obj
 0001:000aeac0       _cmsSignalError            100afac0 f   lcms:cmserr.obj
 0001:000aeb50       __cmsTagSignature2String   100afb50 f   lcms:cmserr.obj
 0001:000aec70       __cmsUnlockMutex           100afc70 f   lcms:cmserr.obj
 0001:000aecb0       __cmsReadUInt8Number       100afcb0 f   lcms:cmsplugin.obj
 0001:000aecf0       __cmsReadUInt16Number      100afcf0 f   lcms:cmsplugin.obj
 0001:000aed40       __cmsReadUInt16Array       100afd40 f   lcms:cmsplugin.obj
 0001:000aede0       __cmsReadFloat32Number     100afde0 f   lcms:cmsplugin.obj
 0001:000aede0       __cmsReadUInt32Number      100afde0 f   lcms:cmsplugin.obj
 0001:000aee40       __cmsReadUInt64Number      100afe40 f   lcms:cmsplugin.obj
 0001:000aeeb0       __cmsRead15Fixed16Number   100afeb0 f   lcms:cmsplugin.obj
 0001:000aef60       __cmsReadXYZNumber         100aff60 f   lcms:cmsplugin.obj
 0001:000af160       __cmsWriteUInt8Number      100b0160 f   lcms:cmsplugin.obj
 0001:000af190       __cmsWriteUInt16Number     100b0190 f   lcms:cmsplugin.obj
 0001:000af1d0       __cmsWriteUInt16Array      100b01d0 f   lcms:cmsplugin.obj
 0001:000af230       __cmsWriteUInt32Number     100b0230 f   lcms:cmsplugin.obj
 0001:000af280       __cmsWriteFloat32Number    100b0280 f   lcms:cmsplugin.obj
 0001:000af2d0       __cmsWriteUInt64Number     100b02d0 f   lcms:cmsplugin.obj
 0001:000af330       __cmsWrite15Fixed16Number  100b0330 f   lcms:cmsplugin.obj
 0001:000af3b0       __cmsWriteXYZNumber        100b03b0 f   lcms:cmsplugin.obj
 0001:000af510       __cmsDecodeDateTimeNumber  100b0510 f   lcms:cmsplugin.obj
 0001:000af5e0       __cmsEncodeDateTimeNumber  100b05e0 f   lcms:cmsplugin.obj
 0001:000af6a0       __cmsReadTypeBase          100b06a0 f   lcms:cmsplugin.obj
 0001:000af710       __cmsWriteTypeBase         100b0710 f   lcms:cmsplugin.obj
 0001:000af770       __cmsWriteAlignment        100b0770 f   lcms:cmsplugin.obj
 0001:000b94d0       __cmsGetTagTypeHandler     100ba4d0 f   lcms:cmstypes.obj
 0001:000b9520       __cmsGetTagDescriptor      100ba520 f   lcms:cmstypes.obj
 0001:000b9580       __cmsChain2Lab             100ba580 f   lcms:cmsgmt.obj
 0001:000b9860       __cmsBuildKToneCurve       100ba860 f   lcms:cmsgmt.obj
 0001:000b99d0       _cmsDetectTAC              100ba9d0 f   lcms:cmsgmt.obj
 0001:000b9b00       __cmsStageAllocPlaceholder 100bab00 f   lcms:cmslut.obj
 0001:000b9d90       _cmsPipelineCheckAndRetreiveStages 100bad90 f   lcms:cmslut.obj
 0001:000ba170       _cmsStageAllocToneCurves   100bb170 f   lcms:cmslut.obj
 0001:000ba4f0       _cmsStageAllocMatrix       100bb4f0 f   lcms:cmslut.obj
 0001:000ba970       _cmsStageAllocCLut16bitGranular 100bb970 f   lcms:cmslut.obj
 0001:000baa80       _cmsStageAllocCLut16bit    100bba80 f   lcms:cmslut.obj
 0001:000bac50       _cmsStageAllocCLutFloatGranular 100bbc50 f   lcms:cmslut.obj
 0001:000bad60       __cmsStageAllocIdentityCLut 100bbd60 f   lcms:cmslut.obj
 0001:000bae50       _cmsStageSampleCLut16bit   100bbe50 f   lcms:cmslut.obj
 0001:000bb070       _cmsSliceSpace16           100bc070 f   lcms:cmslut.obj
 0001:000bb310       __cmsStageAllocLab2XYZ     100bc310 f   lcms:cmslut.obj
 0001:000bb330       __cmsStageAllocLabV2ToV4   100bc330 f   lcms:cmslut.obj
 0001:000bb360       __cmsStageAllocLabV4ToV2   100bc360 f   lcms:cmslut.obj
 0001:000bb390       __cmsStageNormalizeFromXyzFloat 100bc390 f   lcms:cmslut.obj
 0001:000bb570       __cmsStageAllocXYZ2Lab     100bc570 f   lcms:cmslut.obj
 0001:000bb590       _cmsStageFree              100bc590 f   lcms:cmslut.obj
 0001:000bb5e0       _cmsStageDup               100bc5e0 f   lcms:cmslut.obj
 0001:000bb7f0       _cmsPipelineAlloc          100bc7f0 f   lcms:cmslut.obj
 0001:000bb8a0       _cmsPipelineFree           100bc8a0 f   lcms:cmslut.obj
 0001:000bb950       _cmsPipelineDup            100bc950 f   lcms:cmslut.obj
 0001:000bba40       _cmsPipelineInsertStage    100bca40 f   lcms:cmslut.obj
 0001:000bbab0       _cmsPipelineCat            100bcab0 f   lcms:cmslut.obj
 0001:000bbba0       _cmsPipelineEvalReverseFloat 100bcba0 f   lcms:cmslut.obj
 0001:000bf710       __cmsOptimizePipeline      100c0710 f   lcms:cmsopt.obj
 0001:000bf810       _cmsMLUalloc               100c0810 f   lcms:cmsnamed.obj
 0001:000bfa70       _cmsMLUsetASCII            100c0a70 f   lcms:cmsnamed.obj
 0001:000bfb90       _cmsMLUsetWide             100c0b90 f   lcms:cmsnamed.obj
 0001:000bfc00       _cmsMLUdup                 100c0c00 f   lcms:cmsnamed.obj
 0001:000bfca0       _cmsMLUfree                100c0ca0 f   lcms:cmsnamed.obj
 0001:000bfd80       _cmsMLUgetASCII            100c0d80 f   lcms:cmsnamed.obj
 0001:000bfe40       _cmsMLUgetWide             100c0e40 f   lcms:cmsnamed.obj
 0001:000bff30       _cmsAllocNamedColorList    100c0f30 f   lcms:cmsnamed.obj
 0001:000c0030       _cmsFreeNamedColorList     100c1030 f   lcms:cmsnamed.obj
 0001:000c0080       _cmsDupNamedColorList      100c1080 f   lcms:cmsnamed.obj
 0001:000c0170       _cmsAppendNamedColor       100c1170 f   lcms:cmsnamed.obj
 0001:000c0280       _cmsNamedColorInfo         100c1280 f   lcms:cmsnamed.obj
 0001:000c0500       _cmsAllocProfileSequenceDescription 100c1500 f   lcms:cmsnamed.obj
 0001:000c0590       _cmsFreeProfileSequenceDescription 100c1590 f   lcms:cmsnamed.obj
 0001:000c08a0       _cmsDupProfileSequenceDescription 100c18a0 f   lcms:cmsnamed.obj
 0001:000c09f0       _cmsDictAlloc              100c19f0 f   lcms:cmsnamed.obj
 0001:000c0a40       _cmsDictFree               100c1a40 f   lcms:cmsnamed.obj
 0001:000c0d50       _cmsDictAddEntry           100c1d50 f   lcms:cmsnamed.obj
 0001:000c0df0       _cmsDictDup                100c1df0 f   lcms:cmsnamed.obj
 0001:000c4e50       __cmsGetFormatter          100c5e50 f   lcms:cmspack.obj
 0001:000c4ed0       _cmsFloat2LabEncoded       100c5ed0 f   lcms:cmspcs.obj
 0001:000c5040       _cmsFloat2XYZEncoded       100c6040 f   lcms:cmspcs.obj
 0001:000c51b0       __cmsReasonableGridpointsByColorspace 100c61b0 f   lcms:cmspcs.obj
 0001:000c5220       __cmsICCcolorSpace         100c6220 f   lcms:cmspcs.obj
 0001:000c5350       __cmsLCMScolorSpace        100c6350 f   lcms:cmspcs.obj
 0001:000c55b0       _cmsChannelsOf             100c65b0 f   lcms:cmspcs.obj
 0001:000c57a0       __cmsReadMediaWhitePoint   100c67a0 f   lcms:cmsio1.obj
 0001:000c5810       __cmsReadCHAD              100c6810 f   lcms:cmsio1.obj
 0001:000c5f90       __cmsReadInputLUT          100c6f90 f   lcms:cmsio1.obj
 0001:000c6850       __cmsReadOutputLUT         100c7850 f   lcms:cmsio1.obj
 0001:000c6b20       __cmsReadDevicelinkLUT     100c7b20 f   lcms:cmsio1.obj
 0001:000c6d20       _cmsIsMatrixShaper         100c7d20 f   lcms:cmsio1.obj
 0001:000c6de0       __cmsCompileProfileSequence 100c7de0 f   lcms:cmsio1.obj
 0001:000c9380       __cmsLinkProfiles          100ca380 f   lcms:cmscnvrt.obj
 0001:000c9500       __cmsMAT3isIdentity        100ca500 f   lcms:cmsmtrx.obj
 0001:000c95d0       __cmsMAT3per               100ca5d0 f   lcms:cmsmtrx.obj
 0001:000c9740       __cmsMAT3inverse           100ca740 f   lcms:cmsmtrx.obj
 0001:000c98c0       __cmsSetInterpolationRoutine 100ca8c0 f   lcms:cmsintrp.obj
 0001:000c9930       __cmsComputeInterpParamsEx 100ca930 f   lcms:cmsintrp.obj
 0001:000c9a80       __cmsComputeInterpParams   100caa80 f   lcms:cmsintrp.obj
 0001:000ccbb0       _cmsDetectBlackPoint       100cdbb0 f   lcms:cmssamp.obj
 0001:000cd110       _cmsDetectDestinationBlackPoint 100ce110 f   lcms:cmssamp.obj
 0001:000cd900       _TIFFNumberOfStrips        100ce900 f   libTIFF:tif_strip.obj
 0001:000cd980       _TIFFVStripSize64          100ce980 f   libTIFF:tif_strip.obj
 0001:000cdb40       _TIFFStripSize             100ceb40 f   libTIFF:tif_strip.obj
 0001:000cdb90       __TIFFDefaultStripSize     100ceb90 f   libTIFF:tif_strip.obj
 0001:000cdc00       _TIFFScanlineSize64        100cec00 f   libTIFF:tif_strip.obj
 0001:000cdd90       _TIFFScanlineSize          100ced90 f   libTIFF:tif_strip.obj
 0001:000cdde0       _TIFFClientOpen            100cede0 f   libTIFF:tif_open.obj
 0001:000ce4e0       _TIFFErrorExt              100cf4e0 f   libTIFF:tif_error.obj
 0001:000ce520       _TIFFWriteScanline         100cf520 f   libTIFF:tif_write.obj
 0001:000ce780       _TIFFSetupStrips           100cf780 f   libTIFF:tif_write.obj
 0001:000ce850       _TIFFWriteCheck            100cf850 f   libTIFF:tif_write.obj
 0001:000ce950       _TIFFWriteBufferSetup      100cf950 f   libTIFF:tif_write.obj
 0001:000ced00       _TIFFFlushData1            100cfd00 f   libTIFF:tif_write.obj
 0001:000cedf0       __TIFFsetNString           100cfdf0 f   libTIFF:tif_dir.obj
 0001:000cee40       __TIFFsetShortArray        100cfe40 f   libTIFF:tif_dir.obj
 0001:000ceea0       __TIFFsetLong8Array        100cfea0 f   libTIFF:tif_dir.obj
 0001:000ceea0       __TIFFsetDoubleArray       100cfea0 f   libTIFF:tif_dir.obj
 0001:000cef00       __TIFFsetFloatArray        100cff00 f   libTIFF:tif_dir.obj
 0001:000cfe20       _TIFFSetField              100d0e20 f   libTIFF:tif_dir.obj
 0001:000d0720       _TIFFGetField              100d1720 f   libTIFF:tif_dir.obj
 0001:000d0780       _TIFFFreeDirectory         100d1780 f   libTIFF:tif_dir.obj
 0001:000d0980       _TIFFDefaultDirectory      100d1980 f   libTIFF:tif_dir.obj
 0001:000d0de0       _TIFFSetDirectory          100d1de0 f   libTIFF:tif_dir.obj
 0001:000d0e80       _TIFFRGBAImageOK           100d1e80 f   libTIFF:tif_getimage.obj
 0001:000d1140       _TIFFRGBAImageEnd          100d2140 f   libTIFF:tif_getimage.obj
 0001:000d1270       _TIFFRGBAImageBegin        100d2270 f   libTIFF:tif_getimage.obj
 0001:000d1800       _TIFFReadRGBAImageOriented 100d2800 f   libTIFF:tif_getimage.obj
 0001:000d7bd0       __TIFFMultiply32           100d8bd0 f   libTIFF:tif_aux.obj
 0001:000d7c20       __TIFFMultiply64           100d8c20 f   libTIFF:tif_aux.obj
 0001:000d7ca0       __TIFFCheckMalloc          100d8ca0 f   libTIFF:tif_aux.obj
 0001:000d7fc0       _TIFFVGetFieldDefaulted    100d8fc0 f   libTIFF:tif_aux.obj
 0001:000d8400       _TIFFGetFieldDefaulted     100d9400 f   libTIFF:tif_aux.obj
 0001:000d8420       _TIFFCleanup               100d9420 f   libTIFF:tif_close.obj
 0001:000d85a0       _TIFFWarningExt            100d95a0 f   libTIFF:tif_warning.obj
 0001:000d85e0       _TIFFReadEncodedStrip      100d95e0 f   libTIFF:tif_read.obj
 0001:000d8870       _TIFFFillStrip             100d9870 f   libTIFF:tif_read.obj
 0001:000d8b10       _TIFFReadTile              100d9b10 f   libTIFF:tif_read.obj
 0001:000d8b90       _TIFFReadEncodedTile       100d9b90 f   libTIFF:tif_read.obj
 0001:000d8dc0       _TIFFFillTile              100d9dc0 f   libTIFF:tif_read.obj
 0001:000d9010       _TIFFReadBufferSetup       100da010 f   libTIFF:tif_read.obj
 0001:000d9260       __TIFFSwab16BitData        100da260 f   libTIFF:tif_read.obj
 0001:000d9290       __TIFFSwab24BitData        100da290 f   libTIFF:tif_read.obj
 0001:000d92d0       __TIFFSwab32BitData        100da2d0 f   libTIFF:tif_read.obj
 0001:000d92f0       __TIFFSwab64BitData        100da2f0 f   libTIFF:tif_read.obj
 0001:000dce50       _TIFFReadDirectory         100dde50 f   libTIFF:tif_dirread.obj
 0001:000df1e0       _TIFFSwabLong8             100e01e0 f   libTIFF:tif_swab.obj
 0001:000df220       _TIFFSwabArrayOfShort      100e0220 f   libTIFF:tif_swab.obj
 0001:000df240       _TIFFSwabArrayOfFloat      100e0240 f   libTIFF:tif_swab.obj
 0001:000df240       _TIFFSwabArrayOfLong       100e0240 f   libTIFF:tif_swab.obj
 0001:000df280       _TIFFSwabArrayOfDouble     100e0280 f   libTIFF:tif_swab.obj
 0001:000df280       _TIFFSwabArrayOfLong8      100e0280 f   libTIFF:tif_swab.obj
 0001:000df2d0       _TIFFReverseBits           100e02d0 f   libTIFF:tif_swab.obj
 0001:000df390       __TIFFNoRowEncode          100e0390 f   libTIFF:tif_compress.obj
 0001:000df3d0       __TIFFNoStripEncode        100e03d0 f   libTIFF:tif_compress.obj
 0001:000df410       __TIFFNoTileEncode         100e0410 f   libTIFF:tif_compress.obj
 0001:000df450       __TIFFNoPreCode            100e0450 f   libTIFF:tif_compress.obj
 0001:000df450       ?numScanLines@RleCompressor@Imf@@UBEHXZ 100e0450 f   OpenExr:ImfRleCompressor.obj
 0001:000df450       __TIFFNoFixupTags          100e0450 f   libTIFF:tif_compress.obj
 0001:000df450       ?format@Compressor@Imf@@UBE?AW4Format@12@XZ 100e0450 f   OpenExr:ImfCompressor.obj
 0001:000df460       __TIFFNoRowDecode          100e0460 f   libTIFF:tif_compress.obj
 0001:000df4a0       __TIFFNoStripDecode        100e04a0 f   libTIFF:tif_compress.obj
 0001:000df4e0       __TIFFNoTileDecode         100e04e0 f   libTIFF:tif_compress.obj
 0001:000df520       __TIFFNoSeek               100e0520 f   libTIFF:tif_compress.obj
 0001:000df540       __TIFFSetDefaultCompressionState 100e0540 f   libTIFF:tif_compress.obj
 0001:000df610       _TIFFFindCODEC             100e0610 f   libTIFF:tif_compress.obj
 0001:000df660       __TIFFmemcmp               100e0660 f   libTIFF:tif_win32.obj
 0001:000df6c0       _TIFFComputeTile           100e06c0 f   libTIFF:tif_tile.obj
 0001:000df7d0       _TIFFCheckTile             100e07d0 f   libTIFF:tif_tile.obj
 0001:000df880       _TIFFNumberOfTiles         100e0880 f   libTIFF:tif_tile.obj
 0001:000df990       _TIFFTileRowSize64         100e0990 f   libTIFF:tif_tile.obj
 0001:000dfa10       _TIFFTileRowSize           100e0a10 f   libTIFF:tif_tile.obj
 0001:000dfa60       _TIFFVTileSize64           100e0a60 f   libTIFF:tif_tile.obj
 0001:000dfc30       _TIFFTileSize              100e0c30 f   libTIFF:tif_tile.obj
 0001:000dfc70       __TIFFDefaultTileSize      100e0c70 f   libTIFF:tif_tile.obj
 0001:000dfcd0       _TIFFFlush                 100e0cd0 f   libTIFF:tif_flush.obj
 0001:000dfe40       _TIFFFlushData             100e0e40 f   libTIFF:tif_flush.obj
 0001:000dfe80       __TIFFSetupFields          100e0e80 f   libTIFF:tif_dirinfo.obj
 0001:000e0100       __TIFFMergeFields          100e1100 f   libTIFF:tif_dirinfo.obj
 0001:000e0260       _TIFFDataWidth             100e1260 f   libTIFF:tif_dirinfo.obj
 0001:000e02c0       __TIFFDataSize             100e12c0 f   libTIFF:tif_dirinfo.obj
 0001:000e0320       _TIFFFindField             100e1320 f   libTIFF:tif_dirinfo.obj
 0001:000e03b0       _TIFFFieldWithTag          100e13b0 f   libTIFF:tif_dirinfo.obj
 0001:000e03f0       __TIFFCreateAnonField      100e13f0 f   libTIFF:tif_dirinfo.obj
 0001:000e05b0       _TIFFXYZToRGB              100e15b0 f   libTIFF:tif_color.obj
 0001:000e0790       _TIFFCIELabToRGBInit       100e1790 f   libTIFF:tif_color.obj
 0001:000e09b0       _TIFFYCbCrtoRGB            100e19b0 f   libTIFF:tif_color.obj
 0001:000e0a70       _TIFFYCbCrToRGBInit        100e1a70 f   libTIFF:tif_color.obj
 0001:000e0da0       _TIFFRewriteDirectory      100e1da0 f   libTIFF:tif_dirwrite.obj
 0001:000e3da0       __TIFFRewriteField         100e4da0 f   libTIFF:tif_dirwrite.obj
 0001:000e5a40       __TIFFFax3fillruns         100e6a40 f   libTIFF:tif_fax3.obj
 0001:000e7110       _TIFFInitCCITTFax3         100e8110 f   libTIFF:tif_fax3.obj
 0001:000e7ed0       _TIFFInitCCITTFax4         100e8ed0 f   libTIFF:tif_fax3.obj
 0001:000e8450       _TIFFInitCCITTRLE          100e9450 f   libTIFF:tif_fax3.obj
 0001:000e84a0       _TIFFInitCCITTRLEW         100e94a0 f   libTIFF:tif_fax3.obj
 0001:000e88c0       _TIFFInitThunderScan       100e98c0 f   libTIFF:tif_thunder.obj
 0001:000e9580       _LogL16fromY               100ea580 f   libTIFF:tif_luv.obj
 0001:000e9a20       _XYZtoRGB24                100eaa20 f   libTIFF:tif_luv.obj
 0001:000ea080       _uv_encode                 100eb080 f   libTIFF:tif_luv.obj
 0001:000ea1d0       _uv_decode                 100eb1d0 f   libTIFF:tif_luv.obj
 0001:000ea290       _LogLuv24toXYZ             100eb290 f   libTIFF:tif_luv.obj
 0001:000eaa40       _LogLuv32toXYZ             100eba40 f   libTIFF:tif_luv.obj
 0001:000eb980       _TIFFInitSGILog            100ec980 f   libTIFF:tif_luv.obj
 0001:000ecb70       _TIFFInitLZW               100edb70 f   libTIFF:tif_lzw.obj
 0001:000ed310       _TIFFInitPackBits          100ee310 f   libTIFF:tif_packbits.obj
 0001:000ed550       _TIFFInitNeXT              100ee550 f   libTIFF:tif_next.obj
 0001:000ed730       _TIFFInitDumpMode          100ee730 f   libTIFF:tif_dumpmode.obj
 0001:000ee590       _TIFFPredictorInit         100ef590 f   libTIFF:tif_predict.obj
 0001:000ee650       ??_Gfailure@ios_base@std@@UAEPAXI@Z 100ef650 f i IlmBase:half.obj
 0001:000ee650       ??_Eruntime_error@std@@UAEPAXI@Z 100ef650 f i * CIL library *:* CIL module *
 0001:000ee650       ??_Gsystem_error@std@@UAEPAXI@Z 100ef650 f i IlmBase:half.obj
 0001:000ee650       ??_G_System_error@std@@UAEPAXI@Z 100ef650 f i IlmBase:half.obj
 0001:000ee650       ??_Esystem_error@std@@UAEPAXI@Z 100ef650 f i * CIL library *:* CIL module *
 0001:000ee650       ??_Efailure@ios_base@std@@UAEPAXI@Z 100ef650 f i * CIL library *:* CIL module *
 0001:000ee650       ??_E_System_error@std@@UAEPAXI@Z 100ef650 f i * CIL library *:* CIL module *
 0001:000ee650       ??_Gruntime_error@std@@UAEPAXI@Z 100ef650 f i IlmBase:half.obj
 0001:000ee680       ??1failure@ios_base@std@@UAE@XZ 100ef680 f i IlmBase:half.obj
 0001:000ee680       ??1length_error@std@@UAE@XZ 100ef680 f i libcpmt:xthrow.obj
 0001:000ee680       ??1out_of_range@std@@UAE@XZ 100ef680 f i libcpmt:xthrow.obj
 0001:000ee680       ??1runtime_error@std@@UAE@XZ 100ef680 f i IlmBase:half.obj
 0001:000ee690       ??0_Locinfo@std@@QAE@PBD@Z 100ef690 f i IlmBase:half.obj
 0001:000ee750       ??1_Locinfo@std@@QAE@XZ    100ef750 f i IlmBase:half.obj
 0001:000ee7f0       ??0runtime_error@std@@QAE@ABV01@@Z 100ef7f0 f i IlmBase:half.obj
 0001:000ee810       ??_E?$num_put@DV?$ostreambuf_iterator@DU?$char_traits@D@std@@@std@@@std@@MAEPAXI@Z 100ef810 f i * CIL library *:* CIL module *
 0001:000ee810       ??_G?$num_put@DV?$ostreambuf_iterator@DU?$char_traits@D@std@@@std@@@std@@MAEPAXI@Z 100ef810 f i IlmBase:half.obj
 0001:000ee810       ??_G_Facet_base@std@@UAEPAXI@Z 100ef810 f i IlmBase:half.obj
 0001:000ee810       ??_E_Facet_base@std@@UAEPAXI@Z 100ef810 f i * CIL library *:* CIL module *
 0001:000ee840       ?_Incref@facet@locale@std@@UAEXXZ 100ef840 f i IlmBase:half.obj
 0001:000ee850       ?_Decref@facet@locale@std@@UAEPAV_Facet_base@3@XZ 100ef850 f i IlmBase:half.obj
 0001:000ee870       ??1facet@locale@std@@MAE@XZ 100ef870 f i IlmBase:half.obj
 0001:000ee880       ??1locale@std@@QAE@XZ      100ef880 f i IlmBase:half.obj
 0001:000ee8a0       ?_Getcat@?$ctype@D@std@@SAIPAPBVfacet@locale@2@PBV42@@Z 100ef8a0 f i IlmBase:half.obj
 0001:000ee970       ?do_tolower@?$ctype@D@std@@MBEDD@Z 100ef970 f i IlmBase:half.obj
 0001:000ee990       ?do_tolower@?$ctype@D@std@@MBEPBDPADPBD@Z 100ef990 f i IlmBase:half.obj
 0001:000ee9e0       ?do_toupper@?$ctype@D@std@@MBEDD@Z 100ef9e0 f i IlmBase:half.obj
 0001:000eea00       ?do_toupper@?$ctype@D@std@@MBEPBDPADPBD@Z 100efa00 f i IlmBase:half.obj
 0001:000eea50       ?do_widen@?$ctype@D@std@@MBEDD@Z 100efa50 f i IlmBase:half.obj
 0001:000eea60       ?do_widen@?$ctype@D@std@@MBEPBDPBD0PAD@Z 100efa60 f i IlmBase:half.obj
 0001:000eea80       ?do_narrow@?$ctype@D@std@@MBEDDD@Z 100efa80 f i IlmBase:half.obj
 0001:000eea90       ?do_narrow@?$ctype@D@std@@MBEPBDPBD0DPAD@Z 100efa90 f i IlmBase:half.obj
 0001:000eeab0       ??_G?$ctype@D@std@@MAEPAXI@Z 100efab0 f i IlmBase:half.obj
 0001:000eeab0       ??_E?$ctype@D@std@@MAEPAXI@Z 100efab0 f i * CIL library *:* CIL module *
 0001:000eeb10       ?message@error_code@std@@QBE?AV?$basic_string@DU?$char_traits@D@std@@V?$allocator@D@2@@2@XZ 100efb10 f i IlmBase:half.obj
 0001:000eeb40       ?_Makestr@_System_error@std@@CA?AV?$basic_string@DU?$char_traits@D@std@@V?$allocator@D@2@@2@Verror_code@2@V32@@Z 100efb40 f i IlmBase:half.obj
 0001:000eec00       ??0_System_error@std@@IAE@Verror_code@1@ABV?$basic_string@DU?$char_traits@D@std@@V?$allocator@D@2@@1@@Z 100efc00 f i IlmBase:half.obj
 0001:000eecd0       ??0system_error@std@@QAE@Verror_code@1@PBD@Z 100efcd0 f i IlmBase:half.obj
 0001:000eed90       ?clear@ios_base@std@@QAEXH_N@Z 100efd90 f i IlmBase:half.obj
 0001:000eee40       ?getloc@ios_base@std@@QBE?AVlocale@2@XZ 100efe40 f i IlmBase:half.obj
 0001:000eee60       ??0failure@ios_base@std@@QAE@ABV012@@Z 100efe60 f i IlmBase:half.obj
 0001:000eee90       ??0system_error@std@@QAE@ABV01@@Z 100efe90 f i IlmBase:half.obj
 0001:000eeec0       ??0_System_error@std@@QAE@ABV01@@Z 100efec0 f i IlmBase:half.obj
 0001:000eeef0       ?convert@half@@CAFH@Z      100efef0 f   IlmBase:half.obj
 0001:000eeff0       ??0?$basic_string@DU?$char_traits@D@std@@V?$allocator@D@2@@std@@QAE@$$QAV01@@Z 100efff0 f i IlmBase:half.obj
 0001:000ef060       ??1?$_Yarn@D@std@@QAE@XZ   100f0060 f i IlmBase:half.obj
 0001:000ef060       ??1?$_Yarn@_W@std@@QAE@XZ  100f0060 f i IlmBase:half.obj
 0001:000ef080       ?append@?$basic_string@DU?$char_traits@D@std@@V?$allocator@D@2@@std@@QAEAAV12@ABV12@II@Z 100f0080 f i IlmBase:half.obj
 0001:000ef140       ?append@?$basic_string@DU?$char_traits@D@std@@V?$allocator@D@2@@std@@QAEAAV12@PBDI@Z 100f0140 f i IlmBase:half.obj
 0001:000ef230       ?_Gnavail@?$basic_streambuf@DU?$char_traits@D@std@@@std@@IBE_JXZ 100f0230 f i IlmBase:half.obj
 0001:000ef250       ?_Pnavail@?$basic_streambuf@DU?$char_traits@D@std@@@std@@IBE_JXZ 100f0250 f i IlmBase:half.obj
 0001:000ef270       ??0sentry@?$basic_ostream@DU?$char_traits@D@std@@@std@@QAE@AAV12@@Z 100f0270 f i IlmBase:half.obj
 0001:000ef300       ??1sentry@?$basic_ostream@DU?$char_traits@D@std@@@std@@QAE@XZ 100f0300 f i IlmBase:half.obj
 0001:000ef330       ?do_put@?$num_put@DV?$ostreambuf_iterator@DU?$char_traits@D@std@@@std@@@std@@MBE?AV?$ostreambuf_iterator@DU?$char_traits@D@std@@@2@V32@AAVios_base@2@D_N@Z 100f0330 f i IlmBase:half.obj
 0001:000ef550       ?do_put@?$num_put@DV?$ostreambuf_iterator@DU?$char_traits@D@std@@@std@@@std@@MBE?AV?$ostreambuf_iterator@DU?$char_traits@D@std@@@2@V32@AAVios_base@2@DJ@Z 100f0550 f i IlmBase:half.obj
 0001:000ef5d0       ?do_put@?$num_put@DV?$ostreambuf_iterator@DU?$char_traits@D@std@@@std@@@std@@MBE?AV?$ostreambuf_iterator@DU?$char_traits@D@std@@@2@V32@AAVios_base@2@DK@Z 100f05d0 f i IlmBase:half.obj
 0001:000ef650       ?do_put@?$num_put@DV?$ostreambuf_iterator@DU?$char_traits@D@std@@@std@@@std@@MBE?AV?$ostreambuf_iterator@DU?$char_traits@D@std@@@2@V32@AAVios_base@2@D_J@Z 100f0650 f i IlmBase:half.obj
 0001:000ef6d0       ?do_put@?$num_put@DV?$ostreambuf_iterator@DU?$char_traits@D@std@@@std@@@std@@MBE?AV?$ostreambuf_iterator@DU?$char_traits@D@std@@@2@V32@AAVios_base@2@D_K@Z 100f06d0 f i IlmBase:half.obj
 0001:000ef750       ?do_put@?$num_put@DV?$ostreambuf_iterator@DU?$char_traits@D@std@@@std@@@std@@MBE?AV?$ostreambuf_iterator@DU?$char_traits@D@std@@@2@V32@AAVios_base@2@DN@Z 100f0750 f i IlmBase:half.obj
 0001:000ef910       ?do_put@?$num_put@DV?$ostreambuf_iterator@DU?$char_traits@D@std@@@std@@@std@@MBE?AV?$ostreambuf_iterator@DU?$char_traits@D@std@@@2@V32@AAVios_base@2@DO@Z 100f0910 f i IlmBase:half.obj
 0001:000efac0       ?do_put@?$num_put@DV?$ostreambuf_iterator@DU?$char_traits@D@std@@@std@@@std@@MBE?AV?$ostreambuf_iterator@DU?$char_traits@D@std@@@2@V32@AAVios_base@2@DPBX@Z 100f0ac0 f i IlmBase:half.obj
 0001:000efb30       ?_Osfx@?$basic_ostream@DU?$char_traits@D@std@@@std@@QAEXXZ 100f0b30 f i IlmBase:half.obj
 0001:000efbc0       ?flush@?$basic_ostream@DU?$char_traits@D@std@@@std@@QAEAAV12@XZ 100f0bc0 f i IlmBase:half.obj
 0001:000efc90       ??1_Sentry_base@?$basic_ostream@DU?$char_traits@D@std@@@std@@QAE@XZ 100f0c90 f i IlmBase:half.obj
 0001:000efcb0       ?_Ffmt@?$num_put@DV?$ostreambuf_iterator@DU?$char_traits@D@std@@@std@@@std@@ABAPADPADDH@Z 100f0cb0 f i IlmBase:half.obj
 0001:000efd70       ?_Fput@?$num_put@DV?$ostreambuf_iterator@DU?$char_traits@D@std@@@std@@@std@@ABA?AV?$ostreambuf_iterator@DU?$char_traits@D@std@@@2@V32@AAVios_base@2@DPBDIIII@Z 100f0d70 f i IlmBase:half.obj
 0001:000f01f0       ?_Ifmt@?$num_put@DV?$ostreambuf_iterator@DU?$char_traits@D@std@@@std@@@std@@ABAPADPADPBDH@Z 100f11f0 f i IlmBase:half.obj
 0001:000f0280       ?_Iput@?$num_put@DV?$ostreambuf_iterator@DU?$char_traits@D@std@@@std@@@std@@ABA?AV?$ostreambuf_iterator@DU?$char_traits@D@std@@@2@V32@AAVios_base@2@DPADI@Z 100f1280 f i IlmBase:half.obj
 0001:000f0620       ?_Put@?$num_put@DV?$ostreambuf_iterator@DU?$char_traits@D@std@@@std@@@std@@ABA?AV?$ostreambuf_iterator@DU?$char_traits@D@std@@@2@V32@PBDI@Z 100f1620 f i IlmBase:half.obj
 0001:000f0690       ?_Rep@?$num_put@DV?$ostreambuf_iterator@DU?$char_traits@D@std@@@std@@@std@@ABA?AV?$ostreambuf_iterator@DU?$char_traits@D@std@@@2@V32@DI@Z 100f1690 f i IlmBase:half.obj
 0001:000f0700       ?falsename@?$numpunct@D@std@@QBE?AV?$basic_string@DU?$char_traits@D@std@@V?$allocator@D@2@@2@XZ 100f1700 f i IlmBase:half.obj
 0001:000f0720       ?truename@?$numpunct@D@std@@QBE?AV?$basic_string@DU?$char_traits@D@std@@V?$allocator@D@2@@2@XZ 100f1720 f i IlmBase:half.obj
 0001:000f0740       ?do_decimal_point@?$numpunct@D@std@@MBEDXZ 100f1740 f i IlmBase:half.obj
 0001:000f0750       ?do_thousands_sep@?$numpunct@D@std@@MBEDXZ 100f1750 f i IlmBase:half.obj
 0001:000f0760       ?do_grouping@?$numpunct@D@std@@MBE?AV?$basic_string@DU?$char_traits@D@std@@V?$allocator@D@2@@2@XZ 100f1760 f i IlmBase:half.obj
 0001:000f07c0       ?do_falsename@?$numpunct@D@std@@MBE?AV?$basic_string@DU?$char_traits@D@std@@V?$allocator@D@2@@2@XZ 100f17c0 f i IlmBase:half.obj
 0001:000f0820       ?do_truename@?$numpunct@D@std@@MBE?AV?$basic_string@DU?$char_traits@D@std@@V?$allocator@D@2@@2@XZ 100f1820 f i IlmBase:half.obj
 0001:000f0880       ??_G?$numpunct@D@std@@MAEPAXI@Z 100f1880 f i IlmBase:half.obj
 0001:000f0880       ??_E?$numpunct@D@std@@MAEPAXI@Z 100f1880 f i * CIL library *:* CIL module *
 0001:000f08d0       ?append@?$basic_string@DU?$char_traits@D@std@@V?$allocator@D@2@@std@@QAEAAV12@ID@Z 100f18d0 f i IlmBase:half.obj
 0001:000f0980       ?assign@?$basic_string@DU?$char_traits@D@std@@V?$allocator@D@2@@std@@QAEAAV12@ID@Z 100f1980 f i IlmBase:half.obj
 0001:000f0a50       ?insert@?$basic_string@DU?$char_traits@D@std@@V?$allocator@D@2@@std@@QAEAAV12@IID@Z 100f1a50 f i IlmBase:half.obj
 0001:000f0b10       ?grouping@?$numpunct@D@std@@QBE?AV?$basic_string@DU?$char_traits@D@std@@V?$allocator@D@2@@2@XZ 100f1b10 f i IlmBase:half.obj
 0001:000f0b30       ?_Tidy@?$numpunct@D@std@@AAEXXZ 100f1b30 f i IlmBase:half.obj
 0001:000f0b50       ?_Chassign@?$basic_string@DU?$char_traits@D@std@@V?$allocator@D@2@@std@@QAEXIID@Z 100f1b50 f i IlmBase:half.obj
 0001:000f0ba0       ??$use_facet@V?$ctype@D@std@@@std@@YAABV?$ctype@D@0@ABVlocale@0@@Z 100f1ba0 f i IlmBase:half.obj
 0001:000f0cc0       ??$use_facet@V?$num_put@DV?$ostreambuf_iterator@DU?$char_traits@D@std@@@std@@@std@@@std@@YAABV?$num_put@DV?$ostreambuf_iterator@DU?$char_traits@D@std@@@std@@@0@ABVlocale@0@@Z 100f1cc0 f i IlmBase:half.obj
 0001:000f0de0       ??$use_facet@V?$numpunct@D@std@@@std@@YAABV?$numpunct@D@0@ABVlocale@0@@Z 100f1de0 f i IlmBase:half.obj
 0001:000f0f00       ?_Getcat@?$num_put@DV?$ostreambuf_iterator@DU?$char_traits@D@std@@@std@@@std@@SAIPAPBVfacet@locale@2@PBV42@@Z 100f1f00 f i IlmBase:half.obj
 0001:000f0fb0       ?_Getcat@?$numpunct@D@std@@SAIPAPBVfacet@locale@2@PBV42@@Z 100f1fb0 f i IlmBase:half.obj
 0001:000f1070       ?_Init@?$numpunct@D@std@@IAEXABV_Locinfo@2@_N@Z 100f2070 f i IlmBase:half.obj
 0001:000f11d0       ??1InputExc@Iex@@UAE@XZ    100f21d0 f i OpenExr:ImfIO.obj
 0001:000f11e0       ??_EInputExc@Iex@@UAEPAXI@Z 100f21e0 f i * CIL library *:* CIL module *
 0001:000f11e0       ??_GInputExc@Iex@@UAEPAXI@Z 100f21e0 f i OpenExr:ImfIO.obj
 0001:000f1210       ?readMemoryMapped@IStream@Imf@@UAEPADH@Z 100f2210 f   OpenExr:ImfIO.obj
 0001:000f1250       ??0InputExc@Iex@@QAE@ABV01@@Z 100f2250 f i OpenExr:ImfIO.obj
 0001:000f1270       ?fileName@OStream@Imf@@QBEPBDXZ 100f2270 f   OpenExr:ImfIO.obj
 0001:000f1270       ?fileName@IStream@Imf@@QBEPBDXZ 100f2270 f   OpenExr:ImfIO.obj
 0001:000f1280       ?globalThreadCount@Imf@@YAHXZ 100f2280 f   OpenExr:ImfThreading.obj
 0001:000f1310       ?_Init@ios_base@std@@IAEXXZ 100f2310 f i OpenExr:ImfRgbaFile.obj
 0001:000f13a0       ??_G?$basic_ios@DU?$char_traits@D@std@@@std@@UAEPAXI@Z 100f23a0 f i OpenExr:ImfRgbaFile.obj
 0001:000f13a0       ??_E?$basic_ios@DU?$char_traits@D@std@@@std@@UAEPAXI@Z 100f23a0 f i * CIL library *:* CIL module *
 0001:000f13a0       ??_Gios_base@std@@UAEPAXI@Z 100f23a0 f i OpenExr:ImfRgbaFile.obj
 0001:000f13a0       ??_Eios_base@std@@UAEPAXI@Z 100f23a0 f i * CIL library *:* CIL module *
 0001:000f13d0       ??1ArgExc@Iex@@UAE@XZ      100f23d0 f i OpenExr:ImfRgbaFile.obj
 0001:000f13e0       ??_EArgExc@Iex@@UAEPAXI@Z  100f23e0 f i * CIL library *:* CIL module *
 0001:000f13e0       ??_GArgExc@Iex@@UAEPAXI@Z  100f23e0 f i OpenExr:ImfRgbaFile.obj
 0001:000f1410       ?divp@Imath@@YAHHH@Z       100f2410 f i OpenExr:ImfRgbaFile.obj
 0001:000f1440       ?modp@Imath@@YAHHH@Z       100f2440 f i OpenExr:ImfRgbaFile.obj
 0001:000f1490       ??1Lock@IlmThread@@QAE@XZ  100f2490 f i OpenExr:ImfRgbaFile.obj
 0001:000f14b0       ?insertChannels@?A0xbabc46a8@Imf@@YAXAAVHeader@2@W4RgbaChannels@2@@Z 100f24b0 f   OpenExr:ImfRgbaFile.obj
 0001:000f1600       ??1ChannelList@Imf@@QAE@XZ 100f2600 f i OpenExr:ImfRgbaFile.obj
 0001:000f1600       ??1FrameBuffer@Imf@@QAE@XZ 100f2600 f i OpenExr:ImfRgbaFile.obj
 0001:000f1600       ??1?$map@HPAVGenericInputFile@Imf@@U?$less@H@std@@V?$allocator@U?$pair@$$CBHPAVGenericInputFile@Imf@@@std@@@4@@std@@QAE@XZ 100f2600 f i OpenExr:ImfMultiPartInputFile.obj
 0001:000f1600       ??1?$map@VName@Imf@@PAVAttribute@2@U?$less@VName@Imf@@@std@@V?$allocator@U?$pair@$$CBVName@Imf@@PAVAttribute@2@@std@@@5@@std@@QAE@XZ 100f2600 f i OpenExr:ImfHeader.obj
 0001:000f1600       ??1DeepFrameBuffer@Imf@@QAE@XZ 100f2600 f i OpenExr:ImfCompositeDeepScanLine.obj
 0001:000f1600       ??1?$map@PBDP6APAVAttribute@Imf@@XZUNameCompare@?A0x66f43113@2@V?$allocator@U?$pair@QBDP6APAVAttribute@Imf@@XZ@std@@@std@@@std@@QAE@XZ 100f2600 f i OpenExr:ImfAttribute.obj
 0001:000f1630       ?rgbaChannels@?A0xbabc46a8@Imf@@YA?AW4RgbaChannels@2@ABVChannelList@2@ABV?$basic_string@DU?$char_traits@D@std@@V?$allocator@D@2@@std@@@Z 100f2630 f   OpenExr:ImfRgbaFile.obj
 0001:000f18d0       ?ywFromHeader@?A0xbabc46a8@Imf@@YA?AV?$Vec3@M@Imath@@ABVHeader@2@@Z 100f28d0 f   OpenExr:ImfRgbaFile.obj
 0001:000f1ae0       ?cachePadding@?A0xbabc46a8@Imf@@YAHH@Z 100f2ae0 f   OpenExr:ImfRgbaFile.obj
 0001:000f1b50       ?setFrameBuffer@ToYca@RgbaOutputFile@Imf@@QAEXPBURgba@3@II@Z 100f2b50 f   OpenExr:ImfRgbaFile.obj
 0001:000f1d70       ?writePixels@ToYca@RgbaOutputFile@Imf@@QAEXH@Z 100f2d70 f   OpenExr:ImfRgbaFile.obj
 0001:000f2280       ??_D?$basic_stringstream@DU?$char_traits@D@std@@V?$allocator@D@2@@std@@QAEXXZ 100f3280 f i OpenExr:ImfRgbaFile.obj
 0001:000f22a0       ??0ArgExc@Iex@@QAE@ABV01@@Z 100f32a0 f i OpenExr:ImfRgbaFile.obj
 0001:000f22c0       ?padTmpBuf@ToYca@RgbaOutputFile@Imf@@AAEXXZ 100f32c0 f   OpenExr:ImfRgbaFile.obj
 0001:000f2340       ??_ERgbaOutputFile@Imf@@UAEPAXI@Z 100f3340 f i * CIL library *:* CIL module *
 0001:000f2340       ??_GRgbaOutputFile@Imf@@UAEPAXI@Z 100f3340 f i OpenExr:ImfRgbaFile.obj
 0001:000f2380       ??0RgbaOutputFile@Imf@@QAE@AAVOStream@1@ABVHeader@1@W4RgbaChannels@1@H@Z 100f3380 f   OpenExr:ImfRgbaFile.obj
 0001:000f2430       ??1RgbaOutputFile@Imf@@UAE@XZ 100f3430 f   OpenExr:ImfRgbaFile.obj
 0001:000f2460       ?setFrameBuffer@RgbaOutputFile@Imf@@QAEXPBURgba@2@II@Z 100f3460 f   OpenExr:ImfRgbaFile.obj
 0001:000f2650       ??0FromYca@RgbaInputFile@Imf@@QAE@AAVInputFile@2@W4RgbaChannels@2@@Z 100f3650 f   OpenExr:ImfRgbaFile.obj
 0001:000f2810       ??_GFromYca@RgbaInputFile@Imf@@UAEPAXI@Z 100f3810 f i OpenExr:ImfRgbaFile.obj
 0001:000f2810       ??_EFromYca@RgbaInputFile@Imf@@UAEPAXI@Z 100f3810 f i * CIL library *:* CIL module *
 0001:000f2860       ?setFrameBuffer@FromYca@RgbaInputFile@Imf@@QAEXPAURgba@3@IIABV?$basic_string@DU?$char_traits@D@std@@V?$allocator@D@2@@std@@@Z 100f3860 f   OpenExr:ImfRgbaFile.obj
 0001:000f2b50       ?readPixels@FromYca@RgbaInputFile@Imf@@QAEXHH@Z 100f3b50 f   OpenExr:ImfRgbaFile.obj
 0001:000f2ea0       ?readPixels@FromYca@RgbaInputFile@Imf@@AAEXH@Z 100f3ea0 f   OpenExr:ImfRgbaFile.obj
 0001:000f3190       ?rotateBuf1@FromYca@RgbaInputFile@Imf@@AAEXH@Z 100f4190 f   OpenExr:ImfRgbaFile.obj
 0001:000f3220       ?rotateBuf2@FromYca@RgbaInputFile@Imf@@AAEXH@Z 100f4220 f   OpenExr:ImfRgbaFile.obj
 0001:000f32d0       ?readYCAScanLine@FromYca@RgbaInputFile@Imf@@AAEXHQAURgba@3@@Z 100f42d0 f   OpenExr:ImfRgbaFile.obj
 0001:000f3390       ?padTmpBuf@FromYca@RgbaInputFile@Imf@@AAEXXZ 100f4390 f   OpenExr:ImfRgbaFile.obj
 0001:000f3410       ??_GRgbaInputFile@Imf@@UAEPAXI@Z 100f4410 f i OpenExr:ImfRgbaFile.obj
 0001:000f3410       ??_ERgbaInputFile@Imf@@UAEPAXI@Z 100f4410 f i * CIL library *:* CIL module *
 0001:000f34b0       ??0RgbaInputFile@Imf@@QAE@AAVIStream@1@H@Z 100f44b0 f   OpenExr:ImfRgbaFile.obj
 0001:000f35b0       ??1RgbaInputFile@Imf@@UAE@XZ 100f45b0 f   OpenExr:ImfRgbaFile.obj
 0001:000f3640       ?setFrameBuffer@RgbaInputFile@Imf@@QAEXPAURgba@2@II@Z 100f4640 f   OpenExr:ImfRgbaFile.obj
 0001:000f3900       ?readPixels@RgbaInputFile@Imf@@QAEXHH@Z 100f4900 f   OpenExr:ImfRgbaFile.obj
 0001:000f39a0       ??1?$basic_istream@DU?$char_traits@D@std@@@std@@UAE@XZ 100f49a0 f i OpenExr:ImfRgbaFile.obj
 0001:000f39c0       ??1?$basic_ios@DU?$char_traits@D@std@@@std@@UAE@XZ 100f49c0 f i OpenExr:ImfRgbaFile.obj
 0001:000f39d0       ??1?$basic_streambuf@DU?$char_traits@D@std@@@std@@UAE@XZ 100f49d0 f i OpenExr:ImfRgbaFile.obj
 0001:000f3a00       ?pbackfail@?$basic_streambuf@DU?$char_traits@D@std@@@std@@MAEHH@Z 100f4a00 f i OpenExr:ImfRgbaFile.obj
 0001:000f3a00       ?overflow@?$basic_streambuf@DU?$char_traits@D@std@@@std@@MAEHH@Z 100f4a00 f i OpenExr:ImfRgbaFile.obj
 0001:000f3a10       ?showmanyc@?$basic_streambuf@DU?$char_traits@D@std@@@std@@MAE_JXZ 100f4a10 f i OpenExr:ImfRgbaFile.obj
 0001:000f3a20       ?uflow@?$basic_streambuf@DU?$char_traits@D@std@@@std@@MAEHXZ 100f4a20 f i OpenExr:ImfRgbaFile.obj
 0001:000f3a50       ?xsgetn@?$basic_streambuf@DU?$char_traits@D@std@@@std@@MAE_JPAD_J@Z 100f4a50 f i OpenExr:ImfRgbaFile.obj
 0001:000f3b60       ?xsputn@?$basic_streambuf@DU?$char_traits@D@std@@@std@@MAE_JPBD_J@Z 100f4b60 f i OpenExr:ImfRgbaFile.obj
 0001:000f3c70       ?seekoff@?$basic_streambuf@DU?$char_traits@D@std@@@std@@MAE?AV?$fpos@H@2@_JHH@Z 100f4c70 f i OpenExr:ImfRgbaFile.obj
 0001:000f3ca0       ?seekpos@?$basic_streambuf@DU?$char_traits@D@std@@@std@@MAE?AV?$fpos@H@2@V32@H@Z 100f4ca0 f i OpenExr:ImfRgbaFile.obj
 0001:000f3cd0       ?setbuf@?$basic_streambuf@DU?$char_traits@D@std@@@std@@MAEPAV12@PAD_J@Z 100f4cd0 f i OpenExr:ImfRgbaFile.obj
 0001:000f3ce0       ??1?$basic_ostream@DU?$char_traits@D@std@@@std@@UAE@XZ 100f4ce0 f i OpenExr:ImfRgbaFile.obj
 0001:000f3d00       ??0?$basic_stringstream@DU?$char_traits@D@std@@V?$allocator@D@2@@std@@QAE@H@Z 100f4d00 f i OpenExr:ImfRgbaFile.obj
 0001:000f3db0       ??1?$basic_stringstream@DU?$char_traits@D@std@@V?$allocator@D@2@@std@@UAE@XZ 100f4db0 f i OpenExr:ImfRgbaFile.obj
 0001:000f3e60       ??1?$basic_iostream@DU?$char_traits@D@std@@@std@@UAE@XZ 100f4e60 f i OpenExr:ImfRgbaFile.obj
 0001:000f3ec0       ?overflow@?$basic_stringbuf@DU?$char_traits@D@std@@V?$allocator@D@2@@std@@MAEHH@Z 100f4ec0 f i OpenExr:ImfRgbaFile.obj
 0001:000f40a0       ?pbackfail@?$basic_stringbuf@DU?$char_traits@D@std@@V?$allocator@D@2@@std@@MAEHH@Z 100f50a0 f i OpenExr:ImfRgbaFile.obj
 0001:000f4100       ?underflow@?$basic_stringbuf@DU?$char_traits@D@std@@V?$allocator@D@2@@std@@MAEHXZ 100f5100 f i OpenExr:ImfRgbaFile.obj
 0001:000f4160       ?seekoff@?$basic_stringbuf@DU?$char_traits@D@std@@V?$allocator@D@2@@std@@MAE?AV?$fpos@H@2@_JHH@Z 100f5160 f i OpenExr:ImfRgbaFile.obj
 0001:000f4330       ?seekpos@?$basic_stringbuf@DU?$char_traits@D@std@@V?$allocator@D@2@@std@@MAE?AV?$fpos@H@2@V32@H@Z 100f5330 f i OpenExr:ImfRgbaFile.obj
 0001:000f4460       ??_G?$basic_istream@DU?$char_traits@D@std@@@std@@UAEPAXI@Z 100f5460 f i OpenExr:ImfRgbaFile.obj
 0001:000f4460       ??_E?$basic_istream@DU?$char_traits@D@std@@@std@@UAEPAXI@Z 100f5460 f i * CIL library *:* CIL module *
 0001:000f44b0       ??_E?$basic_streambuf@DU?$char_traits@D@std@@@std@@UAEPAXI@Z 100f54b0 f i * CIL library *:* CIL module *
 0001:000f44b0       ??_G?$basic_streambuf@DU?$char_traits@D@std@@@std@@UAEPAXI@Z 100f54b0 f i OpenExr:ImfRgbaFile.obj
 0001:000f4500       ??_E?$basic_ostream@DU?$char_traits@D@std@@@std@@UAEPAXI@Z 100f5500 f i * CIL library *:* CIL module *
 0001:000f4500       ??_G?$basic_ostream@DU?$char_traits@D@std@@@std@@UAEPAXI@Z 100f5500 f i OpenExr:ImfRgbaFile.obj
 0001:000f4550       ??_G?$basic_stringstream@DU?$char_traits@D@std@@V?$allocator@D@2@@std@@UAEPAXI@Z 100f5550 f i OpenExr:ImfRgbaFile.obj
 0001:000f4550       ??_E?$basic_stringstream@DU?$char_traits@D@std@@V?$allocator@D@2@@std@@UAEPAXI@Z 100f5550 f i * CIL library *:* CIL module *
 0001:000f4590       ??_E?$basic_iostream@DU?$char_traits@D@std@@@std@@UAEPAXI@Z 100f5590 f i * CIL library *:* CIL module *
 0001:000f4590       ??_G?$basic_iostream@DU?$char_traits@D@std@@@std@@UAEPAXI@Z 100f5590 f i OpenExr:ImfRgbaFile.obj
 0001:000f45c0       ??_G?$basic_stringbuf@DU?$char_traits@D@std@@V?$allocator@D@2@@std@@UAEPAXI@Z 100f55c0 f i OpenExr:ImfRgbaFile.obj
 0001:000f45c0       ??_E?$basic_stringbuf@DU?$char_traits@D@std@@V?$allocator@D@2@@std@@UAEPAXI@Z 100f55c0 f i * CIL library *:* CIL module *
 0001:000f4620       ??1?$_Tree_comp@$0A@V?$_Tmap_traits@VName@Imf@@UChannel@2@U?$less@VName@Imf@@@std@@V?$allocator@U?$pair@$$CBVName@Imf@@UChannel@2@@std@@@5@$0A@@std@@@std@@QAE@XZ 100f5620 f i OpenExr:ImfRgbaFile.obj
 0001:000f4630       ??_D?$basic_iostream@DU?$char_traits@D@std@@@std@@QAEXXZ 100f5630 f i OpenExr:ImfRgbaFile.obj
 0001:000f46a0       ?init@?$basic_ios@DU?$char_traits@D@std@@@std@@IAEXPAV?$basic_streambuf@DU?$char_traits@D@std@@@2@_N@Z 100f56a0 f i OpenExr:ImfRgbaFile.obj
 0001:000f4750       ??0?$basic_iostream@DU?$char_traits@D@std@@@std@@QAE@PAV?$basic_streambuf@DU?$char_traits@D@std@@@1@@Z 100f5750 f i OpenExr:ImfRgbaFile.obj
 0001:000f4800       ?_Tidy@?$basic_stringbuf@DU?$char_traits@D@std@@V?$allocator@D@2@@std@@IAEXXZ 100f5800 f i OpenExr:ImfRgbaFile.obj
 0001:000f4860       ??E?$_Tree_unchecked_const_iterator@V?$_Tree_val@U?$_Tree_simple_types@U?$pair@$$CBHPAVGenericInputFile@Imf@@@std@@@std@@@std@@U_Iterator_base0@2@@std@@QAEAAV01@XZ 100f5860 f i OpenExr:ImfMultiPartInputFile.obj
 0001:000f4860       ??E?$_Tree_unchecked_const_iterator@V?$_Tree_val@U?$_Tree_simple_types@U?$pair@$$CBV?$basic_string@DU?$char_traits@D@std@@V?$allocator@D@2@@std@@UCscChannelSet@DwaCompressor@Imf@@@std@@@std@@@std@@U_Iterator_base0@2@@std@@QAEAAV01@XZ 100f5860 f i OpenExr:ImfDwaCompressor.obj
 0001:000f4860       ??E?$_Tree_unchecked_const_iterator@V?$_Tree_val@U?$_Tree_simple_types@U?$pair@$$CBVName@Imf@@UDeepSlice@2@@std@@@std@@@std@@U_Iterator_base0@2@@std@@QAEAAV01@XZ 100f5860 f i OpenExr:ImfCompositeDeepScanLine.obj
 0001:000f4860       ??E?$_Tree_unchecked_const_iterator@V?$_Tree_val@U?$_Tree_simple_types@U?$pair@QBDP6APAVAttribute@Imf@@XZ@std@@@std@@@std@@U_Iterator_base0@2@@std@@QAEAAV01@XZ 100f5860 f i OpenExr:ImfAttribute.obj
 0001:000f4860       ??E?$_Tree_unchecked_const_iterator@V?$_Tree_val@U?$_Tree_simple_types@U?$pair@$$CBVName@Imf@@USlice@2@@std@@@std@@@std@@U_Iterator_base0@2@@std@@QAEAAV01@XZ 100f5860 f i OpenExr:ImfRgbaFile.obj
 0001:000f4860       ??E?$_Tree_unchecked_const_iterator@V?$_Tree_val@U?$_Tree_simple_types@U?$pair@$$CBVName@Imf@@UChannel@2@@std@@@std@@@std@@U_Iterator_base0@2@@std@@QAEAAV01@XZ 100f5860 f i OpenExr:ImfRgbaFile.obj
 0001:000f4860       ??E?$_Tree_unchecked_const_iterator@V?$_Tree_val@U?$_Tree_simple_types@U?$pair@$$CBVName@Imf@@PAVAttribute@2@@std@@@std@@@std@@U_Iterator_base0@2@@std@@QAEAAV01@XZ 100f5860 f i OpenExr:ImfHeader.obj
 0001:000f4860       ??E?$_Tree_unchecked_const_iterator@V?$_Tree_val@U?$_Tree_simple_types@V?$basic_string@DU?$char_traits@D@std@@V?$allocator@D@2@@std@@@std@@@std@@U_Iterator_base0@2@@std@@QAEAAV01@XZ 100f5860 f i OpenExr:ImfMultiPartInputFile.obj
 0001:000f48b0       ??0?$basic_streambuf@DU?$char_traits@D@std@@@std@@IAE@XZ 100f58b0 f i OpenExr:ImfRgbaFile.obj
 0001:000f4940       ?erase@?$_Tree@V?$_Tmap_traits@VName@Imf@@UChannel@2@U?$less@VName@Imf@@@std@@V?$allocator@U?$pair@$$CBVName@Imf@@UChannel@2@@std@@@5@$0A@@std@@@std@@QAE?AV?$_Tree_iterator@V?$_Tree_val@U?$_Tree_simple_types@U?$pair@$$CBVName@Imf@@UChannel@2@@std@@@std@@@std@@@2@V?$_Tree_const_iterator@V?$_Tree_val@U?$_Tree_simple_types@U?$pair@$$CBVName@Imf@@UChannel@2@@std@@@std@@@std@@@2@0@Z 100f5940 f i OpenExr:ImfRgbaFile.obj
 0001:000f4940       ?erase@?$_Tree@V?$_Tmap_traits@VName@Imf@@USlice@2@U?$less@VName@Imf@@@std@@V?$allocator@U?$pair@$$CBVName@Imf@@USlice@2@@std@@@5@$0A@@std@@@std@@QAE?AV?$_Tree_iterator@V?$_Tree_val@U?$_Tree_simple_types@U?$pair@$$CBVName@Imf@@USlice@2@@std@@@std@@@std@@@2@V?$_Tree_const_iterator@V?$_Tree_val@U?$_Tree_simple_types@U?$pair@$$CBVName@Imf@@USlice@2@@std@@@std@@@std@@@2@0@Z 100f5940 f i OpenExr:ImfRgbaFile.obj
 0001:000f4940       ?erase@?$_Tree@V?$_Tmap_traits@VName@Imf@@UDeepSlice@2@U?$less@VName@Imf@@@std@@V?$allocator@U?$pair@$$CBVName@Imf@@UDeepSlice@2@@std@@@5@$0A@@std@@@std@@QAE?AV?$_Tree_iterator@V?$_Tree_val@U?$_Tree_simple_types@U?$pair@$$CBVName@Imf@@UDeepSlice@2@@std@@@std@@@std@@@2@V?$_Tree_const_iterator@V?$_Tree_val@U?$_Tree_simple_types@U?$pair@$$CBVName@Imf@@UDeepSlice@2@@std@@@std@@@std@@@2@0@Z 100f5940 f i OpenExr:ImfCompositeDeepScanLine.obj
 0001:000f4940       ?erase@?$_Tree@V?$_Tmap_traits@VName@Imf@@PAVAttribute@2@U?$less@VName@Imf@@@std@@V?$allocator@U?$pair@$$CBVName@Imf@@PAVAttribute@2@@std@@@5@$0A@@std@@@std@@QAE?AV?$_Tree_iterator@V?$_Tree_val@U?$_Tree_simple_types@U?$pair@$$CBVName@Imf@@PAVAttribute@2@@std@@@std@@@std@@@2@V?$_Tree_const_iterator@V?$_Tree_val@U?$_Tree_simple_types@U?$pair@$$CBVName@Imf@@PAVAttribute@2@@std@@@std@@@std@@@2@0@Z 100f5940 f i OpenExr:ImfHeader.obj
 0001:000f4940       ?erase@?$_Tree@V?$_Tmap_traits@HPAVGenericInputFile@Imf@@U?$less@H@std@@V?$allocator@U?$pair@$$CBHPAVGenericInputFile@Imf@@@std@@@4@$0A@@std@@@std@@QAE?AV?$_Tree_iterator@V?$_Tree_val@U?$_Tree_simple_types@U?$pair@$$CBHPAVGenericInputFile@Imf@@@std@@@std@@@std@@@2@V?$_Tree_const_iterator@V?$_Tree_val@U?$_Tree_simple_types@U?$pair@$$CBHPAVGenericInputFile@Imf@@@std@@@std@@@std@@@2@0@Z 100f5940 f i OpenExr:ImfMultiPartInputFile.obj
 0001:000f4940       ?erase@?$_Tree@V?$_Tmap_traits@PBDP6APAVAttribute@Imf@@XZUNameCompare@?A0x66f43113@2@V?$allocator@U?$pair@QBDP6APAVAttribute@Imf@@XZ@std@@@std@@$0A@@std@@@std@@QAE?AV?$_Tree_iterator@V?$_Tree_val@U?$_Tree_simple_types@U?$pair@QBDP6APAVAttribute@Imf@@XZ@std@@@std@@@std@@@2@V?$_Tree_const_iterator@V?$_Tree_val@U?$_Tree_simple_types@U?$pair@QBDP6APAVAttribute@Imf@@XZ@std@@@std@@@std@@@2@0@Z 100f5940 f i OpenExr:ImfAttribute.obj
 0001:000f49e0       ?clear@?$_Tree@V?$_Tmap_traits@VName@Imf@@USlice@2@U?$less@VName@Imf@@@std@@V?$allocator@U?$pair@$$CBVName@Imf@@USlice@2@@std@@@5@$0A@@std@@@std@@QAEXXZ 100f59e0 f i OpenExr:ImfRgbaFile.obj
 0001:000f49e0       ?clear@?$_Tree@V?$_Tmap_traits@VName@Imf@@UDeepSlice@2@U?$less@VName@Imf@@@std@@V?$allocator@U?$pair@$$CBVName@Imf@@UDeepSlice@2@@std@@@5@$0A@@std@@@std@@QAEXXZ 100f59e0 f i OpenExr:ImfCompositeDeepScanLine.obj
 0001:000f49e0       ?clear@?$_Tree@V?$_Tmap_traits@PBDP6APAVAttribute@Imf@@XZUNameCompare@?A0x66f43113@2@V?$allocator@U?$pair@QBDP6APAVAttribute@Imf@@XZ@std@@@std@@$0A@@std@@@std@@QAEXXZ 100f59e0 f i OpenExr:ImfAttribute.obj
 0001:000f49e0       ?clear@?$_Tree@V?$_Tmap_traits@HPAVGenericInputFile@Imf@@U?$less@H@std@@V?$allocator@U?$pair@$$CBHPAVGenericInputFile@Imf@@@std@@@4@$0A@@std@@@std@@QAEXXZ 100f59e0 f i OpenExr:ImfMultiPartInputFile.obj
 0001:000f49e0       ?clear@?$_Tree@V?$_Tmap_traits@VName@Imf@@PAVAttribute@2@U?$less@VName@Imf@@@std@@V?$allocator@U?$pair@$$CBVName@Imf@@PAVAttribute@2@@std@@@5@$0A@@std@@@std@@QAEXXZ 100f59e0 f i OpenExr:ImfHeader.obj
 0001:000f49e0       ?clear@?$_Tree@V?$_Tmap_traits@VName@Imf@@UChannel@2@U?$less@VName@Imf@@@std@@V?$allocator@U?$pair@$$CBVName@Imf@@UChannel@2@@std@@@5@$0A@@std@@@std@@QAEXXZ 100f59e0 f i OpenExr:ImfRgbaFile.obj
 0001:000f4a30       ?erase@?$_Tree@V?$_Tmap_traits@VName@Imf@@UChannel@2@U?$less@VName@Imf@@@std@@V?$allocator@U?$pair@$$CBVName@Imf@@UChannel@2@@std@@@5@$0A@@std@@@std@@QAE?AV?$_Tree_iterator@V?$_Tree_val@U?$_Tree_simple_types@U?$pair@$$CBVName@Imf@@UChannel@2@@std@@@std@@@std@@@2@V?$_Tree_const_iterator@V?$_Tree_val@U?$_Tree_simple_types@U?$pair@$$CBVName@Imf@@UChannel@2@@std@@@std@@@std@@@2@@Z 100f5a30 f i OpenExr:ImfRgbaFile.obj
 0001:000f4a30       ?erase@?$_Tree@V?$_Tmap_traits@VName@Imf@@PAVAttribute@2@U?$less@VName@Imf@@@std@@V?$allocator@U?$pair@$$CBVName@Imf@@PAVAttribute@2@@std@@@5@$0A@@std@@@std@@QAE?AV?$_Tree_iterator@V?$_Tree_val@U?$_Tree_simple_types@U?$pair@$$CBVName@Imf@@PAVAttribute@2@@std@@@std@@@std@@@2@V?$_Tree_const_iterator@V?$_Tree_val@U?$_Tree_simple_types@U?$pair@$$CBVName@Imf@@PAVAttribute@2@@std@@@std@@@std@@@2@@Z 100f5a30 f i OpenExr:ImfHeader.obj
 0001:000f4a30       ?erase@?$_Tree@V?$_Tmap_traits@HPAVGenericInputFile@Imf@@U?$less@H@std@@V?$allocator@U?$pair@$$CBHPAVGenericInputFile@Imf@@@std@@@4@$0A@@std@@@std@@QAE?AV?$_Tree_iterator@V?$_Tree_val@U?$_Tree_simple_types@U?$pair@$$CBHPAVGenericInputFile@Imf@@@std@@@std@@@std@@@2@V?$_Tree_const_iterator@V?$_Tree_val@U?$_Tree_simple_types@U?$pair@$$CBHPAVGenericInputFile@Imf@@@std@@@std@@@std@@@2@@Z 100f5a30 f i OpenExr:ImfMultiPartInputFile.obj
 0001:000f4a30       ?erase@?$_Tree@V?$_Tmap_traits@PBDP6APAVAttribute@Imf@@XZUNameCompare@?A0x66f43113@2@V?$allocator@U?$pair@QBDP6APAVAttribute@Imf@@XZ@std@@@std@@$0A@@std@@@std@@QAE?AV?$_Tree_iterator@V?$_Tree_val@U?$_Tree_simple_types@U?$pair@QBDP6APAVAttribute@Imf@@XZ@std@@@std@@@std@@@2@V?$_Tree_const_iterator@V?$_Tree_val@U?$_Tree_simple_types@U?$pair@QBDP6APAVAttribute@Imf@@XZ@std@@@std@@@std@@@2@@Z 100f5a30 f i OpenExr:ImfAttribute.obj
 0001:000f4a30       ?erase@?$_Tree@V?$_Tmap_traits@VName@Imf@@USlice@2@U?$less@VName@Imf@@@std@@V?$allocator@U?$pair@$$CBVName@Imf@@USlice@2@@std@@@5@$0A@@std@@@std@@QAE?AV?$_Tree_iterator@V?$_Tree_val@U?$_Tree_simple_types@U?$pair@$$CBVName@Imf@@USlice@2@@std@@@std@@@std@@@2@V?$_Tree_const_iterator@V?$_Tree_val@U?$_Tree_simple_types@U?$pair@$$CBVName@Imf@@USlice@2@@std@@@std@@@std@@@2@@Z 100f5a30 f i OpenExr:ImfRgbaFile.obj
 0001:000f4a30       ?erase@?$_Tree@V?$_Tmap_traits@VName@Imf@@UDeepSlice@2@U?$less@VName@Imf@@@std@@V?$allocator@U?$pair@$$CBVName@Imf@@UDeepSlice@2@@std@@@5@$0A@@std@@@std@@QAE?AV?$_Tree_iterator@V?$_Tree_val@U?$_Tree_simple_types@U?$pair@$$CBVName@Imf@@UDeepSlice@2@@std@@@std@@@std@@@2@V?$_Tree_const_iterator@V?$_Tree_val@U?$_Tree_simple_types@U?$pair@$$CBVName@Imf@@UDeepSlice@2@@std@@@std@@@std@@@2@@Z 100f5a30 f i OpenExr:ImfCompositeDeepScanLine.obj
 0001:000f4c80       ?_Erase@?$_Tree@V?$_Tmap_traits@VName@Imf@@UDeepSlice@2@U?$less@VName@Imf@@@std@@V?$allocator@U?$pair@$$CBVName@Imf@@UDeepSlice@2@@std@@@5@$0A@@std@@@std@@IAEXPAU?$_Tree_node@U?$pair@$$CBVName@Imf@@UDeepSlice@2@@std@@PAX@2@@Z 100f5c80 f i OpenExr:ImfCompositeDeepScanLine.obj
 0001:000f4c80       ?_Erase@?$_Tree@V?$_Tmap_traits@PBDP6APAVAttribute@Imf@@XZUNameCompare@?A0x66f43113@2@V?$allocator@U?$pair@QBDP6APAVAttribute@Imf@@XZ@std@@@std@@$0A@@std@@@std@@IAEXPAU?$_Tree_node@U?$pair@QBDP6APAVAttribute@Imf@@XZ@std@@PAX@2@@Z 100f5c80 f i OpenExr:ImfAttribute.obj
 0001:000f4c80       ?_Erase@?$_Tree@V?$_Tmap_traits@HPAVGenericInputFile@Imf@@U?$less@H@std@@V?$allocator@U?$pair@$$CBHPAVGenericInputFile@Imf@@@std@@@4@$0A@@std@@@std@@IAEXPAU?$_Tree_node@U?$pair@$$CBHPAVGenericInputFile@Imf@@@std@@PAX@2@@Z 100f5c80 f i OpenExr:ImfMultiPartInputFile.obj
 0001:000f4c80       ?_Erase@?$_Tree@V?$_Tmap_traits@VName@Imf@@PAVAttribute@2@U?$less@VName@Imf@@@std@@V?$allocator@U?$pair@$$CBVName@Imf@@PAVAttribute@2@@std@@@5@$0A@@std@@@std@@IAEXPAU?$_Tree_node@U?$pair@$$CBVName@Imf@@PAVAttribute@2@@std@@PAX@2@@Z 100f5c80 f i OpenExr:ImfHeader.obj
 0001:000f4c80       ?_Erase@?$_Tree@V?$_Tmap_traits@VName@Imf@@USlice@2@U?$less@VName@Imf@@@std@@V?$allocator@U?$pair@$$CBVName@Imf@@USlice@2@@std@@@5@$0A@@std@@@std@@IAEXPAU?$_Tree_node@U?$pair@$$CBVName@Imf@@USlice@2@@std@@PAX@2@@Z 100f5c80 f i OpenExr:ImfRgbaFile.obj
 0001:000f4c80       ?_Erase@?$_Tree@V?$_Tmap_traits@VName@Imf@@UChannel@2@U?$less@VName@Imf@@@std@@V?$allocator@U?$pair@$$CBVName@Imf@@UChannel@2@@std@@@5@$0A@@std@@@std@@IAEXPAU?$_Tree_node@U?$pair@$$CBVName@Imf@@UChannel@2@@std@@PAX@2@@Z 100f5c80 f i OpenExr:ImfRgbaFile.obj
 0001:000f4cc0       ?_Lrotate@?$_Tree@V?$_Tmap_traits@HPAVGenericInputFile@Imf@@U?$less@H@std@@V?$allocator@U?$pair@$$CBHPAVGenericInputFile@Imf@@@std@@@4@$0A@@std@@@std@@IAEXPAU?$_Tree_node@U?$pair@$$CBHPAVGenericInputFile@Imf@@@std@@PAX@2@@Z 100f5cc0 f i OpenExr:ImfMultiPartInputFile.obj
 0001:000f4cc0       ?_Lrotate@?$_Tree@V?$_Tmap_traits@VName@Imf@@UDeepSlice@2@U?$less@VName@Imf@@@std@@V?$allocator@U?$pair@$$CBVName@Imf@@UDeepSlice@2@@std@@@5@$0A@@std@@@std@@IAEXPAU?$_Tree_node@U?$pair@$$CBVName@Imf@@UDeepSlice@2@@std@@PAX@2@@Z 100f5cc0 f i OpenExr:ImfCompositeDeepScanLine.obj
 0001:000f4cc0       ?_Lrotate@?$_Tree@V?$_Tset_traits@V?$basic_string@DU?$char_traits@D@std@@V?$allocator@D@2@@std@@U?$less@V?$basic_string@DU?$char_traits@D@std@@V?$allocator@D@2@@std@@@2@V?$allocator@V?$basic_string@DU?$char_traits@D@std@@V?$allocator@D@2@@std@@@2@$0A@@std@@@std@@IAEXPAU?$_Tree_node@V?$basic_string@DU?$char_traits@D@std@@V?$allocator@D@2@@std@@PAX@2@@Z 100f5cc0 f i OpenExr:ImfChannelList.obj
 0001:000f4cc0       ?_Lrotate@?$_Tree@V?$_Tmap_traits@VName@Imf@@UChannel@2@U?$less@VName@Imf@@@std@@V?$allocator@U?$pair@$$CBVName@Imf@@UChannel@2@@std@@@5@$0A@@std@@@std@@IAEXPAU?$_Tree_node@U?$pair@$$CBVName@Imf@@UChannel@2@@std@@PAX@2@@Z 100f5cc0 f i OpenExr:ImfRgbaFile.obj
 0001:000f4cc0       ?_Lrotate@?$_Tree@V?$_Tmap_traits@VName@Imf@@USlice@2@U?$less@VName@Imf@@@std@@V?$allocator@U?$pair@$$CBVName@Imf@@USlice@2@@std@@@5@$0A@@std@@@std@@IAEXPAU?$_Tree_node@U?$pair@$$CBVName@Imf@@USlice@2@@std@@PAX@2@@Z 100f5cc0 f i OpenExr:ImfRgbaFile.obj
 0001:000f4cc0       ?_Lrotate@?$_Tree@V?$_Tmap_traits@VName@Imf@@PAVAttribute@2@U?$less@VName@Imf@@@std@@V?$allocator@U?$pair@$$CBVName@Imf@@PAVAttribute@2@@std@@@5@$0A@@std@@@std@@IAEXPAU?$_Tree_node@U?$pair@$$CBVName@Imf@@PAVAttribute@2@@std@@PAX@2@@Z 100f5cc0 f i OpenExr:ImfHeader.obj
 0001:000f4cc0       ?_Lrotate@?$_Tree@V?$_Tmap_traits@V?$basic_string@DU?$char_traits@D@std@@V?$allocator@D@2@@std@@UCscChannelSet@DwaCompressor@Imf@@U?$less@V?$basic_string@DU?$char_traits@D@std@@V?$allocator@D@2@@std@@@2@V?$allocator@U?$pair@$$CBV?$basic_string@DU?$char_traits@D@std@@V?$allocator@D@2@@std@@UCscChannelSet@DwaCompressor@Imf@@@std@@@2@$0A@@std@@@std@@IAEXPAU?$_Tree_node@U?$pair@$$CBV?$basic_string@DU?$char_traits@D@std@@V?$allocator@D@2@@std@@UCscChannelSet@DwaCompressor@Imf@@@std@@PAX@2@@Z 100f5cc0 f i OpenExr:ImfDwaCompressor.obj
 0001:000f4cc0       ?_Lrotate@?$_Tree@V?$_Tmap_traits@PBDP6APAVAttribute@Imf@@XZUNameCompare@?A0x66f43113@2@V?$allocator@U?$pair@QBDP6APAVAttribute@Imf@@XZ@std@@@std@@$0A@@std@@@std@@IAEXPAU?$_Tree_node@U?$pair@QBDP6APAVAttribute@Imf@@XZ@std@@PAX@2@@Z 100f5cc0 f i OpenExr:ImfAttribute.obj
 0001:000f4d20       ?_Rrotate@?$_Tree@V?$_Tmap_traits@VName@Imf@@UDeepSlice@2@U?$less@VName@Imf@@@std@@V?$allocator@U?$pair@$$CBVName@Imf@@UDeepSlice@2@@std@@@5@$0A@@std@@@std@@IAEXPAU?$_Tree_node@U?$pair@$$CBVName@Imf@@UDeepSlice@2@@std@@PAX@2@@Z 100f5d20 f i OpenExr:ImfCompositeDeepScanLine.obj
 0001:000f4d20       ?_Rrotate@?$_Tree@V?$_Tmap_traits@V?$basic_string@DU?$char_traits@D@std@@V?$allocator@D@2@@std@@UCscChannelSet@DwaCompressor@Imf@@U?$less@V?$basic_string@DU?$char_traits@D@std@@V?$allocator@D@2@@std@@@2@V?$allocator@U?$pair@$$CBV?$basic_string@DU?$char_traits@D@std@@V?$allocator@D@2@@std@@UCscChannelSet@DwaCompressor@Imf@@@std@@@2@$0A@@std@@@std@@IAEXPAU?$_Tree_node@U?$pair@$$CBV?$basic_string@DU?$char_traits@D@std@@V?$allocator@D@2@@std@@UCscChannelSet@DwaCompressor@Imf@@@std@@PAX@2@@Z 100f5d20 f i OpenExr:ImfDwaCompressor.obj
 0001:000f4d20       ?_Rrotate@?$_Tree@V?$_Tmap_traits@VName@Imf@@PAVAttribute@2@U?$less@VName@Imf@@@std@@V?$allocator@U?$pair@$$CBVName@Imf@@PAVAttribute@2@@std@@@5@$0A@@std@@@std@@IAEXPAU?$_Tree_node@U?$pair@$$CBVName@Imf@@PAVAttribute@2@@std@@PAX@2@@Z 100f5d20 f i OpenExr:ImfHeader.obj
 0001:000f4d20       ?_Rrotate@?$_Tree@V?$_Tmap_traits@VName@Imf@@USlice@2@U?$less@VName@Imf@@@std@@V?$allocator@U?$pair@$$CBVName@Imf@@USlice@2@@std@@@5@$0A@@std@@@std@@IAEXPAU?$_Tree_node@U?$pair@$$CBVName@Imf@@USlice@2@@std@@PAX@2@@Z 100f5d20 f i OpenExr:ImfRgbaFile.obj
 0001:000f4d20       ?_Rrotate@?$_Tree@V?$_Tmap_traits@HPAVGenericInputFile@Imf@@U?$less@H@std@@V?$allocator@U?$pair@$$CBHPAVGenericInputFile@Imf@@@std@@@4@$0A@@std@@@std@@IAEXPAU?$_Tree_node@U?$pair@$$CBHPAVGenericInputFile@Imf@@@std@@PAX@2@@Z 100f5d20 f i OpenExr:ImfMultiPartInputFile.obj
 0001:000f4d20       ?_Rrotate@?$_Tree@V?$_Tmap_traits@PBDP6APAVAttribute@Imf@@XZUNameCompare@?A0x66f43113@2@V?$allocator@U?$pair@QBDP6APAVAttribute@Imf@@XZ@std@@@std@@$0A@@std@@@std@@IAEXPAU?$_Tree_node@U?$pair@QBDP6APAVAttribute@Imf@@XZ@std@@PAX@2@@Z 100f5d20 f i OpenExr:ImfAttribute.obj
 0001:000f4d20       ?_Rrotate@?$_Tree@V?$_Tmap_traits@VName@Imf@@UChannel@2@U?$less@VName@Imf@@@std@@V?$allocator@U?$pair@$$CBVName@Imf@@UChannel@2@@std@@@5@$0A@@std@@@std@@IAEXPAU?$_Tree_node@U?$pair@$$CBVName@Imf@@UChannel@2@@std@@PAX@2@@Z 100f5d20 f i OpenExr:ImfRgbaFile.obj
 0001:000f4d20       ?_Rrotate@?$_Tree@V?$_Tset_traits@V?$basic_string@DU?$char_traits@D@std@@V?$allocator@D@2@@std@@U?$less@V?$basic_string@DU?$char_traits@D@std@@V?$allocator@D@2@@std@@@2@V?$allocator@V?$basic_string@DU?$char_traits@D@std@@V?$allocator@D@2@@std@@@2@$0A@@std@@@std@@IAEXPAU?$_Tree_node@V?$basic_string@DU?$char_traits@D@std@@V?$allocator@D@2@@std@@PAX@2@@Z 100f5d20 f i OpenExr:ImfChannelList.obj
 0001:000f4d80       ?_Max@?$_Tree_val@U?$_Tree_simple_types@U?$pair@$$CBVName@Imf@@USlice@2@@std@@@std@@@std@@SAPAU?$_Tree_node@U?$pair@$$CBVName@Imf@@USlice@2@@std@@PAX@2@PAU32@@Z 100f5d80 f i OpenExr:ImfRgbaFile.obj
 0001:000f4d80       ?_Max@?$_Tree_val@U?$_Tree_simple_types@U?$pair@$$CBVName@Imf@@UChannel@2@@std@@@std@@@std@@SAPAU?$_Tree_node@U?$pair@$$CBVName@Imf@@UChannel@2@@std@@PAX@2@PAU32@@Z 100f5d80 f i OpenExr:ImfRgbaFile.obj
 0001:000f4d80       ?_Max@?$_Tree_val@U?$_Tree_simple_types@U?$pair@$$CBHPAVGenericInputFile@Imf@@@std@@@std@@@std@@SAPAU?$_Tree_node@U?$pair@$$CBHPAVGenericInputFile@Imf@@@std@@PAX@2@PAU32@@Z 100f5d80 f i OpenExr:ImfMultiPartInputFile.obj
 0001:000f4d80       ?_Max@?$_Tree_val@U?$_Tree_simple_types@U?$pair@$$CBVName@Imf@@PAVAttribute@2@@std@@@std@@@std@@SAPAU?$_Tree_node@U?$pair@$$CBVName@Imf@@PAVAttribute@2@@std@@PAX@2@PAU32@@Z 100f5d80 f i OpenExr:ImfHeader.obj
 0001:000f4d80       ?_Max@?$_Tree_val@U?$_Tree_simple_types@U?$pair@$$CBVName@Imf@@UDeepSlice@2@@std@@@std@@@std@@SAPAU?$_Tree_node@U?$pair@$$CBVName@Imf@@UDeepSlice@2@@std@@PAX@2@PAU32@@Z 100f5d80 f i OpenExr:ImfCompositeDeepScanLine.obj
 0001:000f4d80       ?_Max@?$_Tree_val@U?$_Tree_simple_types@V?$basic_string@DU?$char_traits@D@std@@V?$allocator@D@2@@std@@@std@@@std@@SAPAU?$_Tree_node@V?$basic_string@DU?$char_traits@D@std@@V?$allocator@D@2@@std@@PAX@2@PAU32@@Z 100f5d80 f i OpenExr:ImfChannelList.obj
 0001:000f4d80       ?_Max@?$_Tree_val@U?$_Tree_simple_types@U?$pair@QBDP6APAVAttribute@Imf@@XZ@std@@@std@@@std@@SAPAU?$_Tree_node@U?$pair@QBDP6APAVAttribute@Imf@@XZ@std@@PAX@2@PAU32@@Z 100f5d80 f i OpenExr:ImfAttribute.obj
 0001:000f4d80       ?_Max@?$_Tree_val@U?$_Tree_simple_types@U?$pair@$$CBV?$basic_string@DU?$char_traits@D@std@@V?$allocator@D@2@@std@@UCscChannelSet@DwaCompressor@Imf@@@std@@@std@@@std@@SAPAU?$_Tree_node@U?$pair@$$CBV?$basic_string@DU?$char_traits@D@std@@V?$allocator@D@2@@std@@UCscChannelSet@DwaCompressor@Imf@@@std@@PAX@2@PAU32@@Z 100f5d80 f i OpenExr:ImfDwaCompressor.obj
 0001:000f4da0       ?_Buyheadnode@?$_Tree_alloc@$0A@U?$_Tree_base_types@U?$pair@$$CBVName@Imf@@USlice@2@@std@@V?$allocator@U?$pair@$$CBVName@Imf@@USlice@2@@std@@@2@@std@@@std@@QAEPAU?$_Tree_node@U?$pair@$$CBVName@Imf@@USlice@2@@std@@PAX@2@XZ 100f5da0 f i OpenExr:ImfRgbaFile.obj
 0001:000f4dd0       ?_Buyheadnode@?$_Tree_alloc@$0A@U?$_Tree_base_types@U?$pair@$$CBVName@Imf@@UChannel@2@@std@@V?$allocator@U?$pair@$$CBVName@Imf@@UChannel@2@@std@@@2@@std@@@std@@QAEPAU?$_Tree_node@U?$pair@$$CBVName@Imf@@UChannel@2@@std@@PAX@2@XZ 100f5dd0 f i OpenExr:ImfRgbaFile.obj
 0001:000f4e00       ??$?HDU?$char_traits@D@std@@V?$allocator@D@1@@std@@YA?AV?$basic_string@DU?$char_traits@D@std@@V?$allocator@D@2@@0@ABV10@PBD@Z 100f5e00 f i OpenExr:ImfRgbaFile.obj
 0001:000f4ef0       ??$?8DU?$char_traits@D@std@@V?$allocator@D@1@@std@@YA_NABV?$basic_string@DU?$char_traits@D@std@@V?$allocator@D@2@@0@0@Z 100f5ef0 f i OpenExr:ImfRgbaFile.obj
 0001:000f4f40       ??$?6U?$char_traits@D@std@@@std@@YAAAV?$basic_ostream@DU?$char_traits@D@std@@@0@AAV10@PBD@Z 100f5f40 f i OpenExr:ImfRgbaFile.obj
 0001:000f51f0       ??$_Copy@U?$integral_constant@_N$0A@@std@@@?$_Tree@V?$_Tmap_traits@VName@Imf@@UChannel@2@U?$less@VName@Imf@@@std@@V?$allocator@U?$pair@$$CBVName@Imf@@UChannel@2@@std@@@5@$0A@@std@@@std@@IAEXABV01@U?$integral_constant@_N$0A@@1@@Z 100f61f0 f i OpenExr:ImfRgbaFile.obj
 0001:000f5270       ??$_Copy_nodes@U?$integral_constant@_N$0A@@std@@@?$_Tree@V?$_Tmap_traits@VName@Imf@@UChannel@2@U?$less@VName@Imf@@@std@@V?$allocator@U?$pair@$$CBVName@Imf@@UChannel@2@@std@@@5@$0A@@std@@@std@@IAEPAU?$_Tree_node@U?$pair@$$CBVName@Imf@@UChannel@2@@std@@PAX@1@PAU21@0U?$integral_constant@_N$0A@@1@@Z 100f6270 f i OpenExr:ImfRgbaFile.obj
 0001:000f5330       ??$_Buynode@AAU?$pair@$$CBVName@Imf@@UChannel@2@@std@@@?$_Tree_buy@U?$pair@$$CBVName@Imf@@UChannel@2@@std@@V?$allocator@U?$pair@$$CBVName@Imf@@UChannel@2@@std@@@2@@std@@QAEPAU?$_Tree_node@U?$pair@$$CBVName@Imf@@UChannel@2@@std@@PAX@1@AAU?$pair@$$CBVName@Imf@@UChannel@2@@1@@Z 100f6330 f i OpenExr:ImfRgbaFile.obj
 0001:000f5360       ?_Buynode0@?$_Tree_buy@U?$pair@$$CBVName@Imf@@UChannel@2@@std@@V?$allocator@U?$pair@$$CBVName@Imf@@UChannel@2@@std@@@2@@std@@QAEPAU?$_Tree_node@U?$pair@$$CBVName@Imf@@UChannel@2@@std@@PAX@2@XZ 100f6360 f i OpenExr:ImfRgbaFile.obj
 0001:000f539a       ??_E?$basic_stringstream@DU?$char_traits@D@std@@V?$allocator@D@2@@std@@$4PPPPPPPM@A@AEPAXI@Z 100f639a f i OpenExr:ImfRgbaFile.obj
 0001:000f53a2       ??_E?$basic_iostream@DU?$char_traits@D@std@@@std@@$4PPPPPPPM@A@AEPAXI@Z 100f63a2 f i OpenExr:ImfRgbaFile.obj
 0001:000f53aa       ??_E?$basic_ostream@DU?$char_traits@D@std@@@std@@$4PPPPPPPM@A@AEPAXI@Z 100f63aa f i OpenExr:ImfRgbaFile.obj
 0001:000f53b2       ??_E?$basic_istream@DU?$char_traits@D@std@@@std@@$4PPPPPPPM@A@AEPAXI@Z 100f63b2 f i OpenExr:ImfRgbaFile.obj
 0001:000f53c0       ??1TypeExc@Iex@@UAE@XZ     100f63c0 f i OpenExr:ImfHeader.obj
 0001:000f53d0       ??_GTypeExc@Iex@@UAEPAXI@Z 100f63d0 f i OpenExr:ImfHeader.obj
 0001:000f53d0       ??_ETypeExc@Iex@@UAEPAXI@Z 100f63d0 f i * CIL library *:* CIL module *
 0001:000f5400       ?str@StdOSStream@Imf@@QBE?AV?$basic_string@DU?$char_traits@D@std@@V?$allocator@D@2@@std@@XZ 100f6400 f i OpenExr:ImfHeader.obj
 0001:000f5420       ?initialize@?A0x4790e8d3@Imf@@YAXAAVHeader@2@ABV?$Box@V?$Vec2@H@Imath@@@Imath@@1MABV?$Vec2@M@5@MW4LineOrder@2@W4Compression@2@@Z 100f6420 f   OpenExr:ImfHeader.obj
 0001:000f5600       ??0Header@Imf@@QAE@ABV01@@Z 100f6600 f   OpenExr:ImfHeader.obj
 0001:000f56d0       ??1Header@Imf@@QAE@XZ      100f66d0 f   OpenExr:ImfHeader.obj
 0001:000f57a0       ??4Header@Imf@@QAEAAV01@ABV01@@Z 100f67a0 f   OpenExr:ImfHeader.obj
 0001:000f58a0       ?insert@Header@Imf@@QAEXQBDABVAttribute@2@@Z 100f68a0 f   OpenExr:ImfHeader.obj
 0001:000f5b20       ??0TypeExc@Iex@@QAE@ABV01@@Z 100f6b20 f i OpenExr:ImfHeader.obj
 0001:000f5b40       ??AHeader@Imf@@QBEABVAttribute@1@QBD@Z 100f6b40 f   OpenExr:ImfHeader.obj
 0001:000f5b40       ??AHeader@Imf@@QAEAAVAttribute@1@QBD@Z 100f6b40 f   OpenExr:ImfHeader.obj
 0001:000f5ca0       ?setType@Header@Imf@@QAEXABV?$basic_string@DU?$char_traits@D@std@@V?$allocator@D@2@@std@@@Z 100f6ca0 f   OpenExr:ImfHeader.obj
 0001:000f5ed0       ?sanityCheck@Header@Imf@@QBEX_N0@Z 100f6ed0 f   OpenExr:ImfHeader.obj
 0001:000f6950       ?writeTo@Header@Imf@@QBE_KAAVOStream@2@_N@Z 100f7950 f   OpenExr:ImfHeader.obj
 0001:000f6c00       ??1StdOSStream@Imf@@UAE@XZ 100f7c00 f i OpenExr:ImfHeader.obj
 0001:000f6c50       ?readFrom@Header@Imf@@QAEXAAVIStream@2@AAH@Z 100f7c50 f   OpenExr:ImfHeader.obj
 0001:000f7040       ?staticInitialize@Imf@@YAXXZ 100f8040 f   OpenExr:ImfHeader.obj
 0001:000f72b0       ??6?$basic_ostream@DU?$char_traits@D@std@@@std@@QAEAAV01@H@Z 100f82b0 f i OpenExr:ImfHeader.obj
 0001:000f7450       ??6?$basic_ostream@DU?$char_traits@D@std@@@std@@QAEAAV01@_K@Z 100f8450 f i OpenExr:ImfHeader.obj
 0001:000f75f0       ??A?$map@VName@Imf@@PAVAttribute@2@U?$less@VName@Imf@@@std@@V?$allocator@U?$pair@$$CBVName@Imf@@PAVAttribute@2@@std@@@5@@std@@QAEAAPAVAttribute@Imf@@$$QAVName@3@@Z 100f85f0 f i OpenExr:ImfHeader.obj
 0001:000f7680       ?find@?$_Tree@V?$_Tmap_traits@VName@Imf@@PAVAttribute@2@U?$less@VName@Imf@@@std@@V?$allocator@U?$pair@$$CBVName@Imf@@PAVAttribute@2@@std@@@5@$0A@@std@@@std@@QAE?AV?$_Tree_iterator@V?$_Tree_val@U?$_Tree_simple_types@U?$pair@$$CBVName@Imf@@PAVAttribute@2@@std@@@std@@@std@@@2@ABVName@Imf@@@Z 100f8680 f i OpenExr:ImfHeader.obj
 0001:000f76e0       ??1?$basic_ostringstream@DU?$char_traits@D@std@@V?$allocator@D@2@@std@@UAE@XZ 100f86e0 f i OpenExr:ImfHeader.obj
 0001:000f7760       ?str@?$basic_ostringstream@DU?$char_traits@D@std@@V?$allocator@D@2@@std@@QBE?AV?$basic_string@DU?$char_traits@D@std@@V?$allocator@D@2@@2@XZ 100f8760 f i OpenExr:ImfHeader.obj
 0001:000f7780       ??_E?$basic_ostringstream@DU?$char_traits@D@std@@V?$allocator@D@2@@std@@UAEPAXI@Z 100f8780 f i * CIL library *:* CIL module *
 0001:000f7780       ??_G?$basic_ostringstream@DU?$char_traits@D@std@@V?$allocator@D@2@@std@@UAEPAXI@Z 100f8780 f i OpenExr:ImfHeader.obj
 0001:000f77c0       ?str@?$basic_stringbuf@DU?$char_traits@D@std@@V?$allocator@D@2@@std@@QBE?AV?$basic_string@DU?$char_traits@D@std@@V?$allocator@D@2@@2@XZ 100f87c0 f i OpenExr:ImfHeader.obj
 0001:000f7890       ??R?$less@VName@Imf@@@std@@QBE_NABVName@Imf@@0@Z 100f8890 f i OpenExr:ImfHeader.obj
 0001:000f78e0       ?_Lbound@?$_Tree@V?$_Tmap_traits@VName@Imf@@PAVAttribute@2@U?$less@VName@Imf@@@std@@V?$allocator@U?$pair@$$CBVName@Imf@@PAVAttribute@2@@std@@@5@$0A@@std@@@std@@IAEPAU?$_Tree_node@U?$pair@$$CBVName@Imf@@PAVAttribute@2@@std@@PAX@2@ABVName@Imf@@@Z 100f88e0 f i OpenExr:ImfHeader.obj
 0001:000f78e0       ?_Lbound@?$_Tree@V?$_Tmap_traits@VName@Imf@@PAVAttribute@2@U?$less@VName@Imf@@@std@@V?$allocator@U?$pair@$$CBVName@Imf@@PAVAttribute@2@@std@@@5@$0A@@std@@@std@@IBEPAU?$_Tree_node@U?$pair@$$CBVName@Imf@@PAVAttribute@2@@std@@PAX@2@ABVName@Imf@@@Z 100f88e0 f i OpenExr:ImfHeader.obj
 0001:000f78e0       ?_Lbound@?$_Tree@V?$_Tmap_traits@VName@Imf@@UDeepSlice@2@U?$less@VName@Imf@@@std@@V?$allocator@U?$pair@$$CBVName@Imf@@UDeepSlice@2@@std@@@5@$0A@@std@@@std@@IAEPAU?$_Tree_node@U?$pair@$$CBVName@Imf@@UDeepSlice@2@@std@@PAX@2@ABVName@Imf@@@Z 100f88e0 f i OpenExr:ImfDeepFrameBuffer.obj
 0001:000f78e0       ?_Lbound@?$_Tree@V?$_Tmap_traits@VName@Imf@@USlice@2@U?$less@VName@Imf@@@std@@V?$allocator@U?$pair@$$CBVName@Imf@@USlice@2@@std@@@5@$0A@@std@@@std@@IAEPAU?$_Tree_node@U?$pair@$$CBVName@Imf@@USlice@2@@std@@PAX@2@ABVName@Imf@@@Z 100f88e0 f i OpenExr:ImfFrameBuffer.obj
 0001:000f78e0       ?_Lbound@?$_Tree@V?$_Tmap_traits@VName@Imf@@UChannel@2@U?$less@VName@Imf@@@std@@V?$allocator@U?$pair@$$CBVName@Imf@@UChannel@2@@std@@@5@$0A@@std@@@std@@IBEPAU?$_Tree_node@U?$pair@$$CBVName@Imf@@UChannel@2@@std@@PAX@2@ABVName@Imf@@@Z 100f88e0 f i OpenExr:ImfChannelList.obj
 0001:000f78e0       ?_Lbound@?$_Tree@V?$_Tmap_traits@VName@Imf@@USlice@2@U?$less@VName@Imf@@@std@@V?$allocator@U?$pair@$$CBVName@Imf@@USlice@2@@std@@@5@$0A@@std@@@std@@IBEPAU?$_Tree_node@U?$pair@$$CBVName@Imf@@USlice@2@@std@@PAX@2@ABVName@Imf@@@Z 100f88e0 f i OpenExr:ImfFrameBuffer.obj
 0001:000f78e0       ?_Lbound@?$_Tree@V?$_Tmap_traits@VName@Imf@@UChannel@2@U?$less@VName@Imf@@@std@@V?$allocator@U?$pair@$$CBVName@Imf@@UChannel@2@@std@@@5@$0A@@std@@@std@@IAEPAU?$_Tree_node@U?$pair@$$CBVName@Imf@@UChannel@2@@std@@PAX@2@ABVName@Imf@@@Z 100f88e0 f i OpenExr:ImfChannelList.obj
 0001:000f7950       ?_Buyheadnode@?$_Tree_alloc@$0A@U?$_Tree_base_types@U?$pair@$$CBVName@Imf@@PAVAttribute@2@@std@@V?$allocator@U?$pair@$$CBVName@Imf@@PAVAttribute@2@@std@@@2@@std@@@std@@QAEPAU?$_Tree_node@U?$pair@$$CBVName@Imf@@PAVAttribute@2@@std@@PAX@2@XZ 100f8950 f i OpenExr:ImfHeader.obj
 0001:000f7980       ??1?$TypedAttribute@H@Imf@@UAE@XZ 100f8980 f i OpenExr:ImfHeader.obj
 0001:000f7980       ??1?$TypedAttribute@W4Compression@Imf@@@Imf@@UAE@XZ 100f8980 f i OpenExr:ImfHeader.obj
 0001:000f7980       ??1Attribute@Imf@@UAE@XZ   100f8980 f i OpenExr:ImfAttribute.obj
 0001:000f7980       ??1?$TypedAttribute@V?$Box@V?$Vec2@H@Imath@@@Imath@@@Imf@@UAE@XZ 100f8980 f i OpenExr:ImfHeader.obj
 0001:000f7980       ??1?$TypedAttribute@M@Imf@@UAE@XZ 100f8980 f i OpenExr:ImfHeader.obj
 0001:000f7980       ??1?$TypedAttribute@W4LineOrder@Imf@@@Imf@@UAE@XZ 100f8980 f i OpenExr:ImfHeader.obj
 0001:000f7980       ??1?$TypedAttribute@V?$Vec2@M@Imath@@@Imf@@UAE@XZ 100f8980 f i OpenExr:ImfHeader.obj
 0001:000f7990       ?typeName@?$TypedAttribute@V?$Box@V?$Vec2@H@Imath@@@Imath@@@Imf@@UBEPBDXZ 100f8990 f i OpenExr:ImfHeader.obj
 0001:000f79a0       ?copy@?$TypedAttribute@V?$Box@V?$Vec2@H@Imath@@@Imath@@@Imf@@UBEPAVAttribute@2@XZ 100f89a0 f i OpenExr:ImfHeader.obj
 0001:000f7a00       ?copyValueFrom@?$TypedAttribute@V?$Box@V?$Vec2@H@Imath@@@Imath@@@Imf@@UAEXABVAttribute@2@@Z 100f8a00 f i OpenExr:ImfHeader.obj
 0001:000f7a80       ?typeName@?$TypedAttribute@V?$Box@V?$Vec2@M@Imath@@@Imath@@@Imf@@UBEPBDXZ 100f8a80 f i OpenExr:ImfHeader.obj
 0001:000f7a90       ?copy@?$TypedAttribute@V?$Box@V?$Vec2@M@Imath@@@Imath@@@Imf@@UBEPAVAttribute@2@XZ 100f8a90 f i OpenExr:ImfHeader.obj
 0001:000f7af0       ?copyValueFrom@?$TypedAttribute@V?$Box@V?$Vec2@M@Imath@@@Imath@@@Imf@@UAEXABVAttribute@2@@Z 100f8af0 f i OpenExr:ImfHeader.obj
 0001:000f7b70       ??1?$TypedAttribute@VChannelList@Imf@@@Imf@@UAE@XZ 100f8b70 f i OpenExr:ImfHeader.obj
 0001:000f7bb0       ?typeName@?$TypedAttribute@VChannelList@Imf@@@Imf@@UBEPBDXZ 100f8bb0 f i OpenExr:ImfHeader.obj
 0001:000f7bc0       ?copy@?$TypedAttribute@VChannelList@Imf@@@Imf@@UBEPAVAttribute@2@XZ 100f8bc0 f i OpenExr:ImfHeader.obj
 0001:000f7c50       ?copyValueFrom@?$TypedAttribute@VChannelList@Imf@@@Imf@@UAEXABVAttribute@2@@Z 100f8c50 f i OpenExr:ImfHeader.obj
 0001:000f7ce0       ?typeName@?$TypedAttribute@UChromaticities@Imf@@@Imf@@UBEPBDXZ 100f8ce0 f i OpenExr:ImfHeader.obj
 0001:000f7cf0       ?copy@?$TypedAttribute@UChromaticities@Imf@@@Imf@@UBEPAVAttribute@2@XZ 100f8cf0 f i OpenExr:ImfHeader.obj
 0001:000f7d60       ?copyValueFrom@?$TypedAttribute@UChromaticities@Imf@@@Imf@@UAEXABVAttribute@2@@Z 100f8d60 f i OpenExr:ImfHeader.obj
 0001:000f7e00       ?typeName@?$TypedAttribute@W4Compression@Imf@@@Imf@@UBEPBDXZ 100f8e00 f i OpenExr:ImfHeader.obj
 0001:000f7e10       ?copy@?$TypedAttribute@W4Compression@Imf@@@Imf@@UBEPAVAttribute@2@XZ 100f8e10 f i OpenExr:ImfHeader.obj
 0001:000f7e50       ?copyValueFrom@?$TypedAttribute@W4Compression@Imf@@@Imf@@UAEXABVAttribute@2@@Z 100f8e50 f i OpenExr:ImfHeader.obj
 0001:000f7ec0       ?typeName@?$TypedAttribute@W4DeepImageState@Imf@@@Imf@@UBEPBDXZ 100f8ec0 f i OpenExr:ImfHeader.obj
 0001:000f7ed0       ?copy@?$TypedAttribute@W4DeepImageState@Imf@@@Imf@@UBEPAVAttribute@2@XZ 100f8ed0 f i OpenExr:ImfHeader.obj
 0001:000f7f10       ?copyValueFrom@?$TypedAttribute@W4DeepImageState@Imf@@@Imf@@UAEXABVAttribute@2@@Z 100f8f10 f i OpenExr:ImfHeader.obj
 0001:000f7f80       ?typeName@?$TypedAttribute@N@Imf@@UBEPBDXZ 100f8f80 f i OpenExr:ImfHeader.obj
 0001:000f7f90       ?copy@?$TypedAttribute@N@Imf@@UBEPAVAttribute@2@XZ 100f8f90 f i OpenExr:ImfHeader.obj
 0001:000f7fd0       ?writeValueTo@?$TypedAttribute@N@Imf@@UBEXAAVOStream@2@H@Z 100f8fd0 f i OpenExr:ImfHeader.obj
 0001:000f7ff0       ?readValueFrom@?$TypedAttribute@N@Imf@@UAEXAAVIStream@2@HH@Z 100f8ff0 f i OpenExr:ImfHeader.obj
 0001:000f8010       ?copyValueFrom@?$TypedAttribute@N@Imf@@UAEXABVAttribute@2@@Z 100f9010 f i OpenExr:ImfHeader.obj
 0001:000f8080       ?typeName@?$TypedAttribute@W4Envmap@Imf@@@Imf@@UBEPBDXZ 100f9080 f i OpenExr:ImfHeader.obj
 0001:000f8090       ?copy@?$TypedAttribute@W4Envmap@Imf@@@Imf@@UBEPAVAttribute@2@XZ 100f9090 f i OpenExr:ImfHeader.obj
 0001:000f80d0       ?copyValueFrom@?$TypedAttribute@W4Envmap@Imf@@@Imf@@UAEXABVAttribute@2@@Z 100f90d0 f i OpenExr:ImfHeader.obj
 0001:000f8140       ?typeName@?$TypedAttribute@M@Imf@@UBEPBDXZ 100f9140 f i OpenExr:ImfHeader.obj
 0001:000f8150       ?copy@?$TypedAttribute@M@Imf@@UBEPAVAttribute@2@XZ 100f9150 f i OpenExr:ImfHeader.obj
 0001:000f8190       ?writeValueTo@?$TypedAttribute@M@Imf@@UBEXAAVOStream@2@H@Z 100f9190 f i OpenExr:ImfHeader.obj
 0001:000f81d0       ?readValueFrom@?$TypedAttribute@M@Imf@@UAEXAAVIStream@2@HH@Z 100f91d0 f i OpenExr:ImfHeader.obj
 0001:000f8220       ?copyValueFrom@?$TypedAttribute@M@Imf@@UAEXABVAttribute@2@@Z 100f9220 f i OpenExr:ImfHeader.obj
 0001:000f8290       ?typeName@?$TypedAttribute@V?$vector@MV?$allocator@M@std@@@std@@@Imf@@UBEPBDXZ 100f9290 f i OpenExr:ImfHeader.obj
 0001:000f82a0       ?copy@?$TypedAttribute@V?$vector@MV?$allocator@M@std@@@std@@@Imf@@UBEPAVAttribute@2@XZ 100f92a0 f i OpenExr:ImfHeader.obj
 0001:000f82f0       ?copyValueFrom@?$TypedAttribute@V?$vector@MV?$allocator@M@std@@@std@@@Imf@@UAEXABVAttribute@2@@Z 100f92f0 f i OpenExr:ImfHeader.obj
 0001:000f8370       ?typeName@?$TypedAttribute@H@Imf@@UBEPBDXZ 100f9370 f i OpenExr:ImfHeader.obj
 0001:000f8380       ?copy@?$TypedAttribute@H@Imf@@UBEPAVAttribute@2@XZ 100f9380 f i OpenExr:ImfHeader.obj
 0001:000f83c0       ?writeValueTo@?$TypedAttribute@H@Imf@@UBEXAAVOStream@2@H@Z 100f93c0 f i OpenExr:ImfHeader.obj
 0001:000f8400       ?readValueFrom@?$TypedAttribute@H@Imf@@UAEXAAVIStream@2@HH@Z 100f9400 f i OpenExr:ImfHeader.obj
 0001:000f8440       ?copyValueFrom@?$TypedAttribute@H@Imf@@UAEXABVAttribute@2@@Z 100f9440 f i OpenExr:ImfHeader.obj
 0001:000f84b0       ?typeName@?$TypedAttribute@VKeyCode@Imf@@@Imf@@UBEPBDXZ 100f94b0 f i OpenExr:ImfHeader.obj
 0001:000f84c0       ?copy@?$TypedAttribute@VKeyCode@Imf@@@Imf@@UBEPAVAttribute@2@XZ 100f94c0 f i OpenExr:ImfHeader.obj
 0001:000f8560       ?copyValueFrom@?$TypedAttribute@VKeyCode@Imf@@@Imf@@UAEXABVAttribute@2@@Z 100f9560 f i OpenExr:ImfHeader.obj
 0001:000f8600       ?typeName@?$TypedAttribute@W4LineOrder@Imf@@@Imf@@UBEPBDXZ 100f9600 f i OpenExr:ImfHeader.obj
 0001:000f8610       ?copy@?$TypedAttribute@W4LineOrder@Imf@@@Imf@@UBEPAVAttribute@2@XZ 100f9610 f i OpenExr:ImfHeader.obj
 0001:000f8650       ?copyValueFrom@?$TypedAttribute@W4LineOrder@Imf@@@Imf@@UAEXABVAttribute@2@@Z 100f9650 f i OpenExr:ImfHeader.obj
 0001:000f86c0       ?typeName@?$TypedAttribute@V?$Matrix33@M@Imath@@@Imf@@UBEPBDXZ 100f96c0 f i OpenExr:ImfHeader.obj
 0001:000f86d0       ?copy@?$TypedAttribute@V?$Matrix33@M@Imath@@@Imf@@UBEPAVAttribute@2@XZ 100f96d0 f i OpenExr:ImfHeader.obj
 0001:000f8730       ?copyValueFrom@?$TypedAttribute@V?$Matrix33@M@Imath@@@Imf@@UAEXABVAttribute@2@@Z 100f9730 f i OpenExr:ImfHeader.obj
 0001:000f87b0       ?typeName@?$TypedAttribute@V?$Matrix33@N@Imath@@@Imf@@UBEPBDXZ 100f97b0 f i OpenExr:ImfHeader.obj
 0001:000f87c0       ?copy@?$TypedAttribute@V?$Matrix33@N@Imath@@@Imf@@UBEPAVAttribute@2@XZ 100f97c0 f i OpenExr:ImfHeader.obj
 0001:000f8820       ?copyValueFrom@?$TypedAttribute@V?$Matrix33@N@Imath@@@Imf@@UAEXABVAttribute@2@@Z 100f9820 f i OpenExr:ImfHeader.obj
 0001:000f88c0       ?typeName@?$TypedAttribute@V?$Matrix44@M@Imath@@@Imf@@UBEPBDXZ 100f98c0 f i OpenExr:ImfHeader.obj
 0001:000f88d0       ?copy@?$TypedAttribute@V?$Matrix44@M@Imath@@@Imf@@UBEPAVAttribute@2@XZ 100f98d0 f i OpenExr:ImfHeader.obj
 0001:000f8940       ?copyValueFrom@?$TypedAttribute@V?$Matrix44@M@Imath@@@Imf@@UAEXABVAttribute@2@@Z 100f9940 f i OpenExr:ImfHeader.obj
 0001:000f89c0       ?typeName@?$TypedAttribute@V?$Matrix44@N@Imath@@@Imf@@UBEPBDXZ 100f99c0 f i OpenExr:ImfHeader.obj
 0001:000f89d0       ?copy@?$TypedAttribute@V?$Matrix44@N@Imath@@@Imf@@UBEPAVAttribute@2@XZ 100f99d0 f i OpenExr:ImfHeader.obj
 0001:000f8a40       ?copyValueFrom@?$TypedAttribute@V?$Matrix44@N@Imath@@@Imf@@UAEXABVAttribute@2@@Z 100f9a40 f i OpenExr:ImfHeader.obj
 0001:000f8b50       ?typeName@?$TypedAttribute@VPreviewImage@Imf@@@Imf@@UBEPBDXZ 100f9b50 f i OpenExr:ImfHeader.obj
 0001:000f8b60       ?copy@?$TypedAttribute@VPreviewImage@Imf@@@Imf@@UBEPAVAttribute@2@XZ 100f9b60 f i OpenExr:ImfHeader.obj
 0001:000f8be0       ?copyValueFrom@?$TypedAttribute@VPreviewImage@Imf@@@Imf@@UAEXABVAttribute@2@@Z 100f9be0 f i OpenExr:ImfHeader.obj
 0001:000f8c60       ?typeName@?$TypedAttribute@VRational@Imf@@@Imf@@UBEPBDXZ 100f9c60 f i OpenExr:ImfHeader.obj
 0001:000f8c70       ?copy@?$TypedAttribute@VRational@Imf@@@Imf@@UBEPAVAttribute@2@XZ 100f9c70 f i OpenExr:ImfHeader.obj
 0001:000f8cc0       ?copyValueFrom@?$TypedAttribute@VRational@Imf@@@Imf@@UAEXABVAttribute@2@@Z 100f9cc0 f i OpenExr:ImfHeader.obj
 0001:000f8d40       ??1?$TypedAttribute@V?$basic_string@DU?$char_traits@D@std@@V?$allocator@D@2@@std@@@Imf@@UAE@XZ 100f9d40 f i OpenExr:ImfHeader.obj
 0001:000f8d80       ?typeName@?$TypedAttribute@V?$basic_string@DU?$char_traits@D@std@@V?$allocator@D@2@@std@@@Imf@@UBEPBDXZ 100f9d80 f i OpenExr:ImfHeader.obj
 0001:000f8d90       ?copy@?$TypedAttribute@V?$basic_string@DU?$char_traits@D@std@@V?$allocator@D@2@@std@@@Imf@@UBEPAVAttribute@2@XZ 100f9d90 f i OpenExr:ImfHeader.obj
 0001:000f8de0       ?copyValueFrom@?$TypedAttribute@V?$basic_string@DU?$char_traits@D@std@@V?$allocator@D@2@@std@@@Imf@@UAEXABVAttribute@2@@Z 100f9de0 f i OpenExr:ImfHeader.obj
 0001:000f8e60       ?typeName@?$TypedAttribute@V?$vector@V?$basic_string@DU?$char_traits@D@std@@V?$allocator@D@2@@std@@V?$allocator@V?$basic_string@DU?$char_traits@D@std@@V?$allocator@D@2@@std@@@2@@std@@@Imf@@UBEPBDXZ 100f9e60 f i OpenExr:ImfHeader.obj
 0001:000f8e70       ?copy@?$TypedAttribute@V?$vector@V?$basic_string@DU?$char_traits@D@std@@V?$allocator@D@2@@std@@V?$allocator@V?$basic_string@DU?$char_traits@D@std@@V?$allocator@D@2@@std@@@2@@std@@@Imf@@UBEPAVAttribute@2@XZ 100f9e70 f i OpenExr:ImfHeader.obj
 0001:000f8ec0       ?copyValueFrom@?$TypedAttribute@V?$vector@V?$basic_string@DU?$char_traits@D@std@@V?$allocator@D@2@@std@@V?$allocator@V?$basic_string@DU?$char_traits@D@std@@V?$allocator@D@2@@std@@@2@@std@@@Imf@@UAEXABVAttribute@2@@Z 100f9ec0 f i OpenExr:ImfHeader.obj
 0001:000f8f40       ?typeName@?$TypedAttribute@VTileDescription@Imf@@@Imf@@UBEPBDXZ 100f9f40 f i OpenExr:ImfHeader.obj
 0001:000f8f50       ?copy@?$TypedAttribute@VTileDescription@Imf@@@Imf@@UBEPAVAttribute@2@XZ 100f9f50 f i OpenExr:ImfHeader.obj
 0001:000f8fc0       ?copyValueFrom@?$TypedAttribute@VTileDescription@Imf@@@Imf@@UAEXABVAttribute@2@@Z 100f9fc0 f i OpenExr:ImfHeader.obj
 0001:000f9030       ?typeName@?$TypedAttribute@VTimeCode@Imf@@@Imf@@UBEPBDXZ 100fa030 f i OpenExr:ImfHeader.obj
 0001:000f9040       ?copy@?$TypedAttribute@VTimeCode@Imf@@@Imf@@UBEPAVAttribute@2@XZ 100fa040 f i OpenExr:ImfHeader.obj
 0001:000f9090       ?copyValueFrom@?$TypedAttribute@VTimeCode@Imf@@@Imf@@UAEXABVAttribute@2@@Z 100fa090 f i OpenExr:ImfHeader.obj
 0001:000f9110       ?typeName@?$TypedAttribute@V?$Vec2@H@Imath@@@Imf@@UBEPBDXZ 100fa110 f i OpenExr:ImfHeader.obj
 0001:000f9120       ?copy@?$TypedAttribute@V?$Vec2@H@Imath@@@Imf@@UBEPAVAttribute@2@XZ 100fa120 f i OpenExr:ImfHeader.obj
 0001:000f9160       ?copyValueFrom@?$TypedAttribute@V?$Vec2@H@Imath@@@Imf@@UAEXABVAttribute@2@@Z 100fa160 f i OpenExr:ImfHeader.obj
 0001:000f91e0       ?typeName@?$TypedAttribute@V?$Vec2@M@Imath@@@Imf@@UBEPBDXZ 100fa1e0 f i OpenExr:ImfHeader.obj
 0001:000f91f0       ?copy@?$TypedAttribute@V?$Vec2@M@Imath@@@Imf@@UBEPAVAttribute@2@XZ 100fa1f0 f i OpenExr:ImfHeader.obj
 0001:000f9230       ?copyValueFrom@?$TypedAttribute@V?$Vec2@M@Imath@@@Imf@@UAEXABVAttribute@2@@Z 100fa230 f i OpenExr:ImfHeader.obj
 0001:000f92b0       ?typeName@?$TypedAttribute@V?$Vec2@N@Imath@@@Imf@@UBEPBDXZ 100fa2b0 f i OpenExr:ImfHeader.obj
 0001:000f92c0       ?copy@?$TypedAttribute@V?$Vec2@N@Imath@@@Imf@@UBEPAVAttribute@2@XZ 100fa2c0 f i OpenExr:ImfHeader.obj
 0001:000f9300       ?copyValueFrom@?$TypedAttribute@V?$Vec2@N@Imath@@@Imf@@UAEXABVAttribute@2@@Z 100fa300 f i OpenExr:ImfHeader.obj
 0001:000f9380       ?typeName@?$TypedAttribute@V?$Vec3@H@Imath@@@Imf@@UBEPBDXZ 100fa380 f i OpenExr:ImfHeader.obj
 0001:000f9390       ?copy@?$TypedAttribute@V?$Vec3@H@Imath@@@Imf@@UBEPAVAttribute@2@XZ 100fa390 f i OpenExr:ImfHeader.obj
 0001:000f93d0       ?copyValueFrom@?$TypedAttribute@V?$Vec3@H@Imath@@@Imf@@UAEXABVAttribute@2@@Z 100fa3d0 f i OpenExr:ImfHeader.obj
 0001:000f9450       ?typeName@?$TypedAttribute@V?$Vec3@M@Imath@@@Imf@@UBEPBDXZ 100fa450 f i OpenExr:ImfHeader.obj
 0001:000f9460       ?copy@?$TypedAttribute@V?$Vec3@M@Imath@@@Imf@@UBEPAVAttribute@2@XZ 100fa460 f i OpenExr:ImfHeader.obj
 0001:000f94a0       ?copyValueFrom@?$TypedAttribute@V?$Vec3@M@Imath@@@Imf@@UAEXABVAttribute@2@@Z 100fa4a0 f i OpenExr:ImfHeader.obj
 0001:000f9520       ?typeName@?$TypedAttribute@V?$Vec3@N@Imath@@@Imf@@UBEPBDXZ 100fa520 f i OpenExr:ImfHeader.obj
 0001:000f9530       ?copy@?$TypedAttribute@V?$Vec3@N@Imath@@@Imf@@UBEPAVAttribute@2@XZ 100fa530 f i OpenExr:ImfHeader.obj
 0001:000f9570       ?copyValueFrom@?$TypedAttribute@V?$Vec3@N@Imath@@@Imf@@UAEXABVAttribute@2@@Z 100fa570 f i OpenExr:ImfHeader.obj
 0001:000f9600       ??$findTypedAttribute@V?$TypedAttribute@V?$basic_string@DU?$char_traits@D@std@@V?$allocator@D@2@@std@@@Imf@@@Header@Imf@@QBEPBV?$TypedAttribute@V?$basic_string@DU?$char_traits@D@std@@V?$allocator@D@2@@std@@@1@QBD@Z 100fa600 f i OpenExr:ImfHeader.obj
 0001:000f96e0       ??$typedAttribute@V?$TypedAttribute@V?$basic_string@DU?$char_traits@D@std@@V?$allocator@D@2@@std@@@Imf@@@Header@Imf@@QAEAAV?$TypedAttribute@V?$basic_string@DU?$char_traits@D@std@@V?$allocator@D@2@@std@@@1@QBD@Z 100fa6e0 f i OpenExr:ImfHeader.obj
 0001:000f9750       ??$typedAttribute@V?$TypedAttribute@V?$basic_string@DU?$char_traits@D@std@@V?$allocator@D@2@@std@@@Imf@@@Header@Imf@@QBEABV?$TypedAttribute@V?$basic_string@DU?$char_traits@D@std@@V?$allocator@D@2@@std@@@1@QBD@Z 100fa750 f i OpenExr:ImfHeader.obj
 0001:000f97c0       ??$?HDU?$char_traits@D@std@@V?$allocator@D@1@@std@@YA?AV?$basic_string@DU?$char_traits@D@std@@V?$allocator@D@2@@0@$$QAV10@PBD@Z 100fa7c0 f i OpenExr:ImfHeader.obj
 0001:000f9810       ??$?HDU?$char_traits@D@std@@V?$allocator@D@1@@std@@YA?AV?$basic_string@DU?$char_traits@D@std@@V?$allocator@D@2@@0@$$QAV10@ABV10@@Z 100fa810 f i OpenExr:ImfHeader.obj
 0001:000f9840       ??$findTypedAttribute@V?$TypedAttribute@H@Imf@@@Header@Imf@@QBEPBV?$TypedAttribute@H@1@QBD@Z 100fa840 f i OpenExr:ImfHeader.obj
 0001:000f9920       ??$typedAttribute@V?$TypedAttribute@H@Imf@@@Header@Imf@@QBEABV?$TypedAttribute@H@1@QBD@Z 100fa920 f i OpenExr:ImfHeader.obj
 0001:000f9990       ??$findTypedAttribute@V?$TypedAttribute@VTileDescription@Imf@@@Imf@@@Header@Imf@@QBEPBV?$TypedAttribute@VTileDescription@Imf@@@1@QBD@Z 100fa990 f i OpenExr:ImfHeader.obj
 0001:000f9a70       ??$typedAttribute@V?$TypedAttribute@VTileDescription@Imf@@@Imf@@@Header@Imf@@QBEABV?$TypedAttribute@VTileDescription@Imf@@@1@QBD@Z 100faa70 f i OpenExr:ImfHeader.obj
 0001:000f9a70       ??$typedAttribute@V?$TypedAttribute@VTileDescription@Imf@@@Imf@@@Header@Imf@@QAEAAV?$TypedAttribute@VTileDescription@Imf@@@1@QBD@Z 100faa70 f i OpenExr:ImfHeader.obj
 0001:000f9ae0       ??$findTypedAttribute@V?$TypedAttribute@VPreviewImage@Imf@@@Imf@@@Header@Imf@@QBEPBV?$TypedAttribute@VPreviewImage@Imf@@@1@QBD@Z 100faae0 f i OpenExr:ImfHeader.obj
 0001:000f9bc0       ??$checkIsNullTerminated@$0BAA@@?A0x4790e8d3@Imf@@YAXAAY0BAA@$$CBDPBD@Z 100fabc0 f i OpenExr:ImfHeader.obj
 0001:000f9ca0       ??_G?$TypedAttribute@V?$Vec3@H@Imath@@@Imf@@UAEPAXI@Z 100faca0 f i OpenExr:ImfHeader.obj
 0001:000f9ca0       ??_G?$TypedAttribute@V?$Matrix44@N@Imath@@@Imf@@UAEPAXI@Z 100faca0 f i OpenExr:ImfHeader.obj
 0001:000f9ca0       ??_E?$TypedAttribute@VKeyCode@Imf@@@Imf@@UAEPAXI@Z 100faca0 f i * CIL library *:* CIL module *
 0001:000f9ca0       ??_G?$TypedAttribute@V?$Matrix33@M@Imath@@@Imf@@UAEPAXI@Z 100faca0 f i OpenExr:ImfHeader.obj
 0001:000f9ca0       ??_G?$TypedAttribute@VRational@Imf@@@Imf@@UAEPAXI@Z 100faca0 f i OpenExr:ImfHeader.obj
 0001:000f9ca0       ??_G?$TypedAttribute@W4Envmap@Imf@@@Imf@@UAEPAXI@Z 100faca0 f i OpenExr:ImfHeader.obj
 0001:000f9ca0       ??_E?$TypedAttribute@W4Compression@Imf@@@Imf@@UAEPAXI@Z 100faca0 f i * CIL library *:* CIL module *
 0001:000f9ca0       ??_E?$TypedAttribute@V?$Box@V?$Vec2@H@Imath@@@Imath@@@Imf@@UAEPAXI@Z 100faca0 f i * CIL library *:* CIL module *
 0001:000f9ca0       ??_G?$TypedAttribute@V?$Box@V?$Vec2@M@Imath@@@Imath@@@Imf@@UAEPAXI@Z 100faca0 f i OpenExr:ImfHeader.obj
 0001:000f9ca0       ??_E?$TypedAttribute@V?$Vec2@N@Imath@@@Imf@@UAEPAXI@Z 100faca0 f i * CIL library *:* CIL module *
 0001:000f9ca0       ??_E?$TypedAttribute@V?$Matrix44@N@Imath@@@Imf@@UAEPAXI@Z 100faca0 f i * CIL library *:* CIL module *
 0001:000f9ca0       ??_E?$TypedAttribute@M@Imf@@UAEPAXI@Z 100faca0 f i * CIL library *:* CIL module *
 0001:000f9ca0       ??_E?$TypedAttribute@V?$Matrix33@M@Imath@@@Imf@@UAEPAXI@Z 100faca0 f i * CIL library *:* CIL module *
 0001:000f9ca0       ??_G?$TypedAttribute@V?$Vec3@N@Imath@@@Imf@@UAEPAXI@Z 100faca0 f i OpenExr:ImfHeader.obj
 0001:000f9ca0       ??_E?$TypedAttribute@W4LineOrder@Imf@@@Imf@@UAEPAXI@Z 100faca0 f i * CIL library *:* CIL module *
 0001:000f9ca0       ??_E?$TypedAttribute@VTimeCode@Imf@@@Imf@@UAEPAXI@Z 100faca0 f i * CIL library *:* CIL module *
 0001:000f9ca0       ??_G?$TypedAttribute@H@Imf@@UAEPAXI@Z 100faca0 f i OpenExr:ImfHeader.obj
 0001:000f9ca0       ??_G?$TypedAttribute@UChromaticities@Imf@@@Imf@@UAEPAXI@Z 100faca0 f i OpenExr:ImfHeader.obj
 0001:000f9ca0       ??_E?$TypedAttribute@V?$Vec2@M@Imath@@@Imf@@UAEPAXI@Z 100faca0 f i * CIL library *:* CIL module *
 0001:000f9ca0       ??_G?$TypedAttribute@VTileDescription@Imf@@@Imf@@UAEPAXI@Z 100faca0 f i OpenExr:ImfHeader.obj
 0001:000f9ca0       ??_G?$TypedAttribute@V?$Vec2@N@Imath@@@Imf@@UAEPAXI@Z 100faca0 f i OpenExr:ImfHeader.obj
 0001:000f9ca0       ??_E?$TypedAttribute@H@Imf@@UAEPAXI@Z 100faca0 f i * CIL library *:* CIL module *
 0001:000f9ca0       ??_G?$TypedAttribute@W4LineOrder@Imf@@@Imf@@UAEPAXI@Z 100faca0 f i OpenExr:ImfHeader.obj
 0001:000f9ca0       ??_GAttribute@Imf@@UAEPAXI@Z 100faca0 f i OpenExr:ImfAttribute.obj
 0001:000f9ca0       ??_E?$TypedAttribute@V?$Matrix44@M@Imath@@@Imf@@UAEPAXI@Z 100faca0 f i * CIL library *:* CIL module *
 0001:000f9ca0       ??_E?$TypedAttribute@V?$Box@V?$Vec2@M@Imath@@@Imath@@@Imf@@UAEPAXI@Z 100faca0 f i * CIL library *:* CIL module *
 0001:000f9ca0       ??_G?$TypedAttribute@V?$Matrix44@M@Imath@@@Imf@@UAEPAXI@Z 100faca0 f i OpenExr:ImfHeader.obj
 0001:000f9ca0       ??_G?$TypedAttribute@V?$Vec2@M@Imath@@@Imf@@UAEPAXI@Z 100faca0 f i OpenExr:ImfHeader.obj
 0001:000f9ca0       ??_E?$TypedAttribute@W4Envmap@Imf@@@Imf@@UAEPAXI@Z 100faca0 f i * CIL library *:* CIL module *
 0001:000f9ca0       ??_G?$TypedAttribute@W4Compression@Imf@@@Imf@@UAEPAXI@Z 100faca0 f i OpenExr:ImfHeader.obj
 0001:000f9ca0       ??_G?$TypedAttribute@M@Imf@@UAEPAXI@Z 100faca0 f i OpenExr:ImfHeader.obj
 0001:000f9ca0       ??_G?$TypedAttribute@V?$Vec3@M@Imath@@@Imf@@UAEPAXI@Z 100faca0 f i OpenExr:ImfHeader.obj
 0001:000f9ca0       ??_E?$TypedAttribute@V?$Vec2@H@Imath@@@Imf@@UAEPAXI@Z 100faca0 f i * CIL library *:* CIL module *
 0001:000f9ca0       ??_G?$TypedAttribute@V?$Matrix33@N@Imath@@@Imf@@UAEPAXI@Z 100faca0 f i OpenExr:ImfHeader.obj
 0001:000f9ca0       ??_E?$TypedAttribute@V?$Vec3@H@Imath@@@Imf@@UAEPAXI@Z 100faca0 f i * CIL library *:* CIL module *
 0001:000f9ca0       ??_G?$TypedAttribute@V?$Vec2@H@Imath@@@Imf@@UAEPAXI@Z 100faca0 f i OpenExr:ImfHeader.obj
 0001:000f9ca0       ??_E?$TypedAttribute@UChromaticities@Imf@@@Imf@@UAEPAXI@Z 100faca0 f i * CIL library *:* CIL module *
 0001:000f9ca0       ??_G?$TypedAttribute@N@Imf@@UAEPAXI@Z 100faca0 f i OpenExr:ImfHeader.obj
 0001:000f9ca0       ??_E?$TypedAttribute@VRational@Imf@@@Imf@@UAEPAXI@Z 100faca0 f i * CIL library *:* CIL module *
 0001:000f9ca0       ??_E?$TypedAttribute@VTileDescription@Imf@@@Imf@@UAEPAXI@Z 100faca0 f i * CIL library *:* CIL module *
 0001:000f9ca0       ??_E?$TypedAttribute@V?$Vec3@M@Imath@@@Imf@@UAEPAXI@Z 100faca0 f i * CIL library *:* CIL module *
 0001:000f9ca0       ??_G?$TypedAttribute@VTimeCode@Imf@@@Imf@@UAEPAXI@Z 100faca0 f i OpenExr:ImfHeader.obj
 0001:000f9ca0       ??_E?$TypedAttribute@V?$Matrix33@N@Imath@@@Imf@@UAEPAXI@Z 100faca0 f i * CIL library *:* CIL module *
 0001:000f9ca0       ??_G?$TypedAttribute@V?$Box@V?$Vec2@H@Imath@@@Imath@@@Imf@@UAEPAXI@Z 100faca0 f i OpenExr:ImfHeader.obj
 0001:000f9ca0       ??_G?$TypedAttribute@W4DeepImageState@Imf@@@Imf@@UAEPAXI@Z 100faca0 f i OpenExr:ImfHeader.obj
 0001:000f9ca0       ??_E?$TypedAttribute@N@Imf@@UAEPAXI@Z 100faca0 f i * CIL library *:* CIL module *
 0001:000f9ca0       ??_G?$TypedAttribute@VKeyCode@Imf@@@Imf@@UAEPAXI@Z 100faca0 f i OpenExr:ImfHeader.obj
 0001:000f9ca0       ??_EAttribute@Imf@@UAEPAXI@Z 100faca0 f i * CIL library *:* CIL module *
 0001:000f9ca0       ??_E?$TypedAttribute@V?$Vec3@N@Imath@@@Imf@@UAEPAXI@Z 100faca0 f i * CIL library *:* CIL module *
 0001:000f9ca0       ??_E?$TypedAttribute@W4DeepImageState@Imf@@@Imf@@UAEPAXI@Z 100faca0 f i * CIL library *:* CIL module *
 0001:000f9cd0       ??_E?$TypedAttribute@VChannelList@Imf@@@Imf@@UAEPAXI@Z 100facd0 f i * CIL library *:* CIL module *
 0001:000f9cd0       ??_G?$TypedAttribute@VChannelList@Imf@@@Imf@@UAEPAXI@Z 100facd0 f i OpenExr:ImfHeader.obj
 0001:000f9d20       ??_E?$TypedAttribute@V?$vector@MV?$allocator@M@std@@@std@@@Imf@@UAEPAXI@Z 100fad20 f i * CIL library *:* CIL module *
 0001:000f9d20       ??_G?$TypedAttribute@V?$vector@MV?$allocator@M@std@@@std@@@Imf@@UAEPAXI@Z 100fad20 f i OpenExr:ImfHeader.obj
 0001:000f9d70       ??_E?$TypedAttribute@VPreviewImage@Imf@@@Imf@@UAEPAXI@Z 100fad70 f i * CIL library *:* CIL module *
 0001:000f9d70       ??_G?$TypedAttribute@VPreviewImage@Imf@@@Imf@@UAEPAXI@Z 100fad70 f i OpenExr:ImfHeader.obj
 0001:000f9db0       ??_G?$TypedAttribute@V?$basic_string@DU?$char_traits@D@std@@V?$allocator@D@2@@std@@@Imf@@UAEPAXI@Z 100fadb0 f i OpenExr:ImfHeader.obj
 0001:000f9db0       ??_E?$TypedAttribute@V?$basic_string@DU?$char_traits@D@std@@V?$allocator@D@2@@std@@@Imf@@UAEPAXI@Z 100fadb0 f i * CIL library *:* CIL module *
 0001:000f9e00       ??_G?$TypedAttribute@V?$vector@V?$basic_string@DU?$char_traits@D@std@@V?$allocator@D@2@@std@@V?$allocator@V?$basic_string@DU?$char_traits@D@std@@V?$allocator@D@2@@std@@@2@@std@@@Imf@@UAEPAXI@Z 100fae00 f i OpenExr:ImfHeader.obj
 0001:000f9e00       ??_E?$TypedAttribute@V?$vector@V?$basic_string@DU?$char_traits@D@std@@V?$allocator@D@2@@std@@V?$allocator@V?$basic_string@DU?$char_traits@D@std@@V?$allocator@D@2@@std@@@2@@std@@@Imf@@UAEPAXI@Z 100fae00 f i * CIL library *:* CIL module *
 0001:000f9e60       ??6?$basic_ostream@DU?$char_traits@D@std@@@std@@QAEAAV01@I@Z 100fae60 f i OpenExr:ImfHeader.obj
 0001:000fa000       ??4?$vector@MV?$allocator@M@std@@@std@@QAEAAV01@ABV01@@Z 100fb000 f i OpenExr:ImfHeader.obj
 0001:000fa000       ??4?$vector@PAUInSliceInfo@?A0xad7979d8@Imf@@V?$allocator@PAUInSliceInfo@?A0xad7979d8@Imf@@@std@@@std@@QAEAAV01@ABV01@@Z 100fb000 f i OpenExr:ImfDeepScanLineInputFile.obj
 0001:000fa110       ??1?$vector@V?$basic_string@DU?$char_traits@D@std@@V?$allocator@D@2@@std@@V?$allocator@V?$basic_string@DU?$char_traits@D@std@@V?$allocator@D@2@@std@@@2@@std@@QAE@XZ 100fb110 f i OpenExr:ImfHeader.obj
 0001:000fa110       ?_Tidy@?$vector@V?$basic_string@DU?$char_traits@D@std@@V?$allocator@D@2@@std@@V?$allocator@V?$basic_string@DU?$char_traits@D@std@@V?$allocator@D@2@@std@@@2@@std@@IAEXXZ 100fb110 f i OpenExr:ImfHeader.obj
 0001:000fa150       ??4?$vector@V?$basic_string@DU?$char_traits@D@std@@V?$allocator@D@2@@std@@V?$allocator@V?$basic_string@DU?$char_traits@D@std@@V?$allocator@D@2@@std@@@2@@std@@QAEAAV01@ABV01@@Z 100fb150 f i OpenExr:ImfHeader.obj
 0001:000fa2d0       ?_Buy@?$vector@IV?$allocator@I@std@@@std@@IAE_NI@Z 100fb2d0 f i OpenExr:ImfCompositeDeepScanLine.obj
 0001:000fa2d0       ?_Buy@?$vector@PAVTileOffsets@Imf@@V?$allocator@PAVTileOffsets@Imf@@@std@@@std@@IAE_NI@Z 100fb2d0 f i OpenExr:ImfMultiPartInputFile.obj
 0001:000fa2d0       ?_Buy@?$vector@MV?$allocator@M@std@@@std@@IAE_NI@Z 100fb2d0 f i OpenExr:ImfHeader.obj
 0001:000fa2d0       ?_Buy@?$vector@PBDV?$allocator@PBD@std@@@std@@IAE_NI@Z 100fb2d0 f i OpenExr:ImfDwaCompressor.obj
 0001:000fa2d0       ?_Buy@?$vector@IV?$allocator@_N@std@@@std@@IAE_NI@Z 100fb2d0 f i OpenExr:ImfDwaCompressor.obj
 0001:000fa2d0       ?_Buy@?$vector@HV?$allocator@H@std@@@std@@IAE_NI@Z 100fb2d0 f i OpenExr:ImfMultiPartInputFile.obj
 0001:000fa2d0       ?_Buy@?$vector@PADV?$allocator@PAD@std@@@std@@IAE_NI@Z 100fb2d0 f i OpenExr:ImfDwaCompressor.obj
 0001:000fa2d0       ?_Buy@?$vector@PAUInSliceInfo@?A0xad7979d8@Imf@@V?$allocator@PAUInSliceInfo@?A0xad7979d8@Imf@@@std@@@std@@IAE_NI@Z 100fb2d0 f i OpenExr:ImfDeepScanLineInputFile.obj
 0001:000fa2d0       ?_Buy@?$vector@PBVHeader@Imf@@V?$allocator@PBVHeader@Imf@@@std@@@std@@IAE_NI@Z 100fb2d0 f i OpenExr:ImfCompositeDeepScanLine.obj
 0001:000fa2d0       ?_Buy@?$vector@PAGV?$allocator@PAG@std@@@std@@IAE_NI@Z 100fb2d0 f i OpenExr:ImfDwaCompressor.obj
 0001:000fa2d0       ?_Buy@?$vector@PBMV?$allocator@PBM@std@@@std@@IAE_NI@Z 100fb2d0 f i OpenExr:ImfCompositeDeepScanLine.obj
 0001:000fa340       ?_Buy@?$vector@V?$basic_string@DU?$char_traits@D@std@@V?$allocator@D@2@@std@@V?$allocator@V?$basic_string@DU?$char_traits@D@std@@V?$allocator@D@2@@std@@@2@@std@@IAE_NI@Z 100fb340 f i OpenExr:ImfHeader.obj
 0001:000fa3b0       ?_Destroy@?$vector@V?$basic_string@DU?$char_traits@D@std@@V?$allocator@D@2@@std@@V?$allocator@V?$basic_string@DU?$char_traits@D@std@@V?$allocator@D@2@@std@@@2@@std@@IAEXPAV?$basic_string@DU?$char_traits@D@std@@V?$allocator@D@2@@2@0@Z 100fb3b0 f i OpenExr:ImfHeader.obj
 0001:000fa3f0       ?makeNewAttribute@?$TypedAttribute@V?$Box@V?$Vec2@H@Imath@@@Imath@@@Imf@@SAPAVAttribute@2@XZ 100fb3f0 f i OpenExr:ImfHeader.obj
 0001:000fa430       ?makeNewAttribute@?$TypedAttribute@V?$Box@V?$Vec2@M@Imath@@@Imath@@@Imf@@SAPAVAttribute@2@XZ 100fb430 f i OpenExr:ImfHeader.obj
 0001:000fa470       ?makeNewAttribute@?$TypedAttribute@VChannelList@Imf@@@Imf@@SAPAVAttribute@2@XZ 100fb470 f i OpenExr:ImfHeader.obj
 0001:000fa500       ?makeNewAttribute@?$TypedAttribute@UChromaticities@Imf@@@Imf@@SAPAVAttribute@2@XZ 100fb500 f i OpenExr:ImfHeader.obj
 0001:000fa560       ?makeNewAttribute@?$TypedAttribute@W4Compression@Imf@@@Imf@@SAPAVAttribute@2@XZ 100fb560 f i OpenExr:ImfHeader.obj
 0001:000fa580       ?makeNewAttribute@?$TypedAttribute@W4DeepImageState@Imf@@@Imf@@SAPAVAttribute@2@XZ 100fb580 f i OpenExr:ImfHeader.obj
 0001:000fa5a0       ?makeNewAttribute@?$TypedAttribute@N@Imf@@SAPAVAttribute@2@XZ 100fb5a0 f i OpenExr:ImfHeader.obj
 0001:000fa5c0       ??$write@UStreamIO@Imf@@VOStream@2@@Xdr@Imf@@YAXAAVOStream@1@N@Z 100fb5c0 f i OpenExr:ImfHeader.obj
 0001:000fa650       ??$read@UStreamIO@Imf@@VIStream@2@@Xdr@Imf@@YAXAAVIStream@1@AAN@Z 100fb650 f i OpenExr:ImfHeader.obj
 0001:000fa700       ?makeNewAttribute@?$TypedAttribute@W4Envmap@Imf@@@Imf@@SAPAVAttribute@2@XZ 100fb700 f i OpenExr:ImfHeader.obj
 0001:000fa720       ?makeNewAttribute@?$TypedAttribute@M@Imf@@SAPAVAttribute@2@XZ 100fb720 f i OpenExr:ImfHeader.obj
 0001:000fa740       ?makeNewAttribute@?$TypedAttribute@V?$vector@MV?$allocator@M@std@@@std@@@Imf@@SAPAVAttribute@2@XZ 100fb740 f i OpenExr:ImfHeader.obj
 0001:000fa770       ?makeNewAttribute@?$TypedAttribute@H@Imf@@SAPAVAttribute@2@XZ 100fb770 f i OpenExr:ImfHeader.obj
 0001:000fa790       ?makeNewAttribute@?$TypedAttribute@VKeyCode@Imf@@@Imf@@SAPAVAttribute@2@XZ 100fb790 f i OpenExr:ImfHeader.obj
 0001:000fa820       ?makeNewAttribute@?$TypedAttribute@W4LineOrder@Imf@@@Imf@@SAPAVAttribute@2@XZ 100fb820 f i OpenExr:ImfHeader.obj
 0001:000fa840       ?makeNewAttribute@?$TypedAttribute@V?$Matrix33@M@Imath@@@Imf@@SAPAVAttribute@2@XZ 100fb840 f i OpenExr:ImfHeader.obj
 0001:000fa890       ?makeNewAttribute@?$TypedAttribute@V?$Matrix33@N@Imath@@@Imf@@SAPAVAttribute@2@XZ 100fb890 f i OpenExr:ImfHeader.obj
 0001:000fa8e0       ?makeNewAttribute@?$TypedAttribute@V?$Matrix44@M@Imath@@@Imf@@SAPAVAttribute@2@XZ 100fb8e0 f i OpenExr:ImfHeader.obj
 0001:000fa930       ??4?$Matrix44@M@Imath@@QAEABV01@ABV01@@Z 100fb930 f i OpenExr:ImfHeader.obj
 0001:000fa9a0       ?makeNewAttribute@?$TypedAttribute@V?$Matrix44@N@Imath@@@Imf@@SAPAVAttribute@2@XZ 100fb9a0 f i OpenExr:ImfHeader.obj
 0001:000faa00       ?makeNewAttribute@?$TypedAttribute@VPreviewImage@Imf@@@Imf@@SAPAVAttribute@2@XZ 100fba00 f i OpenExr:ImfHeader.obj
 0001:000faa80       ?makeNewAttribute@?$TypedAttribute@VRational@Imf@@@Imf@@SAPAVAttribute@2@XZ 100fba80 f i OpenExr:ImfHeader.obj
 0001:000faab0       ?makeNewAttribute@?$TypedAttribute@V?$basic_string@DU?$char_traits@D@std@@V?$allocator@D@2@@std@@@Imf@@SAPAVAttribute@2@XZ 100fbab0 f i OpenExr:ImfHeader.obj
 0001:000faae0       ?makeNewAttribute@?$TypedAttribute@V?$vector@V?$basic_string@DU?$char_traits@D@std@@V?$allocator@D@2@@std@@V?$allocator@V?$basic_string@DU?$char_traits@D@std@@V?$allocator@D@2@@std@@@2@@std@@@Imf@@SAPAVAttribute@2@XZ 100fbae0 f i OpenExr:ImfHeader.obj
 0001:000fab10       ?makeNewAttribute@?$TypedAttribute@VTileDescription@Imf@@@Imf@@SAPAVAttribute@2@XZ 100fbb10 f i OpenExr:ImfHeader.obj
 0001:000fab50       ?makeNewAttribute@?$TypedAttribute@VTimeCode@Imf@@@Imf@@SAPAVAttribute@2@XZ 100fbb50 f i OpenExr:ImfHeader.obj
 0001:000fab80       ?makeNewAttribute@?$TypedAttribute@V?$Vec2@H@Imath@@@Imf@@SAPAVAttribute@2@XZ 100fbb80 f i OpenExr:ImfHeader.obj
 0001:000faba0       ?makeNewAttribute@?$TypedAttribute@V?$Vec2@M@Imath@@@Imf@@SAPAVAttribute@2@XZ 100fbba0 f i OpenExr:ImfHeader.obj
 0001:000fabc0       ?makeNewAttribute@?$TypedAttribute@V?$Vec2@N@Imath@@@Imf@@SAPAVAttribute@2@XZ 100fbbc0 f i OpenExr:ImfHeader.obj
 0001:000fabe0       ?makeNewAttribute@?$TypedAttribute@V?$Vec3@H@Imath@@@Imf@@SAPAVAttribute@2@XZ 100fbbe0 f i OpenExr:ImfHeader.obj
 0001:000fac00       ?makeNewAttribute@?$TypedAttribute@V?$Vec3@M@Imath@@@Imf@@SAPAVAttribute@2@XZ 100fbc00 f i OpenExr:ImfHeader.obj
 0001:000fac20       ?makeNewAttribute@?$TypedAttribute@V?$Vec3@N@Imath@@@Imf@@SAPAVAttribute@2@XZ 100fbc20 f i OpenExr:ImfHeader.obj
 0001:000fac40       ??$_Buynode@ABUpiecewise_construct_t@std@@V?$tuple@$$QAVName@Imf@@@2@V?$tuple@$$$V@2@@?$_Tree_buy@U?$pair@$$CBVName@Imf@@PAVAttribute@2@@std@@V?$allocator@U?$pair@$$CBVName@Imf@@PAVAttribute@2@@std@@@2@@std@@QAEPAU?$_Tree_node@U?$pair@$$CBVName@Imf@@PAVAttribute@2@@std@@PAX@1@ABUpiecewise_construct_t@1@$$QAV?$tuple@$$QAVName@Imf@@@1@$$QAV?$tuple@$$$V@1@@Z 100fbc40 f i OpenExr:ImfHeader.obj
 0001:000fac80       ??$_Insert_hint@AAU?$pair@$$CBVName@Imf@@PAVAttribute@2@@std@@PAU?$_Tree_node@U?$pair@$$CBVName@Imf@@PAVAttribute@2@@std@@PAX@2@@?$_Tree@V?$_Tmap_traits@VName@Imf@@PAVAttribute@2@U?$less@VName@Imf@@@std@@V?$allocator@U?$pair@$$CBVName@Imf@@PAVAttribute@2@@std@@@5@$0A@@std@@@std@@IAE?AV?$_Tree_iterator@V?$_Tree_val@U?$_Tree_simple_types@U?$pair@$$CBVName@Imf@@PAVAttribute@2@@std@@@std@@@std@@@1@V?$_Tree_const_iterator@V?$_Tree_val@U?$_Tree_simple_types@U?$pair@$$CBVName@Imf@@PAVAttribute@2@@std@@@std@@@std@@@1@AAU?$pair@$$CBVName@Imf@@PAVAttribute@2@@1@PAU?$_Tree_node@U?$pair@$$CBVName@Imf@@PAVAttribute@2@@std@@PAX@1@@Z 100fbc80 f i OpenExr:ImfHeader.obj
 0001:000faed0       ??$_Copy_impl@PAV?$basic_string@DU?$char_traits@D@std@@V?$allocator@D@2@@std@@PAV12@@std@@YAPAV?$basic_string@DU?$char_traits@D@std@@V?$allocator@D@2@@0@PAV10@00@Z 100fbed0 f i OpenExr:ImfHeader.obj
 0001:000faf10       ?_Buynode0@?$_Tree_buy@U?$pair@$$CBVName@Imf@@PAVAttribute@2@@std@@V?$allocator@U?$pair@$$CBVName@Imf@@PAVAttribute@2@@std@@@2@@std@@QAEPAU?$_Tree_node@U?$pair@$$CBVName@Imf@@PAVAttribute@2@@std@@PAX@2@XZ 100fbf10 f i OpenExr:ImfHeader.obj
 0001:000faf50       ??F?$_Tree_unchecked_const_iterator@V?$_Tree_val@U?$_Tree_simple_types@U?$pair@$$CBVName@Imf@@USlice@2@@std@@@std@@@std@@U_Iterator_base0@2@@std@@QAEAAV01@XZ 100fbf50 f i OpenExr:ImfFrameBuffer.obj
 0001:000faf50       ??F?$_Tree_unchecked_const_iterator@V?$_Tree_val@U?$_Tree_simple_types@U?$pair@$$CBVName@Imf@@PAVAttribute@2@@std@@@std@@@std@@U_Iterator_base0@2@@std@@QAEAAV01@XZ 100fbf50 f i OpenExr:ImfHeader.obj
 0001:000faf50       ??F?$_Tree_unchecked_const_iterator@V?$_Tree_val@U?$_Tree_simple_types@U?$pair@QBDP6APAVAttribute@Imf@@XZ@std@@@std@@@std@@U_Iterator_base0@2@@std@@QAEAAV01@XZ 100fbf50 f i OpenExr:ImfAttribute.obj
 0001:000faf50       ??F?$_Tree_unchecked_const_iterator@V?$_Tree_val@U?$_Tree_simple_types@V?$basic_string@DU?$char_traits@D@std@@V?$allocator@D@2@@std@@@std@@@std@@U_Iterator_base0@2@@std@@QAEAAV01@XZ 100fbf50 f i OpenExr:ImfChannelList.obj
 0001:000faf50       ??F?$_Tree_unchecked_const_iterator@V?$_Tree_val@U?$_Tree_simple_types@U?$pair@$$CBV?$basic_string@DU?$char_traits@D@std@@V?$allocator@D@2@@std@@UCscChannelSet@DwaCompressor@Imf@@@std@@@std@@@std@@U_Iterator_base0@2@@std@@QAEAAV01@XZ 100fbf50 f i OpenExr:ImfDwaCompressor.obj
 0001:000faf50       ??F?$_Tree_unchecked_const_iterator@V?$_Tree_val@U?$_Tree_simple_types@U?$pair@$$CBVName@Imf@@UDeepSlice@2@@std@@@std@@@std@@U_Iterator_base0@2@@std@@QAEAAV01@XZ 100fbf50 f i OpenExr:ImfDeepFrameBuffer.obj
 0001:000faf50       ??F?$_Tree_unchecked_const_iterator@V?$_Tree_val@U?$_Tree_simple_types@U?$pair@$$CBVName@Imf@@UChannel@2@@std@@@std@@@std@@U_Iterator_base0@2@@std@@QAEAAV01@XZ 100fbf50 f i OpenExr:ImfChannelList.obj
 0001:000fafb0       ??$_Insert_at@AAU?$pair@$$CBVName@Imf@@PAVAttribute@2@@std@@PAU?$_Tree_node@U?$pair@$$CBVName@Imf@@PAVAttribute@2@@std@@PAX@2@@?$_Tree@V?$_Tmap_traits@VName@Imf@@PAVAttribute@2@U?$less@VName@Imf@@@std@@V?$allocator@U?$pair@$$CBVName@Imf@@PAVAttribute@2@@std@@@5@$0A@@std@@@std@@IAE?AV?$_Tree_iterator@V?$_Tree_val@U?$_Tree_simple_types@U?$pair@$$CBVName@Imf@@PAVAttribute@2@@std@@@std@@@std@@@1@_NPAU?$_Tree_node@U?$pair@$$CBVName@Imf@@PAVAttribute@2@@std@@PAX@1@AAU?$pair@$$CBVName@Imf@@PAVAttribute@2@@1@1@Z 100fbfb0 f i OpenExr:ImfHeader.obj
 0001:000fb190       ??$_Insert_nohint@AAU?$pair@$$CBVName@Imf@@PAVAttribute@2@@std@@PAU?$_Tree_node@U?$pair@$$CBVName@Imf@@PAVAttribute@2@@std@@PAX@2@@?$_Tree@V?$_Tmap_traits@VName@Imf@@PAVAttribute@2@U?$less@VName@Imf@@@std@@V?$allocator@U?$pair@$$CBVName@Imf@@PAVAttribute@2@@std@@@5@$0A@@std@@@std@@IAE?AU?$pair@V?$_Tree_iterator@V?$_Tree_val@U?$_Tree_simple_types@U?$pair@$$CBVName@Imf@@PAVAttribute@2@@std@@@std@@@std@@@std@@_N@1@_NAAU?$pair@$$CBVName@Imf@@PAVAttribute@2@@1@PAU?$_Tree_node@U?$pair@$$CBVName@Imf@@PAVAttribute@2@@std@@PAX@1@@Z 100fc190 f i OpenExr:ImfHeader.obj
 0001:000fb2f0       ??$_Uninit_copy@PAV?$basic_string@DU?$char_traits@D@std@@V?$allocator@D@2@@std@@PAV12@V?$allocator@V?$basic_string@DU?$char_traits@D@std@@V?$allocator@D@2@@std@@@2@@std@@YAPAV?$basic_string@DU?$char_traits@D@std@@V?$allocator@D@2@@0@PAV10@00AAU?$_Wrap_alloc@V?$allocator@V?$basic_string@DU?$char_traits@D@std@@V?$allocator@D@2@@std@@@std@@@0@U_Nonscalar_ptr_iterator_tag@0@@Z 100fc2f0 f i OpenExr:ImfHeader.obj
 0001:000fb39f       ??_E?$basic_ostringstream@DU?$char_traits@D@std@@V?$allocator@D@2@@std@@$4PPPPPPPM@A@AEPAXI@Z 100fc39f f i OpenExr:ImfHeader.obj
 0001:000fb3b0       ??$findTypedAttribute@V?$TypedAttribute@UChromaticities@Imf@@@Imf@@@Header@Imf@@QBEPBV?$TypedAttribute@UChromaticities@Imf@@@1@QBD@Z 100fc3b0 f i OpenExr:ImfStandardAttributes.obj
 0001:000fb490       ??$typedAttribute@V?$TypedAttribute@UChromaticities@Imf@@@Imf@@@Header@Imf@@QBEABV?$TypedAttribute@UChromaticities@Imf@@@1@QBD@Z 100fc490 f i OpenExr:ImfStandardAttributes.obj
 0001:000fb500       ??$findTypedAttribute@V?$TypedAttribute@M@Imf@@@Header@Imf@@QBEPBV?$TypedAttribute@M@1@QBD@Z 100fc500 f i OpenExr:ImfStandardAttributes.obj
 0001:000fb5e0       ??$findTypedAttribute@V?$TypedAttribute@VTimeCode@Imf@@@Imf@@@Header@Imf@@QBEPBV?$TypedAttribute@VTimeCode@Imf@@@1@QBD@Z 100fc5e0 f i OpenExr:ImfStandardAttributes.obj
 0001:000fb6c0       ?insert@FrameBuffer@Imf@@QAEXQBDABUSlice@2@@Z 100fc6c0 f   OpenExr:ImfFrameBuffer.obj
 0001:000fb7e0       ??AFrameBuffer@Imf@@QAEAAUSlice@1@QBD@Z 100fc7e0 f   OpenExr:ImfFrameBuffer.obj
 0001:000fb920       ?find@FrameBuffer@Imf@@QBE?AVConstIterator@12@QBD@Z 100fc920 f   OpenExr:ImfFrameBuffer.obj
 0001:000fb920       ?find@ChannelList@Imf@@QBE?AVConstIterator@12@QBD@Z 100fc920 f   OpenExr:ImfChannelList.obj
 0001:000fb9d0       ??A?$map@VName@Imf@@USlice@2@U?$less@VName@Imf@@@std@@V?$allocator@U?$pair@$$CBVName@Imf@@USlice@2@@std@@@5@@std@@QAEAAUSlice@Imf@@$$QAVName@3@@Z 100fc9d0 f i OpenExr:ImfFrameBuffer.obj
 0001:000fba60       ??$_Buynode@ABUpiecewise_construct_t@std@@V?$tuple@$$QAVName@Imf@@@2@V?$tuple@$$$V@2@@?$_Tree_buy@U?$pair@$$CBVName@Imf@@USlice@2@@std@@V?$allocator@U?$pair@$$CBVName@Imf@@USlice@2@@std@@@2@@std@@QAEPAU?$_Tree_node@U?$pair@$$CBVName@Imf@@USlice@2@@std@@PAX@1@ABUpiecewise_construct_t@1@$$QAV?$tuple@$$QAVName@Imf@@@1@$$QAV?$tuple@$$$V@1@@Z 100fca60 f i OpenExr:ImfFrameBuffer.obj
 0001:000fbaa0       ??$_Insert_hint@AAU?$pair@$$CBVName@Imf@@USlice@2@@std@@PAU?$_Tree_node@U?$pair@$$CBVName@Imf@@USlice@2@@std@@PAX@2@@?$_Tree@V?$_Tmap_traits@VName@Imf@@USlice@2@U?$less@VName@Imf@@@std@@V?$allocator@U?$pair@$$CBVName@Imf@@USlice@2@@std@@@5@$0A@@std@@@std@@IAE?AV?$_Tree_iterator@V?$_Tree_val@U?$_Tree_simple_types@U?$pair@$$CBVName@Imf@@USlice@2@@std@@@std@@@std@@@1@V?$_Tree_const_iterator@V?$_Tree_val@U?$_Tree_simple_types@U?$pair@$$CBVName@Imf@@USlice@2@@std@@@std@@@std@@@1@AAU?$pair@$$CBVName@Imf@@USlice@2@@1@PAU?$_Tree_node@U?$pair@$$CBVName@Imf@@USlice@2@@std@@PAX@1@@Z 100fcaa0 f i OpenExr:ImfFrameBuffer.obj
 0001:000fbcf0       ?_Buynode0@?$_Tree_buy@U?$pair@$$CBVName@Imf@@USlice@2@@std@@V?$allocator@U?$pair@$$CBVName@Imf@@USlice@2@@std@@@2@@std@@QAEPAU?$_Tree_node@U?$pair@$$CBVName@Imf@@USlice@2@@std@@PAX@2@XZ 100fccf0 f i OpenExr:ImfFrameBuffer.obj
 0001:000fbd30       ??$_Insert_at@AAU?$pair@$$CBVName@Imf@@USlice@2@@std@@PAU?$_Tree_node@U?$pair@$$CBVName@Imf@@USlice@2@@std@@PAX@2@@?$_Tree@V?$_Tmap_traits@VName@Imf@@USlice@2@U?$less@VName@Imf@@@std@@V?$allocator@U?$pair@$$CBVName@Imf@@USlice@2@@std@@@5@$0A@@std@@@std@@IAE?AV?$_Tree_iterator@V?$_Tree_val@U?$_Tree_simple_types@U?$pair@$$CBVName@Imf@@USlice@2@@std@@@std@@@std@@@1@_NPAU?$_Tree_node@U?$pair@$$CBVName@Imf@@USlice@2@@std@@PAX@1@AAU?$pair@$$CBVName@Imf@@USlice@2@@1@1@Z 100fcd30 f i OpenExr:ImfFrameBuffer.obj
 0001:000fbf10       ??$_Insert_nohint@AAU?$pair@$$CBVName@Imf@@USlice@2@@std@@PAU?$_Tree_node@U?$pair@$$CBVName@Imf@@USlice@2@@std@@PAX@2@@?$_Tree@V?$_Tmap_traits@VName@Imf@@USlice@2@U?$less@VName@Imf@@@std@@V?$allocator@U?$pair@$$CBVName@Imf@@USlice@2@@std@@@5@$0A@@std@@@std@@IAE?AU?$pair@V?$_Tree_iterator@V?$_Tree_val@U?$_Tree_simple_types@U?$pair@$$CBVName@Imf@@USlice@2@@std@@@std@@@std@@@std@@_N@1@_NAAU?$pair@$$CBVName@Imf@@USlice@2@@1@PAU?$_Tree_node@U?$pair@$$CBVName@Imf@@USlice@2@@std@@PAX@1@@Z 100fcf10 f i OpenExr:ImfFrameBuffer.obj
 0001:000fc070       ??$?0$$QAVName@Imf@@$$$V@?$pair@$$CBVName@Imf@@USlice@2@@std@@QAE@Upiecewise_construct_t@1@V?$tuple@$$QAVName@Imf@@@1@V?$tuple@$$$V@1@@Z 100fd070 f i OpenExr:ImfFrameBuffer.obj
 0001:000fc0e0       ?insert@ChannelList@Imf@@QAEXQBDABUChannel@2@@Z 100fd0e0 f   OpenExr:ImfChannelList.obj
 0001:000fc1d0       ?findChannel@ChannelList@Imf@@QBEPBUChannel@2@QBD@Z 100fd1d0 f   OpenExr:ImfChannelList.obj
 0001:000fc290       ??A?$map@VName@Imf@@UChannel@2@U?$less@VName@Imf@@@std@@V?$allocator@U?$pair@$$CBVName@Imf@@UChannel@2@@std@@@5@@std@@QAEAAUChannel@Imf@@$$QAVName@3@@Z 100fd290 f i OpenExr:ImfChannelList.obj
 0001:000fc320       ?rfind@?$basic_string@DU?$char_traits@D@std@@V?$allocator@D@2@@std@@QBEIPBDII@Z 100fd320 f i OpenExr:ImfChannelList.obj
 0001:000fc3a0       ?_Erase@?$_Tree@V?$_Tmap_traits@V?$basic_string@DU?$char_traits@D@std@@V?$allocator@D@2@@std@@UCscChannelSet@DwaCompressor@Imf@@U?$less@V?$basic_string@DU?$char_traits@D@std@@V?$allocator@D@2@@std@@@2@V?$allocator@U?$pair@$$CBV?$basic_string@DU?$char_traits@D@std@@V?$allocator@D@2@@std@@UCscChannelSet@DwaCompressor@Imf@@@std@@@2@$0A@@std@@@std@@IAEXPAU?$_Tree_node@U?$pair@$$CBV?$basic_string@DU?$char_traits@D@std@@V?$allocator@D@2@@std@@UCscChannelSet@DwaCompressor@Imf@@@std@@PAX@2@@Z 100fd3a0 f i OpenExr:ImfDwaCompressor.obj
 0001:000fc3a0       ?_Erase@?$_Tree@V?$_Tset_traits@V?$basic_string@DU?$char_traits@D@std@@V?$allocator@D@2@@std@@U?$less@V?$basic_string@DU?$char_traits@D@std@@V?$allocator@D@2@@std@@@2@V?$allocator@V?$basic_string@DU?$char_traits@D@std@@V?$allocator@D@2@@std@@@2@$0A@@std@@@std@@IAEXPAU?$_Tree_node@V?$basic_string@DU?$char_traits@D@std@@V?$allocator@D@2@@std@@PAX@2@@Z 100fd3a0 f i OpenExr:ImfChannelList.obj
 0001:000fc400       ??$_Insert_nohint@ABV?$basic_string@DU?$char_traits@D@std@@V?$allocator@D@2@@std@@U_Nil@2@@?$_Tree@V?$_Tset_traits@V?$basic_string@DU?$char_traits@D@std@@V?$allocator@D@2@@std@@U?$less@V?$basic_string@DU?$char_traits@D@std@@V?$allocator@D@2@@std@@@2@V?$allocator@V?$basic_string@DU?$char_traits@D@std@@V?$allocator@D@2@@std@@@2@$0A@@std@@@std@@IAE?AU?$pair@V?$_Tree_const_iterator@V?$_Tree_val@U?$_Tree_simple_types@V?$basic_string@DU?$char_traits@D@std@@V?$allocator@D@2@@std@@@std@@@std@@@std@@_N@1@_NABV?$basic_string@DU?$char_traits@D@std@@V?$allocator@D@2@@1@U_Nil@1@@Z 100fd400 f i OpenExr:ImfChannelList.obj
 0001:000fc5b0       ??R?$less@V?$basic_string@DU?$char_traits@D@std@@V?$allocator@D@2@@std@@@std@@QBE_NABV?$basic_string@DU?$char_traits@D@std@@V?$allocator@D@2@@1@0@Z 100fd5b0 f i OpenExr:ImfChannelList.obj
 0001:000fc610       ??$_Buynode@ABUpiecewise_construct_t@std@@V?$tuple@$$QAVName@Imf@@@2@V?$tuple@$$$V@2@@?$_Tree_buy@U?$pair@$$CBVName@Imf@@UChannel@2@@std@@V?$allocator@U?$pair@$$CBVName@Imf@@UChannel@2@@std@@@2@@std@@QAEPAU?$_Tree_node@U?$pair@$$CBVName@Imf@@UChannel@2@@std@@PAX@1@ABUpiecewise_construct_t@1@$$QAV?$tuple@$$QAVName@Imf@@@1@$$QAV?$tuple@$$$V@1@@Z 100fd610 f i OpenExr:ImfChannelList.obj
 0001:000fc660       ??$_Insert_hint@AAU?$pair@$$CBVName@Imf@@UChannel@2@@std@@PAU?$_Tree_node@U?$pair@$$CBVName@Imf@@UChannel@2@@std@@PAX@2@@?$_Tree@V?$_Tmap_traits@VName@Imf@@UChannel@2@U?$less@VName@Imf@@@std@@V?$allocator@U?$pair@$$CBVName@Imf@@UChannel@2@@std@@@5@$0A@@std@@@std@@IAE?AV?$_Tree_iterator@V?$_Tree_val@U?$_Tree_simple_types@U?$pair@$$CBVName@Imf@@UChannel@2@@std@@@std@@@std@@@1@V?$_Tree_const_iterator@V?$_Tree_val@U?$_Tree_simple_types@U?$pair@$$CBVName@Imf@@UChannel@2@@std@@@std@@@std@@@1@AAU?$pair@$$CBVName@Imf@@UChannel@2@@1@PAU?$_Tree_node@U?$pair@$$CBVName@Imf@@UChannel@2@@std@@PAX@1@@Z 100fd660 f i OpenExr:ImfChannelList.obj
 0001:000fc8b0       ??$_Insert_at@ABV?$basic_string@DU?$char_traits@D@std@@V?$allocator@D@2@@std@@U_Nil@2@@?$_Tree@V?$_Tset_traits@V?$basic_string@DU?$char_traits@D@std@@V?$allocator@D@2@@std@@U?$less@V?$basic_string@DU?$char_traits@D@std@@V?$allocator@D@2@@std@@@2@V?$allocator@V?$basic_string@DU?$char_traits@D@std@@V?$allocator@D@2@@std@@@2@$0A@@std@@@std@@IAE?AV?$_Tree_const_iterator@V?$_Tree_val@U?$_Tree_simple_types@V?$basic_string@DU?$char_traits@D@std@@V?$allocator@D@2@@std@@@std@@@std@@@1@_NPAU?$_Tree_node@V?$basic_string@DU?$char_traits@D@std@@V?$allocator@D@2@@std@@PAX@1@ABV?$basic_string@DU?$char_traits@D@std@@V?$allocator@D@2@@1@U_Nil@1@@Z 100fd8b0 f i OpenExr:ImfChannelList.obj
 0001:000fca80       ??$_Insert_at@AAU?$pair@$$CBVName@Imf@@UChannel@2@@std@@PAU?$_Tree_node@U?$pair@$$CBVName@Imf@@UChannel@2@@std@@PAX@2@@?$_Tree@V?$_Tmap_traits@VName@Imf@@UChannel@2@U?$less@VName@Imf@@@std@@V?$allocator@U?$pair@$$CBVName@Imf@@UChannel@2@@std@@@5@$0A@@std@@@std@@IAE?AV?$_Tree_iterator@V?$_Tree_val@U?$_Tree_simple_types@U?$pair@$$CBVName@Imf@@UChannel@2@@std@@@std@@@std@@@1@_NPAU?$_Tree_node@U?$pair@$$CBVName@Imf@@UChannel@2@@std@@PAX@1@AAU?$pair@$$CBVName@Imf@@UChannel@2@@1@1@Z 100fda80 f i OpenExr:ImfChannelList.obj
 0001:000fcc60       ??$_Insert_nohint@AAU?$pair@$$CBVName@Imf@@UChannel@2@@std@@PAU?$_Tree_node@U?$pair@$$CBVName@Imf@@UChannel@2@@std@@PAX@2@@?$_Tree@V?$_Tmap_traits@VName@Imf@@UChannel@2@U?$less@VName@Imf@@@std@@V?$allocator@U?$pair@$$CBVName@Imf@@UChannel@2@@std@@@5@$0A@@std@@@std@@IAE?AU?$pair@V?$_Tree_iterator@V?$_Tree_val@U?$_Tree_simple_types@U?$pair@$$CBVName@Imf@@UChannel@2@@std@@@std@@@std@@@std@@_N@1@_NAAU?$pair@$$CBVName@Imf@@UChannel@2@@1@PAU?$_Tree_node@U?$pair@$$CBVName@Imf@@UChannel@2@@std@@PAX@1@@Z 100fdc60 f i OpenExr:ImfChannelList.obj
 0001:000fcdc0       ??$_Buynode@ABV?$basic_string@DU?$char_traits@D@std@@V?$allocator@D@2@@std@@@?$_Tree_buy@V?$basic_string@DU?$char_traits@D@std@@V?$allocator@D@2@@std@@V?$allocator@V?$basic_string@DU?$char_traits@D@std@@V?$allocator@D@2@@std@@@2@@std@@QAEPAU?$_Tree_node@V?$basic_string@DU?$char_traits@D@std@@V?$allocator@D@2@@std@@PAX@1@ABV?$basic_string@DU?$char_traits@D@std@@V?$allocator@D@2@@1@@Z 100fddc0 f i OpenExr:ImfChannelList.obj
 0001:000fce60       ?_Buynode0@?$_Tree_buy@V?$basic_string@DU?$char_traits@D@std@@V?$allocator@D@2@@std@@V?$allocator@V?$basic_string@DU?$char_traits@D@std@@V?$allocator@D@2@@std@@@2@@std@@QAEPAU?$_Tree_node@V?$basic_string@DU?$char_traits@D@std@@V?$allocator@D@2@@std@@PAX@2@XZ 100fde60 f i OpenExr:ImfChannelList.obj
 0001:000fcea0       ??1GenericInputFile@Imf@@UAE@XZ 100fdea0 f i OpenExr:ImfInputFile.obj
 0001:000fceb0       ??_EGenericInputFile@Imf@@UAEPAXI@Z 100fdeb0 f i * CIL library *:* CIL module *
 0001:000fceb0       ??_GGenericInputFile@Imf@@UAEPAXI@Z 100fdeb0 f i OpenExr:ImfInputFile.obj
 0001:000fcee0       ??_EOutputStreamMutex@Imf@@UAEPAXI@Z 100fdee0 f i * CIL library *:* CIL module *
 0001:000fcee0       ??_GInputStreamMutex@Imf@@UAEPAXI@Z 100fdee0 f i OpenExr:ImfInputFile.obj
 0001:000fcee0       ??_EInputStreamMutex@Imf@@UAEPAXI@Z 100fdee0 f i * CIL library *:* CIL module *
 0001:000fcee0       ??_GOutputStreamMutex@Imf@@UAEPAXI@Z 100fdee0 f i OpenExr:ImfOutputFile.obj
 0001:000fcee0       ??_GMutex@IlmThread@@UAEPAXI@Z 100fdee0 f i IlmBase:IlmThreadMutexWin32.obj
 0001:000fcee0       ??_EMutex@IlmThread@@UAEPAXI@Z 100fdee0 f i * CIL library *:* CIL module *
 0001:000fcf10       ??1Mutex@IlmThread@@UAE@XZ 100fdf10 f i IlmBase:IlmThreadMutexWin32.obj
 0001:000fcf10       ??1InputStreamMutex@Imf@@UAE@XZ 100fdf10 f i OpenExr:ImfInputFile.obj
 0001:000fcf30       ??0Data@InputFile@Imf@@QAE@H@Z 100fdf30 f   OpenExr:ImfInputFile.obj
 0001:000fd070       ??_EData@InputFile@Imf@@UAEPAXI@Z 100fe070 f i * CIL library *:* CIL module *
 0001:000fd070       ??_GData@InputFile@Imf@@UAEPAXI@Z 100fe070 f i OpenExr:ImfInputFile.obj
 0001:000fd0a0       ??1Data@InputFile@Imf@@UAE@XZ 100fe0a0 f   OpenExr:ImfInputFile.obj
 0001:000fd180       ?deleteCachedBuffer@Data@InputFile@Imf@@QAEXXZ 100fe180 f   OpenExr:ImfInputFile.obj
 0001:000fd2b0       ?bufferedReadPixels@?A0x01516cbc@Imf@@YAXPAUData@InputFile@2@HH@Z 100fe2b0 f   OpenExr:ImfInputFile.obj
 0001:000fd740       ??_GInputFile@Imf@@UAEPAXI@Z 100fe740 f i OpenExr:ImfInputFile.obj
 0001:000fd740       ??_EInputFile@Imf@@UAEPAXI@Z 100fe740 f i * CIL library *:* CIL module *
 0001:000fd7e0       ??0InputFile@Imf@@QAE@AAVIStream@1@H@Z 100fe7e0 f   OpenExr:ImfInputFile.obj
 0001:000fda60       ?compatibilityInitialize@InputFile@Imf@@AAEXAAVIStream@2@@Z 100fea60 f   OpenExr:ImfInputFile.obj
 0001:000fdb70       ?initialize@InputFile@Imf@@AAEXXZ 100feb70 f   OpenExr:ImfInputFile.obj
 0001:000fe050       ?setFrameBuffer@InputFile@Imf@@QAEXABVFrameBuffer@2@@Z 100ff050 f   OpenExr:ImfInputFile.obj
 0001:000fe510       ?readPixels@InputFile@Imf@@QAEXHH@Z 100ff510 f   OpenExr:ImfInputFile.obj
 0001:000fe5e0       ??$?6DU?$char_traits@D@std@@V?$allocator@D@1@@std@@YAAAV?$basic_ostream@DU?$char_traits@D@std@@@0@AAV10@ABV?$basic_string@DU?$char_traits@D@std@@V?$allocator@D@2@@0@@Z 100ff5e0 f i OpenExr:ImfInputFile.obj
 0001:000fe840       ??$_Copy@U?$integral_constant@_N$0A@@std@@@?$_Tree@V?$_Tmap_traits@VName@Imf@@USlice@2@U?$less@VName@Imf@@@std@@V?$allocator@U?$pair@$$CBVName@Imf@@USlice@2@@std@@@5@$0A@@std@@@std@@IAEXABV01@U?$integral_constant@_N$0A@@1@@Z 100ff840 f i OpenExr:ImfInputFile.obj
 0001:000fe8c0       ??$_Copy_nodes@U?$integral_constant@_N$0A@@std@@@?$_Tree@V?$_Tmap_traits@VName@Imf@@USlice@2@U?$less@VName@Imf@@@std@@V?$allocator@U?$pair@$$CBVName@Imf@@USlice@2@@std@@@5@$0A@@std@@@std@@IAEPAU?$_Tree_node@U?$pair@$$CBVName@Imf@@USlice@2@@std@@PAX@1@PAU21@0U?$integral_constant@_N$0A@@1@@Z 100ff8c0 f i OpenExr:ImfInputFile.obj
 0001:000fe980       ??$_Buynode@AAU?$pair@$$CBVName@Imf@@USlice@2@@std@@@?$_Tree_buy@U?$pair@$$CBVName@Imf@@USlice@2@@std@@V?$allocator@U?$pair@$$CBVName@Imf@@USlice@2@@std@@@2@@std@@QAEPAU?$_Tree_node@U?$pair@$$CBVName@Imf@@USlice@2@@std@@PAX@1@AAU?$pair@$$CBVName@Imf@@USlice@2@@1@@Z 100ff980 f i OpenExr:ImfInputFile.obj
 0001:000fe9b0       ?round@half@@QBE?AV1@I@Z   100ff9b0 f i OpenExr:ImfRgbaYca.obj
 0001:000fea30       ?RGBAtoYCA@RgbaYca@Imf@@YAXABV?$Vec3@M@Imath@@H_NQBURgba@2@QAU52@@Z 100ffa30 f   OpenExr:ImfRgbaYca.obj
 0001:000fed30       ?decimateChromaHoriz@RgbaYca@Imf@@YAXHQBURgba@2@QAU32@@Z 100ffd30 f   OpenExr:ImfRgbaYca.obj
 0001:000ff100       ?decimateChromaVert@RgbaYca@Imf@@YAXHQBQBURgba@2@QAU32@@Z 10100100 f   OpenExr:ImfRgbaYca.obj
 0001:000ff520       ?roundYCA@RgbaYca@Imf@@YAXHIIQBURgba@2@QAU32@@Z 10100520 f   OpenExr:ImfRgbaYca.obj
 0001:000ff620       ?reconstructChromaHoriz@RgbaYca@Imf@@YAXHQBURgba@2@QAU32@@Z 10100620 f   OpenExr:ImfRgbaYca.obj
 0001:000ff9e0       ?reconstructChromaVert@RgbaYca@Imf@@YAXHQBQBURgba@2@QAU32@@Z 101009e0 f   OpenExr:ImfRgbaYca.obj
 0001:000ffdc0       ?YCAtoRGBA@RgbaYca@Imf@@YAXABV?$Vec3@M@Imath@@HQBURgba@2@QAU52@@Z 10100dc0 f   OpenExr:ImfRgbaYca.obj
 0001:000fffb0       ?saturation@?A0xd93d474e@RgbaYca@Imf@@YAMABURgba@3@@Z 10100fb0 f i OpenExr:ImfRgbaYca.obj
 0001:00100070       ?desaturate@?A0xd93d474e@RgbaYca@Imf@@YAXABURgba@3@MABV?$Vec3@M@Imath@@AAU43@@Z 10101070 f   OpenExr:ImfRgbaYca.obj
 0001:001002c0       ?fixSaturation@RgbaYca@Imf@@YAXABV?$Vec3@M@Imath@@HQBQBURgba@2@QAU52@@Z 101012c0 f   OpenExr:ImfRgbaYca.obj
 0001:00100470       ??1LogicExc@Iex@@UAE@XZ    10101470 f i OpenExr:ImfOutputFile.obj
 0001:00100480       ??_GLogicExc@Iex@@UAEPAXI@Z 10101480 f i OpenExr:ImfOutputFile.obj
 0001:00100480       ??_ELogicExc@Iex@@UAEPAXI@Z 10101480 f i * CIL library *:* CIL module *
 0001:001004b0       ??1IoExc@Iex@@UAE@XZ       101014b0 f i OpenExr:ImfOutputFile.obj
 0001:001004c0       ??_EIoExc@Iex@@UAEPAXI@Z   101014c0 f i * CIL library *:* CIL module *
 0001:001004c0       ??_GIoExc@Iex@@UAEPAXI@Z   101014c0 f i OpenExr:ImfOutputFile.obj
 0001:001004f0       ??1GenericOutputFile@Imf@@UAE@XZ 101014f0 f i OpenExr:ImfOutputFile.obj
 0001:00100500       ??_GGenericOutputFile@Imf@@UAEPAXI@Z 10101500 f i OpenExr:ImfOutputFile.obj
 0001:00100500       ??_EGenericOutputFile@Imf@@UAEPAXI@Z 10101500 f i * CIL library *:* CIL module *
 0001:00100530       ??0Data@OutputFile@Imf@@QAE@H@Z 10101530 f   OpenExr:ImfOutputFile.obj
 0001:001006c0       ??1Data@OutputFile@Imf@@QAE@XZ 101016c0 f   OpenExr:ImfOutputFile.obj
 0001:00100890       ?writeLineOffsets@?A0xd9c78d9d@Imf@@YA_KAAVOStream@2@ABV?$vector@_KV?$allocator@_K@std@@@std@@@Z 10101890 f   OpenExr:ImfOutputFile.obj
 0001:001009d0       ?writePixelData@?A0xd9c78d9d@Imf@@YAXPAUOutputStreamMutex@2@PAUData@OutputFile@2@HQBDH@Z 101019d0 f   OpenExr:ImfOutputFile.obj
 0001:00100af0       ?convertToXdr@?A0xd9c78d9d@Imf@@YAXPAUData@OutputFile@2@AAV?$Array@D@2@HHH@Z 10101af0 f   OpenExr:ImfOutputFile.obj
 0001:00100c30       ??0LineBufferTask@?A0xd9c78d9d@Imf@@QAE@PAVTaskGroup@IlmThread@@PAUData@OutputFile@2@HHH@Z 10101c30 f   OpenExr:ImfOutputFile.obj
 0001:00100d50       ??_GLineBufferTask@?A0xd9c78d9d@Imf@@UAEPAXI@Z 10101d50 f i OpenExr:ImfOutputFile.obj
 0001:00100d50       ??_ELineBufferTask@?A0xd9c78d9d@Imf@@UAEPAXI@Z 10101d50 f i * CIL library *:* CIL module *
 0001:00100dc0       ?execute@LineBufferTask@?A0xd9c78d9d@Imf@@UAEXXZ 10101dc0 f   OpenExr:ImfOutputFile.obj
 0001:001010d0       ??_GOutputFile@Imf@@UAEPAXI@Z 101020d0 f i OpenExr:ImfOutputFile.obj
 0001:001010d0       ??_EOutputFile@Imf@@UAEPAXI@Z 101020d0 f i * CIL library *:* CIL module *
 0001:00101100       ??0OutputFile@Imf@@QAE@AAVOStream@1@ABVHeader@1@H@Z 10102100 f   OpenExr:ImfOutputFile.obj
 0001:00101370       ?initialize@OutputFile@Imf@@AAEXABVHeader@2@@Z 10102370 f   OpenExr:ImfOutputFile.obj
 0001:00101670       ??1OutputFile@Imf@@UAE@XZ  10102670 f   OpenExr:ImfOutputFile.obj
 0001:001017e0       ?fileName@OutputFile@Imf@@QBEPBDXZ 101027e0 f   OpenExr:ImfOutputFile.obj
 0001:00101800       ?setFrameBuffer@OutputFile@Imf@@QAEXABVFrameBuffer@2@@Z 10102800 f   OpenExr:ImfOutputFile.obj
 0001:00101d40       ?writePixels@OutputFile@Imf@@QAEXH@Z 10102d40 f   OpenExr:ImfOutputFile.obj
 0001:00102390       ??0IoExc@Iex@@QAE@ABV01@@Z 10103390 f i OpenExr:ImfOutputFile.obj
 0001:001023b0       ??0LogicExc@Iex@@QAE@ABV01@@Z 101033b0 f i OpenExr:ImfOutputFile.obj
 0001:001023d0       ??4?$basic_string@DU?$char_traits@D@std@@V?$allocator@D@2@@std@@QAEAAV01@PBD@Z 101033d0 f i OpenExr:ImfOutputFile.obj
 0001:00102410       ?resize@?$vector@_KV?$allocator@_K@std@@@std@@QAEXI@Z 10103410 f i OpenExr:ImfOutputFile.obj
 0001:001024a0       ?push_back@?$vector@UOutSliceInfo@?A0xd9c78d9d@Imf@@V?$allocator@UOutSliceInfo@?A0xd9c78d9d@Imf@@@std@@@std@@QAEX$$QAUOutSliceInfo@?A0xd9c78d9d@Imf@@@Z 101034a0 f i OpenExr:ImfOutputFile.obj
 0001:00102550       ??4?$vector@UOutSliceInfo@?A0xd9c78d9d@Imf@@V?$allocator@UOutSliceInfo@?A0xd9c78d9d@Imf@@@std@@@std@@QAEAAV01@ABV01@@Z 10103550 f i OpenExr:ImfOutputFile.obj
 0001:00102690       ?resize@?$vector@PAUTileBuffer@?A0xea54366f@Imf@@V?$allocator@PAUTileBuffer@?A0xea54366f@Imf@@@std@@@std@@QAEXI@Z 10103690 f i OpenExr:ImfTiledInputFile.obj
 0001:00102690       ?resize@?$vector@PAULineBuffer@?A0xa53b32cd@Imf@@V?$allocator@PAULineBuffer@?A0xa53b32cd@Imf@@@std@@@std@@QAEXI@Z 10103690 f i OpenExr:ImfScanLineInputFile.obj
 0001:00102690       ?resize@?$vector@PAULineBuffer@?A0xad7979d8@Imf@@V?$allocator@PAULineBuffer@?A0xad7979d8@Imf@@@std@@@std@@QAEXI@Z 10103690 f i OpenExr:ImfDeepScanLineInputFile.obj
 0001:00102690       ?resize@?$vector@PAMV?$allocator@PAM@std@@@std@@QAEXI@Z 10103690 f i OpenExr:ImfCompositeDeepScanLine.obj
 0001:00102690       ?resize@?$vector@IV?$allocator@I@std@@@std@@QAEXI@Z 10103690 f i OpenExr:ImfCompositeDeepScanLine.obj
 0001:00102690       ?resize@?$vector@MV?$allocator@M@std@@@std@@QAEXI@Z 10103690 f i OpenExr:ImfFloatVectorAttribute.obj
 0001:00102690       ?resize@?$vector@HV?$allocator@H@std@@@std@@QAEXI@Z 10103690 f i OpenExr:ImfCompositeDeepScanLine.obj
 0001:00102690       ?resize@?$vector@PAULineBuffer@?A0xd9c78d9d@Imf@@V?$allocator@PAULineBuffer@?A0xd9c78d9d@Imf@@@std@@@std@@QAEXI@Z 10103690 f i OpenExr:ImfOutputFile.obj
 0001:001026f0       ?_Reserve@?$vector@_KV?$allocator@_K@std@@@std@@IAEXI@Z 101036f0 f i OpenExr:ImfOutputFile.obj
 0001:00102770       ?_Buy@?$vector@UOutSliceInfo@?A0xd9c78d9d@Imf@@V?$allocator@UOutSliceInfo@?A0xd9c78d9d@Imf@@@std@@@std@@IAE_NI@Z 10103770 f i OpenExr:ImfOutputFile.obj
 0001:001027e0       ?_Reserve@?$vector@UOutSliceInfo@?A0xd9c78d9d@Imf@@V?$allocator@UOutSliceInfo@?A0xd9c78d9d@Imf@@@std@@@std@@IAEXI@Z 101037e0 f i OpenExr:ImfOutputFile.obj
 0001:00102850       ?_Reserve@?$vector@PAULineBuffer@?A0xd9c78d9d@Imf@@V?$allocator@PAULineBuffer@?A0xd9c78d9d@Imf@@@std@@@std@@IAEXI@Z 10103850 f i OpenExr:ImfOutputFile.obj
 0001:00102850       ?_Reserve@?$vector@PAMV?$allocator@PAM@std@@@std@@IAEXI@Z 10103850 f i OpenExr:ImfCompositeDeepScanLine.obj
 0001:00102850       ?_Reserve@?$vector@MV?$allocator@M@std@@@std@@IAEXI@Z 10103850 f i OpenExr:ImfFloatVectorAttribute.obj
 0001:00102850       ?_Reserve@?$vector@PAUTileBuffer@?A0xea54366f@Imf@@V?$allocator@PAUTileBuffer@?A0xea54366f@Imf@@@std@@@std@@IAEXI@Z 10103850 f i OpenExr:ImfTiledInputFile.obj
 0001:00102850       ?_Reserve@?$vector@IV?$allocator@I@std@@@std@@IAEXI@Z 10103850 f i OpenExr:ImfCompositeDeepScanLine.obj
 0001:00102850       ?_Reserve@?$vector@HV?$allocator@H@std@@@std@@IAEXI@Z 10103850 f i OpenExr:ImfCompositeDeepScanLine.obj
 0001:00102850       ?_Reserve@?$vector@PAULineBuffer@?A0xa53b32cd@Imf@@V?$allocator@PAULineBuffer@?A0xa53b32cd@Imf@@@std@@@std@@IAEXI@Z 10103850 f i OpenExr:ImfScanLineInputFile.obj
 0001:00102850       ?_Reserve@?$vector@PAULineBuffer@?A0xad7979d8@Imf@@V?$allocator@PAULineBuffer@?A0xad7979d8@Imf@@@std@@@std@@IAEXI@Z 10103850 f i OpenExr:ImfDeepScanLineInputFile.obj
 0001:001028d0       ?_Reallocate@?$vector@_KV?$allocator@_K@std@@@std@@IAEXI@Z 101038d0 f i OpenExr:ImfOutputFile.obj
 0001:00102950       ?_Reallocate@?$vector@UOutSliceInfo@?A0xd9c78d9d@Imf@@V?$allocator@UOutSliceInfo@?A0xd9c78d9d@Imf@@@std@@@std@@IAEXI@Z 10103950 f i OpenExr:ImfOutputFile.obj
 0001:00102a00       ?_Reallocate@?$vector@PAMV?$allocator@PAM@std@@@std@@IAEXI@Z 10103a00 f i OpenExr:ImfCompositeDeepScanLine.obj
 0001:00102a00       ?_Reallocate@?$vector@PAUTileBuffer@?A0xea54366f@Imf@@V?$allocator@PAUTileBuffer@?A0xea54366f@Imf@@@std@@@std@@IAEXI@Z 10103a00 f i OpenExr:ImfTiledInputFile.obj
 0001:00102a00       ?_Reallocate@?$vector@MV?$allocator@M@std@@@std@@IAEXI@Z 10103a00 f i OpenExr:ImfFloatVectorAttribute.obj
 0001:00102a00       ?_Reallocate@?$vector@PAULineBuffer@?A0xd9c78d9d@Imf@@V?$allocator@PAULineBuffer@?A0xd9c78d9d@Imf@@@std@@@std@@IAEXI@Z 10103a00 f i OpenExr:ImfOutputFile.obj
 0001:00102a00       ?_Reallocate@?$vector@PAULineBuffer@?A0xa53b32cd@Imf@@V?$allocator@PAULineBuffer@?A0xa53b32cd@Imf@@@std@@@std@@IAEXI@Z 10103a00 f i OpenExr:ImfScanLineInputFile.obj
 0001:00102a00       ?_Reallocate@?$vector@PAUInputPartData@Imf@@V?$allocator@PAUInputPartData@Imf@@@std@@@std@@IAEXI@Z 10103a00 f i OpenExr:ImfMultiPartInputFile.obj
 0001:00102a00       ?_Reallocate@?$vector@PAUInSliceInfo@?A0xad7979d8@Imf@@V?$allocator@PAUInSliceInfo@?A0xad7979d8@Imf@@@std@@@std@@IAEXI@Z 10103a00 f i OpenExr:ImfDeepScanLineInputFile.obj
 0001:00102a00       ?_Reallocate@?$vector@PAVDeepScanLineInputFile@Imf@@V?$allocator@PAVDeepScanLineInputFile@Imf@@@std@@@std@@IAEXI@Z 10103a00 f i OpenExr:ImfCompositeDeepScanLine.obj
 0001:00102a00       ?_Reallocate@?$vector@PBDV?$allocator@PBD@std@@@std@@IAEXI@Z 10103a00 f i OpenExr:ImfDwaCompressor.obj
 0001:00102a00       ?_Reallocate@?$vector@PADV?$allocator@PAD@std@@@std@@IAEXI@Z 10103a00 f i OpenExr:ImfDwaCompressor.obj
 0001:00102a00       ?_Reallocate@?$vector@IV?$allocator@I@std@@@std@@IAEXI@Z 10103a00 f i OpenExr:ImfCompositeDeepScanLine.obj
 0001:00102a00       ?_Reallocate@?$vector@HV?$allocator@H@std@@@std@@IAEXI@Z 10103a00 f i OpenExr:ImfCompositeDeepScanLine.obj
 0001:00102a00       ?_Reallocate@?$vector@PAULineBuffer@?A0xad7979d8@Imf@@V?$allocator@PAULineBuffer@?A0xad7979d8@Imf@@@std@@@std@@IAEXI@Z 10103a00 f i OpenExr:ImfDeepScanLineInputFile.obj
 0001:00102a00       ?_Reallocate@?$vector@W4PixelType@Imf@@V?$allocator@W4PixelType@Imf@@@std@@@std@@IAEXI@Z 10103a00 f i OpenExr:ImfDwaCompressor.obj
 0001:00102a80       ??$?9DU?$char_traits@D@std@@V?$allocator@D@1@@std@@YA_NABV?$basic_string@DU?$char_traits@D@std@@V?$allocator@D@2@@0@0@Z 10103a80 f i OpenExr:ImfOutputFile.obj
 0001:00102ad0       ??$_Copy_impl@PAUOutSliceInfo@?A0xd9c78d9d@Imf@@PAU123@@std@@YAPAUOutSliceInfo@?A0xd9c78d9d@Imf@@PAU123@00@Z 10103ad0 f i OpenExr:ImfOutputFile.obj
 0001:00102b10       ??$_Uninit_move@PAUOutSliceInfo@?A0xd9c78d9d@Imf@@PAU123@V?$allocator@UOutSliceInfo@?A0xd9c78d9d@Imf@@@std@@U123@@std@@YAPAUOutSliceInfo@?A0xd9c78d9d@Imf@@PAU123@00AAU?$_Wrap_alloc@V?$allocator@UOutSliceInfo@?A0xd9c78d9d@Imf@@@std@@@0@0U_Nonscalar_ptr_iterator_tag@0@@Z 10103b10 f i OpenExr:ImfOutputFile.obj
 0001:00102b10       ??$_Uninit_copy@PAUOutSliceInfo@?A0xd9c78d9d@Imf@@PAU123@V?$allocator@UOutSliceInfo@?A0xd9c78d9d@Imf@@@std@@@std@@YAPAUOutSliceInfo@?A0xd9c78d9d@Imf@@PAU123@00AAU?$_Wrap_alloc@V?$allocator@UOutSliceInfo@?A0xd9c78d9d@Imf@@@std@@@0@U_Nonscalar_ptr_iterator_tag@0@@Z 10103b10 f i OpenExr:ImfOutputFile.obj
 0001:00102b50       ??_GOverflowExc@Iex@@UAEPAXI@Z 10103b50 f i OpenExr:ImfCompressor.obj
 0001:00102b50       ??_EOverflowExc@Iex@@UAEPAXI@Z 10103b50 f i * CIL library *:* CIL module *
 0001:00102b50       ??_GMathExc@Iex@@UAEPAXI@Z 10103b50 f i OpenExr:ImfChromaticities.obj
 0001:00102b50       ??_EMathExc@Iex@@UAEPAXI@Z 10103b50 f i * CIL library *:* CIL module *
 0001:00102b80       ??0MathExc@Iex@@QAE@ABV01@@Z 10103b80 f i OpenExr:ImfChromaticities.obj
 0001:00102ba0       ?writeValueTo@?$TypedAttribute@V?$Vec2@H@Imath@@@Imf@@UBEXAAVOStream@2@H@Z 10103ba0 f   OpenExr:ImfVecAttribute.obj
 0001:00102c10       ?readValueFrom@?$TypedAttribute@V?$Vec2@H@Imath@@@Imf@@UAEXAAVIStream@2@HH@Z 10103c10 f   OpenExr:ImfVecAttribute.obj
 0001:00102c90       ?writeValueTo@?$TypedAttribute@V?$Vec2@M@Imath@@@Imf@@UBEXAAVOStream@2@H@Z 10103c90 f   OpenExr:ImfVecAttribute.obj
 0001:00102d10       ?readValueFrom@?$TypedAttribute@V?$Vec2@M@Imath@@@Imf@@UAEXAAVIStream@2@HH@Z 10103d10 f   OpenExr:ImfVecAttribute.obj
 0001:00102da0       ?writeValueTo@?$TypedAttribute@V?$Vec2@N@Imath@@@Imf@@UBEXAAVOStream@2@H@Z 10103da0 f   OpenExr:ImfVecAttribute.obj
 0001:00102dd0       ?readValueFrom@?$TypedAttribute@V?$Vec2@N@Imath@@@Imf@@UAEXAAVIStream@2@HH@Z 10103dd0 f   OpenExr:ImfVecAttribute.obj
 0001:00102e00       ?writeValueTo@?$TypedAttribute@V?$Vec3@H@Imath@@@Imf@@UBEXAAVOStream@2@H@Z 10103e00 f   OpenExr:ImfVecAttribute.obj
 0001:00102e90       ?readValueFrom@?$TypedAttribute@V?$Vec3@H@Imath@@@Imf@@UAEXAAVIStream@2@HH@Z 10103e90 f   OpenExr:ImfVecAttribute.obj
 0001:00102f40       ?writeValueTo@?$TypedAttribute@V?$Vec3@M@Imath@@@Imf@@UBEXAAVOStream@2@H@Z 10103f40 f   OpenExr:ImfVecAttribute.obj
 0001:00102ff0       ?readValueFrom@?$TypedAttribute@V?$Vec3@M@Imath@@@Imf@@UAEXAAVIStream@2@HH@Z 10103ff0 f   OpenExr:ImfVecAttribute.obj
 0001:001030b0       ?writeValueTo@?$TypedAttribute@V?$Vec3@N@Imath@@@Imf@@UBEXAAVOStream@2@H@Z 101040b0 f   OpenExr:ImfVecAttribute.obj
 0001:001030f0       ?readValueFrom@?$TypedAttribute@V?$Vec3@N@Imath@@@Imf@@UAEXAAVIStream@2@HH@Z 101040f0 f   OpenExr:ImfVecAttribute.obj
 0001:00103120       ?writeValueTo@?$TypedAttribute@VChannelList@Imf@@@Imf@@UBEXAAVOStream@2@H@Z 10104120 f   OpenExr:ImfChannelListAttribute.obj
 0001:00103290       ?readValueFrom@?$TypedAttribute@VChannelList@Imf@@@Imf@@UAEXAAVIStream@2@HH@Z 10104290 f   OpenExr:ImfChannelListAttribute.obj
 0001:00103400       ??$checkIsNullTerminated@$0BAA@@?A0x75aef23a@Imf@@YAXAAY0BAA@$$CBDPBD@Z 10104400 f i OpenExr:ImfChannelListAttribute.obj
 0001:001034e0       ??$skip@UStreamIO@Imf@@VIStream@2@@Xdr@Imf@@YAXAAVIStream@1@H@Z 101044e0 f i OpenExr:ImfChannelListAttribute.obj
 0001:00103550       ?isTiled@Imf@@YA_NABV?$basic_string@DU?$char_traits@D@std@@V?$allocator@D@2@@std@@@Z 10104550 f   OpenExr:ImfPartType.obj
 0001:001035f0       ?isDeepData@Imf@@YA_NABV?$basic_string@DU?$char_traits@D@std@@V?$allocator@D@2@@std@@@Z 101045f0 f   OpenExr:ImfPartType.obj
 0001:00103690       ?isSupportedType@Imf@@YA_NABV?$basic_string@DU?$char_traits@D@std@@V?$allocator@D@2@@std@@@Z 10104690 f   OpenExr:ImfPartType.obj
 0001:00103750       ?writeValueTo@?$TypedAttribute@VPreviewImage@Imf@@@Imf@@UBEXAAVOStream@2@H@Z 10104750 f   OpenExr:ImfPreviewImageAttribute.obj
 0001:00103820       ?readValueFrom@?$TypedAttribute@VPreviewImage@Imf@@@Imf@@UAEXAAVIStream@2@HH@Z 10104820 f   OpenExr:ImfPreviewImageAttribute.obj
 0001:00103940       ?writeValueTo@?$TypedAttribute@W4LineOrder@Imf@@@Imf@@UBEXAAVOStream@2@H@Z 10104940 f   OpenExr:ImfLineOrderAttribute.obj
 0001:00103940       ?writeValueTo@?$TypedAttribute@W4DeepImageState@Imf@@@Imf@@UBEXAAVOStream@2@H@Z 10104940 f   OpenExr:ImfDeepImageStateAttribute.obj
 0001:00103940       ?writeValueTo@?$TypedAttribute@W4Envmap@Imf@@@Imf@@UBEXAAVOStream@2@H@Z 10104940 f   OpenExr:ImfEnvmapAttribute.obj
 0001:00103940       ?writeValueTo@?$TypedAttribute@W4Compression@Imf@@@Imf@@UBEXAAVOStream@2@H@Z 10104940 f   OpenExr:ImfCompressionAttribute.obj
 0001:00103960       ?readValueFrom@?$TypedAttribute@W4DeepImageState@Imf@@@Imf@@UAEXAAVIStream@2@HH@Z 10104960 f   OpenExr:ImfDeepImageStateAttribute.obj
 0001:00103960       ?readValueFrom@?$TypedAttribute@W4Compression@Imf@@@Imf@@UAEXAAVIStream@2@HH@Z 10104960 f   OpenExr:ImfCompressionAttribute.obj
 0001:00103960       ?readValueFrom@?$TypedAttribute@W4LineOrder@Imf@@@Imf@@UAEXAAVIStream@2@HH@Z 10104960 f   OpenExr:ImfLineOrderAttribute.obj
 0001:00103960       ?readValueFrom@?$TypedAttribute@W4Envmap@Imf@@@Imf@@UAEXAAVIStream@2@HH@Z 10104960 f   OpenExr:ImfEnvmapAttribute.obj
 0001:00103980       ?writeValueTo@?$TypedAttribute@V?$Box@V?$Vec2@H@Imath@@@Imath@@@Imf@@UBEXAAVOStream@2@H@Z 10104980 f   OpenExr:ImfBoxAttribute.obj
 0001:00103a40       ?readValueFrom@?$TypedAttribute@V?$Box@V?$Vec2@H@Imath@@@Imath@@@Imf@@UAEXAAVIStream@2@HH@Z 10104a40 f   OpenExr:ImfBoxAttribute.obj
 0001:00103b20       ?writeValueTo@?$TypedAttribute@V?$Box@V?$Vec2@M@Imath@@@Imath@@@Imf@@UBEXAAVOStream@2@H@Z 10104b20 f   OpenExr:ImfBoxAttribute.obj
 0001:00103c00       ?readValueFrom@?$TypedAttribute@V?$Box@V?$Vec2@M@Imath@@@Imath@@@Imf@@UAEXAAVIStream@2@HH@Z 10104c00 f   OpenExr:ImfBoxAttribute.obj
 0001:00103d00       ?typeMap@?A0x66f43113@Imf@@YAAAVLockedTypeMap@12@XZ 10104d00 f   OpenExr:ImfAttribute.obj
 0001:00103e00       ?registerAttributeType@Attribute@Imf@@KAXQBDP6APAV12@XZ@Z 10104e00 f   OpenExr:ImfAttribute.obj
 0001:00103f60       ?newAttribute@Attribute@Imf@@SAPAV12@QBD@Z 10104f60 f   OpenExr:ImfAttribute.obj
 0001:001040a0       ?_Lbound@?$_Tree@V?$_Tmap_traits@PBDP6APAVAttribute@Imf@@XZUNameCompare@?A0x66f43113@2@V?$allocator@U?$pair@QBDP6APAVAttribute@Imf@@XZ@std@@@std@@$0A@@std@@@std@@IAEPAU?$_Tree_node@U?$pair@QBDP6APAVAttribute@Imf@@XZ@std@@PAX@2@ABQBD@Z 101050a0 f i OpenExr:ImfAttribute.obj
 0001:00104110       ?_Buyheadnode@?$_Tree_alloc@$0A@U?$_Tree_base_types@U?$pair@QBDP6APAVAttribute@Imf@@XZ@std@@V?$allocator@U?$pair@QBDP6APAVAttribute@Imf@@XZ@std@@@2@@std@@@std@@QAEPAU?$_Tree_node@U?$pair@QBDP6APAVAttribute@Imf@@XZ@std@@PAX@2@XZ 10105110 f i OpenExr:ImfAttribute.obj
 0001:00104110       ?_Buyheadnode@?$_Tree_alloc@$0A@U?$_Tree_base_types@U?$pair@$$CBHPAVGenericInputFile@Imf@@@std@@V?$allocator@U?$pair@$$CBHPAVGenericInputFile@Imf@@@std@@@2@@std@@@std@@QAEPAU?$_Tree_node@U?$pair@$$CBHPAVGenericInputFile@Imf@@@std@@PAX@2@XZ 10105110 f i OpenExr:ImfMultiPartInputFile.obj
 0001:00104140       ??$_Insert_nohint@U?$pair@QBDP6APAVAttribute@Imf@@XZ@std@@U_Nil@2@@?$_Tree@V?$_Tmap_traits@PBDP6APAVAttribute@Imf@@XZUNameCompare@?A0x66f43113@2@V?$allocator@U?$pair@QBDP6APAVAttribute@Imf@@XZ@std@@@std@@$0A@@std@@@std@@IAE?AU?$pair@V?$_Tree_iterator@V?$_Tree_val@U?$_Tree_simple_types@U?$pair@QBDP6APAVAttribute@Imf@@XZ@std@@@std@@@std@@@std@@_N@1@_N$$QAU?$pair@QBDP6APAVAttribute@Imf@@XZ@1@U_Nil@1@@Z 10105140 f i OpenExr:ImfAttribute.obj
 0001:001042a0       ??$_Insert_at@U?$pair@QBDP6APAVAttribute@Imf@@XZ@std@@U_Nil@2@@?$_Tree@V?$_Tmap_traits@PBDP6APAVAttribute@Imf@@XZUNameCompare@?A0x66f43113@2@V?$allocator@U?$pair@QBDP6APAVAttribute@Imf@@XZ@std@@@std@@$0A@@std@@@std@@IAE?AV?$_Tree_iterator@V?$_Tree_val@U?$_Tree_simple_types@U?$pair@QBDP6APAVAttribute@Imf@@XZ@std@@@std@@@std@@@1@_NPAU?$_Tree_node@U?$pair@QBDP6APAVAttribute@Imf@@XZ@std@@PAX@1@$$QAU?$pair@QBDP6APAVAttribute@Imf@@XZ@1@U_Nil@1@@Z 101052a0 f i OpenExr:ImfAttribute.obj
 0001:00104470       ??$_Buynode@U?$pair@QBDP6APAVAttribute@Imf@@XZ@std@@@?$_Tree_buy@U?$pair@QBDP6APAVAttribute@Imf@@XZ@std@@V?$allocator@U?$pair@QBDP6APAVAttribute@Imf@@XZ@std@@@2@@std@@QAEPAU?$_Tree_node@U?$pair@QBDP6APAVAttribute@Imf@@XZ@std@@PAX@1@$$QAU?$pair@QBDP6APAVAttribute@Imf@@XZ@1@@Z 10105470 f i OpenExr:ImfAttribute.obj
 0001:001044a0       ?_Buynode0@?$_Tree_buy@U?$pair@QBDP6APAVAttribute@Imf@@XZ@std@@V?$allocator@U?$pair@QBDP6APAVAttribute@Imf@@XZ@std@@@2@@std@@QAEPAU?$_Tree_node@U?$pair@QBDP6APAVAttribute@Imf@@XZ@std@@PAX@2@XZ 101054a0 f i OpenExr:ImfAttribute.obj
 0001:001044e0       ?writeValueTo@?$TypedAttribute@VRational@Imf@@@Imf@@UBEXAAVOStream@2@H@Z 101054e0 f   OpenExr:ImfRationalAttribute.obj
 0001:00104550       ?readValueFrom@?$TypedAttribute@VRational@Imf@@@Imf@@UAEXAAVIStream@2@HH@Z 10105550 f   OpenExr:ImfRationalAttribute.obj
 0001:001045d0       ??1OverflowExc@Iex@@UAE@XZ 101055d0 f i OpenExr:ImfCompressor.obj
 0001:001045e0       ??_GCompressor@Imf@@UAEPAXI@Z 101055e0 f i OpenExr:ImfCompressor.obj
 0001:001045e0       ??_ECompressor@Imf@@UAEPAXI@Z 101055e0 f i * CIL library *:* CIL module *
 0001:00104610       ??1Compressor@Imf@@UAE@XZ  10105610 f   OpenExr:ImfCompressor.obj
 0001:00104620       ?compressTile@Compressor@Imf@@UAEHPBDHV?$Box@V?$Vec2@H@Imath@@@Imath@@AAPBD@Z 10105620 f   OpenExr:ImfCompressor.obj
 0001:00104640       ?uncompressTile@Compressor@Imf@@UAEHPBDHV?$Box@V?$Vec2@H@Imath@@@Imath@@AAPBD@Z 10105640 f   OpenExr:ImfCompressor.obj
 0001:00104660       ?newCompressor@Imf@@YAPAVCompressor@1@W4Compression@1@IABVHeader@1@@Z 10105660 f   OpenExr:ImfCompressor.obj
 0001:001048e0       ?newTileCompressor@Imf@@YAPAVCompressor@1@W4Compression@1@IIABVHeader@1@@Z 101058e0 f   OpenExr:ImfCompressor.obj
 0001:00104b00       ??$uiMult@I@Imf@@YAIII@Z   10105b00 f i OpenExr:ImfCompressor.obj
 0001:00104b60       ??0OverflowExc@Iex@@QAE@ABV01@@Z 10105b60 f i OpenExr:ImfCompressor.obj
 0001:00104b80       ?writeValueTo@?$TypedAttribute@V?$basic_string@DU?$char_traits@D@std@@V?$allocator@D@2@@std@@@Imf@@UBEXAAVOStream@2@H@Z 10105b80 f   OpenExr:ImfStringAttribute.obj
 0001:00104bd0       ?readValueFrom@?$TypedAttribute@V?$basic_string@DU?$char_traits@D@std@@V?$allocator@D@2@@std@@@Imf@@UAEXAAVIStream@2@HH@Z 10105bd0 f   OpenExr:ImfStringAttribute.obj
 0001:00104c40       ?writeValueTo@?$TypedAttribute@V?$Matrix33@M@Imath@@@Imf@@UBEXAAVOStream@2@H@Z 10105c40 f   OpenExr:ImfMatrixAttribute.obj
 0001:00104e20       ?readValueFrom@?$TypedAttribute@V?$Matrix33@M@Imath@@@Imf@@UAEXAAVIStream@2@HH@Z 10105e20 f   OpenExr:ImfMatrixAttribute.obj
 0001:00105040       ?writeValueTo@?$TypedAttribute@V?$Matrix33@N@Imath@@@Imf@@UBEXAAVOStream@2@H@Z 10106040 f   OpenExr:ImfMatrixAttribute.obj
 0001:001050d0       ?readValueFrom@?$TypedAttribute@V?$Matrix33@N@Imath@@@Imf@@UAEXAAVIStream@2@HH@Z 101060d0 f   OpenExr:ImfMatrixAttribute.obj
 0001:00105140       ?writeValueTo@?$TypedAttribute@V?$Matrix44@M@Imath@@@Imf@@UBEXAAVOStream@2@H@Z 10106140 f   OpenExr:ImfMatrixAttribute.obj
 0001:00105490       ?readValueFrom@?$TypedAttribute@V?$Matrix44@M@Imath@@@Imf@@UAEXAAVIStream@2@HH@Z 10106490 f   OpenExr:ImfMatrixAttribute.obj
 0001:00105840       ?writeValueTo@?$TypedAttribute@V?$Matrix44@N@Imath@@@Imf@@UBEXAAVOStream@2@H@Z 10106840 f   OpenExr:ImfMatrixAttribute.obj
 0001:00105920       ?readValueFrom@?$TypedAttribute@V?$Matrix44@N@Imath@@@Imf@@UAEXAAVIStream@2@HH@Z 10106920 f   OpenExr:ImfMatrixAttribute.obj
 0001:001059e0       ?writeValueTo@?$TypedAttribute@V?$vector@MV?$allocator@M@std@@@std@@@Imf@@UBEXAAVOStream@2@H@Z 101069e0 f   OpenExr:ImfFloatVectorAttribute.obj
 0001:00105a50       ?readValueFrom@?$TypedAttribute@V?$vector@MV?$allocator@M@std@@@std@@@Imf@@UAEXAAVIStream@2@HH@Z 10106a50 f   OpenExr:ImfFloatVectorAttribute.obj
 0001:00105ac0       ?writeValueTo@?$TypedAttribute@VTileDescription@Imf@@@Imf@@UBEXAAVOStream@2@H@Z 10106ac0 f   OpenExr:ImfTileDescriptionAttribute.obj
 0001:00105b40       ?readValueFrom@?$TypedAttribute@VTileDescription@Imf@@@Imf@@UAEXAAVIStream@2@HH@Z 10106b40 f   OpenExr:ImfTileDescriptionAttribute.obj
 0001:00105be0       ?writeValueTo@?$TypedAttribute@VTimeCode@Imf@@@Imf@@UBEXAAVOStream@2@H@Z 10106be0 f   OpenExr:ImfTimeCodeAttribute.obj
 0001:00105c50       ?readValueFrom@?$TypedAttribute@VTimeCode@Imf@@@Imf@@UAEXAAVIStream@2@HH@Z 10106c50 f   OpenExr:ImfTimeCodeAttribute.obj
 0001:00105cd0       ??1NoImplExc@Iex@@UAE@XZ   10106cd0 f i OpenExr:ImfDwaCompressor.obj
 0001:00105ce0       ??_GNoImplExc@Iex@@UAEPAXI@Z 10106ce0 f i OpenExr:ImfDwaCompressor.obj
 0001:00105ce0       ??_ENoImplExc@Iex@@UAEPAXI@Z 10106ce0 f i * CIL library *:* CIL module *
 0001:00105d10       ?csc709Inverse64@?A0xc5732b96@Imf@@YAXPAM00@Z 10106d10 f   OpenExr:ImfDwaCompressor.obj
 0001:00106150       ?interleaveByte2@?A0xc5732b96@Imf@@YAXPAD00H@Z 10107150 f   OpenExr:ImfDwaCompressor.obj
 0001:001063c0       ?convertFloatToHalf64_scalar@?A0xc5732b96@Imf@@YAXPAGPAM@Z 101073c0 f   OpenExr:ImfDwaCompressor.obj
 0001:00106440       ?fromHalfZigZag_scalar@?A0xc5732b96@Imf@@YAXPAGPAM@Z 10107440 f   OpenExr:ImfDwaCompressor.obj
 0001:00106830       ?dctForward8x8@?A0xc5732b96@Imf@@YAXPAM@Z 10107830 f   OpenExr:ImfDwaCompressor.obj
 0001:00106b90       ??0Classifier@DwaCompressor@Imf@@QAE@V?$basic_string@DU?$char_traits@D@std@@V?$allocator@D@2@@std@@W4CompressorScheme@12@W4PixelType@2@H_N@Z 10107b90 f i OpenExr:ImfDwaCompressor.obj
 0001:00106c60       ??0Classifier@DwaCompressor@Imf@@QAE@AAPBDH@Z 10107c60 f i OpenExr:ImfDwaCompressor.obj
 0001:00106ef0       ?match@Classifier@DwaCompressor@Imf@@QBE_NABV?$basic_string@DU?$char_traits@D@std@@V?$allocator@D@2@@std@@W4PixelType@3@@Z 10107ef0 f i OpenExr:ImfDwaCompressor.obj
 0001:00107030       ?write@Classifier@DwaCompressor@Imf@@QBEXAAPAD@Z 10108030 f i OpenExr:ImfDwaCompressor.obj
 0001:001070a0       ??1LossyDctDecoder@DwaCompressor@Imf@@UAE@XZ 101080a0 f i OpenExr:ImfDwaCompressor.obj
 0001:001070b0       ??_GLossyDctDecoder@DwaCompressor@Imf@@UAEPAXI@Z 101080b0 f i OpenExr:ImfDwaCompressor.obj
 0001:001070b0       ??_ELossyDctDecoder@DwaCompressor@Imf@@UAEPAXI@Z 101080b0 f i * CIL library *:* CIL module *
 0001:001070e0       ??0LossyDctDecoderCsc@DwaCompressor@Imf@@QAE@AAV?$vector@PADV?$allocator@PAD@std@@@std@@00PAD1PBGHHW4PixelType@2@33@Z 101080e0 f i OpenExr:ImfDwaCompressor.obj
 0001:00107190       ??1LossyDctDecoderCsc@DwaCompressor@Imf@@UAE@XZ 10108190 f i OpenExr:ImfDwaCompressor.obj
 0001:001071a0       ??_GLossyDctDecoderCsc@DwaCompressor@Imf@@UAEPAXI@Z 101081a0 f i OpenExr:ImfDwaCompressor.obj
 0001:001071a0       ??_ELossyDctDecoderCsc@DwaCompressor@Imf@@UAEPAXI@Z 101081a0 f i * CIL library *:* CIL module *
 0001:001071d0       ??1LossyDctEncoder@DwaCompressor@Imf@@UAE@XZ 101081d0 f i OpenExr:ImfDwaCompressor.obj
 0001:001071e0       ??_ELossyDctEncoder@DwaCompressor@Imf@@UAEPAXI@Z 101081e0 f i * CIL library *:* CIL module *
 0001:001071e0       ??_GLossyDctEncoder@DwaCompressor@Imf@@UAEPAXI@Z 101081e0 f i OpenExr:ImfDwaCompressor.obj
 0001:00107210       ??1LossyDctEncoderCsc@DwaCompressor@Imf@@UAE@XZ 10108210 f i OpenExr:ImfDwaCompressor.obj
 0001:00107220       ??_ELossyDctEncoderCsc@DwaCompressor@Imf@@UAEPAXI@Z 10108220 f i * CIL library *:* CIL module *
 0001:00107220       ??_GLossyDctEncoderCsc@DwaCompressor@Imf@@UAEPAXI@Z 10108220 f i OpenExr:ImfDwaCompressor.obj
 0001:00107250       ??0LossyDctDecoderBase@DwaCompressor@Imf@@QAE@PAD0PBGHH@Z 10108250 f   OpenExr:ImfDwaCompressor.obj
 0001:001072f0       ??_ELossyDctDecoderBase@DwaCompressor@Imf@@UAEPAXI@Z 101082f0 f i * CIL library *:* CIL module *
 0001:001072f0       ??_GLossyDctDecoderBase@DwaCompressor@Imf@@UAEPAXI@Z 101082f0 f i OpenExr:ImfDwaCompressor.obj
 0001:00107320       ??1LossyDctDecoderBase@DwaCompressor@Imf@@UAE@XZ 10108320 f   OpenExr:ImfDwaCompressor.obj
 0001:001073a0       ?execute@LossyDctDecoderBase@DwaCompressor@Imf@@QAEXXZ 101083a0 f   OpenExr:ImfDwaCompressor.obj
 0001:00108010       ??0NoImplExc@Iex@@QAE@ABV01@@Z 10109010 f i OpenExr:ImfDwaCompressor.obj
 0001:00108030       ?unRleAc@LossyDctDecoderBase@DwaCompressor@Imf@@IAEHAAPAGPAG@Z 10109030 f   OpenExr:ImfDwaCompressor.obj
 0001:00108090       ??0LossyDctEncoderBase@DwaCompressor@Imf@@QAE@MPAD0PBGHH@Z 10109090 f   OpenExr:ImfDwaCompressor.obj
 0001:00108370       ??_GLossyDctEncoderBase@DwaCompressor@Imf@@UAEPAXI@Z 10109370 f i OpenExr:ImfDwaCompressor.obj
 0001:00108370       ??_ELossyDctEncoderBase@DwaCompressor@Imf@@UAEPAXI@Z 10109370 f i * CIL library *:* CIL module *
 0001:001083a0       ??1LossyDctEncoderBase@DwaCompressor@Imf@@UAE@XZ 101093a0 f   OpenExr:ImfDwaCompressor.obj
 0001:00108420       ?execute@LossyDctEncoderBase@DwaCompressor@Imf@@QAEXXZ 10109420 f   OpenExr:ImfDwaCompressor.obj
 0001:00108cf0       ?toZigZag@LossyDctEncoderBase@DwaCompressor@Imf@@IAEXPAVhalf@@0@Z 10109cf0 f   OpenExr:ImfDwaCompressor.obj
 0001:00108e60       ?quantize@LossyDctEncoderBase@DwaCompressor@Imf@@IAE?AVhalf@@V4@M@Z 10109e60 f   OpenExr:ImfDwaCompressor.obj
 0001:00108f00       ?rleAc@LossyDctEncoderBase@DwaCompressor@Imf@@IAEXPAVhalf@@AAPAG@Z 10109f00 f   OpenExr:ImfDwaCompressor.obj
 0001:00108fa0       ??0DwaCompressor@Imf@@QAE@ABVHeader@1@HHW4AcCompression@01@@Z 10109fa0 f   OpenExr:ImfDwaCompressor.obj
 0001:001091a0       ??_EDwaCompressor@Imf@@UAEPAXI@Z 1010a1a0 f i * CIL library *:* CIL module *
 0001:001091a0       ??_GDwaCompressor@Imf@@UAEPAXI@Z 1010a1a0 f i OpenExr:ImfDwaCompressor.obj
 0001:001091d0       ??1DwaCompressor@Imf@@UAE@XZ 1010a1d0 f   OpenExr:ImfDwaCompressor.obj
 0001:00109350       ?format@B44Compressor@Imf@@UBE?AW4Format@Compressor@2@XZ 1010a350 f   OpenExr:ImfB44Compressor.obj
 0001:00109350       ?numScanLines@DwaCompressor@Imf@@UBEHXZ 1010a350 f   OpenExr:ImfDwaCompressor.obj
 0001:00109350       ?numScanLines@PizCompressor@Imf@@UBEHXZ 1010a350 f   OpenExr:ImfPizCompressor.obj
 0001:00109360       ?format@DwaCompressor@Imf@@UBE?AW4Format@Compressor@2@XZ 1010a360 f   OpenExr:ImfDwaCompressor.obj
 0001:00109370       ?compress@DwaCompressor@Imf@@UAEHPBDHHAAPBD@Z 1010a370 f   OpenExr:ImfDwaCompressor.obj
 0001:001093c0       ?compressTile@DwaCompressor@Imf@@UAEHPBDHV?$Box@V?$Vec2@H@Imath@@@Imath@@AAPBD@Z 1010a3c0 f   OpenExr:ImfDwaCompressor.obj
 0001:001093f0       ?compress@DwaCompressor@Imf@@AAEHPBDHV?$Box@V?$Vec2@H@Imath@@@Imath@@AAPBD@Z 1010a3f0 f   OpenExr:ImfDwaCompressor.obj
 0001:0010a760       ?uncompress@DwaCompressor@Imf@@UAEHPBDHHAAPBD@Z 1010b760 f   OpenExr:ImfDwaCompressor.obj
 0001:0010a7b0       ?uncompressTile@DwaCompressor@Imf@@UAEHPBDHV?$Box@V?$Vec2@H@Imath@@@Imath@@AAPBD@Z 1010b7b0 f   OpenExr:ImfDwaCompressor.obj
 0001:0010a7f0       ?uncompress@DwaCompressor@Imf@@AAEHPBDHV?$Box@V?$Vec2@H@Imath@@@Imath@@AAPBD@Z 1010b7f0 f   OpenExr:ImfDwaCompressor.obj
 0001:0010b620       ?initializeFuncs@DwaCompressor@Imf@@SAXXZ 1010c620 f   OpenExr:ImfDwaCompressor.obj
 0001:0010b690       ?initializeBuffers@DwaCompressor@Imf@@AAEXAAI@Z 1010c690 f   OpenExr:ImfDwaCompressor.obj
 0001:0010bd80       ?initializeDefaultChannelRules@DwaCompressor@Imf@@AAEXXZ 1010cd80 f   OpenExr:ImfDwaCompressor.obj
 0001:0010c310       ?initializeLegacyChannelRules@DwaCompressor@Imf@@AAEXXZ 1010d310 f   OpenExr:ImfDwaCompressor.obj
 0001:0010cb80       ?relevantChannelRules@DwaCompressor@Imf@@ABEXAAV?$vector@UClassifier@DwaCompressor@Imf@@V?$allocator@UClassifier@DwaCompressor@Imf@@@std@@@std@@@Z 1010db80 f   OpenExr:ImfDwaCompressor.obj
 0001:0010ce40       ?classifyChannels@DwaCompressor@Imf@@AAEXVChannelList@2@AAV?$vector@UChannelData@DwaCompressor@Imf@@V?$allocator@UChannelData@DwaCompressor@Imf@@@std@@@std@@AAV?$vector@UCscChannelSet@DwaCompressor@Imf@@V?$allocator@UCscChannelSet@DwaCompressor@Imf@@@std@@@5@@Z 1010de40 f   OpenExr:ImfDwaCompressor.obj
 0001:0010d5c0       ??1?$set@V?$basic_string@DU?$char_traits@D@std@@V?$allocator@D@2@@std@@U?$less@V?$basic_string@DU?$char_traits@D@std@@V?$allocator@D@2@@std@@@2@V?$allocator@V?$basic_string@DU?$char_traits@D@std@@V?$allocator@D@2@@std@@@2@@std@@QAE@XZ 1010e5c0 f i OpenExr:ImfMultiPartInputFile.obj
 0001:0010d5c0       ??1?$map@V?$basic_string@DU?$char_traits@D@std@@V?$allocator@D@2@@std@@UCscChannelSet@DwaCompressor@Imf@@U?$less@V?$basic_string@DU?$char_traits@D@std@@V?$allocator@D@2@@std@@@2@V?$allocator@U?$pair@$$CBV?$basic_string@DU?$char_traits@D@std@@V?$allocator@D@2@@std@@UCscChannelSet@DwaCompressor@Imf@@@std@@@2@@std@@QAE@XZ 1010e5c0 f i OpenExr:ImfDwaCompressor.obj
 0001:0010d5f0       ?setupChannelData@DwaCompressor@Imf@@AAEXHHHH@Z 1010e5f0 f   OpenExr:ImfDwaCompressor.obj
 0001:0010d860       ?substr@?$basic_string@DU?$char_traits@D@std@@V?$allocator@D@2@@std@@QBE?AV12@II@Z 1010e860 f i OpenExr:ImfDwaCompressor.obj
 0001:0010d8a0       ??1?$vector@UChannelData@DwaCompressor@Imf@@V?$allocator@UChannelData@DwaCompressor@Imf@@@std@@@std@@QAE@XZ 1010e8a0 f i OpenExr:ImfDwaCompressor.obj
 0001:0010d8e0       ?resize@?$vector@UChannelData@DwaCompressor@Imf@@V?$allocator@UChannelData@DwaCompressor@Imf@@@std@@@std@@QAEXI@Z 1010e8e0 f i OpenExr:ImfDwaCompressor.obj
 0001:0010d990       ?resize@?$vector@UCscChannelSet@DwaCompressor@Imf@@V?$allocator@UCscChannelSet@DwaCompressor@Imf@@@std@@@std@@QAEXI@Z 1010e990 f i OpenExr:ImfDwaCompressor.obj
 0001:0010da40       ?push_back@?$vector@UCscChannelSet@DwaCompressor@Imf@@V?$allocator@UCscChannelSet@DwaCompressor@Imf@@@std@@@std@@QAEXABUCscChannelSet@DwaCompressor@Imf@@@Z 1010ea40 f i OpenExr:ImfDwaCompressor.obj
 0001:0010dad0       ?push_back@?$vector@UClassifier@DwaCompressor@Imf@@V?$allocator@UClassifier@DwaCompressor@Imf@@@std@@@std@@QAEX$$QAUClassifier@DwaCompressor@Imf@@@Z 1010ead0 f i OpenExr:ImfDwaCompressor.obj
 0001:0010dad0       ?push_back@?$vector@UClassifier@DwaCompressor@Imf@@V?$allocator@UClassifier@DwaCompressor@Imf@@@std@@@std@@QAEXABUClassifier@DwaCompressor@Imf@@@Z 1010ead0 f i OpenExr:ImfDwaCompressor.obj
 0001:0010dbb0       ??1?$vector@UClassifier@DwaCompressor@Imf@@V?$allocator@UClassifier@DwaCompressor@Imf@@@std@@@std@@QAE@XZ 1010ebb0 f i OpenExr:ImfDwaCompressor.obj
 0001:0010dbf0       ?push_back@?$vector@V?$basic_string@DU?$char_traits@D@std@@V?$allocator@D@2@@std@@V?$allocator@V?$basic_string@DU?$char_traits@D@std@@V?$allocator@D@2@@std@@@2@@std@@QAEXABV?$basic_string@DU?$char_traits@D@std@@V?$allocator@D@2@@2@@Z 1010ebf0 f i OpenExr:ImfDwaCompressor.obj
 0001:0010dcc0       ??0?$vector@V?$vector@V?$vector@PAMV?$allocator@PAM@std@@@std@@V?$allocator@V?$vector@PAMV?$allocator@PAM@std@@@std@@@2@@std@@V?$allocator@V?$vector@V?$vector@PAMV?$allocator@PAM@std@@@std@@V?$allocator@V?$vector@PAMV?$allocator@PAM@std@@@std@@@2@@std@@@2@@std@@QAE@I@Z 1010ecc0 f i OpenExr:ImfCompositeDeepScanLine.obj
 0001:0010dcc0       ??0?$vector@V?$vector@PADV?$allocator@PAD@std@@@std@@V?$allocator@V?$vector@PADV?$allocator@PAD@std@@@std@@@2@@std@@QAE@I@Z 1010ecc0 f i OpenExr:ImfDwaCompressor.obj
 0001:0010dcc0       ??0?$vector@V?$vector@IV?$allocator@I@std@@@std@@V?$allocator@V?$vector@IV?$allocator@I@std@@@std@@@2@@std@@QAE@I@Z 1010ecc0 f i OpenExr:ImfCompositeDeepScanLine.obj
 0001:0010dcc0       ??0?$vector@V?$vector@PBDV?$allocator@PBD@std@@@std@@V?$allocator@V?$vector@PBDV?$allocator@PBD@std@@@std@@@2@@std@@QAE@I@Z 1010ecc0 f i OpenExr:ImfDwaCompressor.obj
 0001:0010dcc0       ??0?$vector@V?$vector@MV?$allocator@M@std@@@std@@V?$allocator@V?$vector@MV?$allocator@M@std@@@std@@@2@@std@@QAE@I@Z 1010ecc0 f i OpenExr:ImfCompositeDeepScanLine.obj
 0001:0010dd10       ??1?$vector@V?$vector@PBDV?$allocator@PBD@std@@@std@@V?$allocator@V?$vector@PBDV?$allocator@PBD@std@@@std@@@2@@std@@QAE@XZ 1010ed10 f i OpenExr:ImfDwaCompressor.obj
 0001:0010dd10       ??1?$vector@V?$vector@PADV?$allocator@PAD@std@@@std@@V?$allocator@V?$vector@PADV?$allocator@PAD@std@@@std@@@2@@std@@QAE@XZ 1010ed10 f i OpenExr:ImfDwaCompressor.obj
 0001:0010dd10       ?_Tidy@?$vector@V?$vector@_KV?$allocator@_K@std@@@std@@V?$allocator@V?$vector@_KV?$allocator@_K@std@@@std@@@2@@std@@IAEXXZ 1010ed10 f i OpenExr:ImfMultiPartInputFile.obj
 0001:0010dd10       ??1?$vector@V?$vector@IV?$allocator@I@std@@@std@@V?$allocator@V?$vector@IV?$allocator@I@std@@@std@@@2@@std@@QAE@XZ 1010ed10 f i OpenExr:ImfCompositeDeepScanLine.obj
 0001:0010dd10       ??1?$vector@V?$vector@MV?$allocator@M@std@@@std@@V?$allocator@V?$vector@MV?$allocator@M@std@@@std@@@2@@std@@QAE@XZ 1010ed10 f i OpenExr:ImfCompositeDeepScanLine.obj
 0001:0010dd50       ?push_back@?$vector@V?$vector@PBDV?$allocator@PBD@std@@@std@@V?$allocator@V?$vector@PBDV?$allocator@PBD@std@@@std@@@2@@std@@QAEXABV?$vector@PBDV?$allocator@PBD@std@@@2@@Z 1010ed50 f i OpenExr:ImfDwaCompressor.obj
 0001:0010dd50       ?push_back@?$vector@V?$vector@PADV?$allocator@PAD@std@@@std@@V?$allocator@V?$vector@PADV?$allocator@PAD@std@@@std@@@2@@std@@QAEXABV?$vector@PADV?$allocator@PAD@std@@@2@@Z 1010ed50 f i OpenExr:ImfDwaCompressor.obj
 0001:0010de10       ?push_back@?$vector@W4PixelType@Imf@@V?$allocator@W4PixelType@Imf@@@std@@@std@@QAEXABW4PixelType@Imf@@@Z 1010ee10 f i OpenExr:ImfDwaCompressor.obj
 0001:0010de10       ?push_back@?$vector@PAVDeepScanLineInputFile@Imf@@V?$allocator@PAVDeepScanLineInputFile@Imf@@@std@@@std@@QAEXABQAVDeepScanLineInputFile@Imf@@@Z 1010ee10 f i OpenExr:ImfCompositeDeepScanLine.obj
 0001:0010de10       ?push_back@?$vector@PADV?$allocator@PAD@std@@@std@@QAEXABQAD@Z 1010ee10 f i OpenExr:ImfDwaCompressor.obj
 0001:0010de80       ?resize@?$vector@V?$SimdAlignedBuffer64@M@Imf@@V?$allocator@V?$SimdAlignedBuffer64@M@Imf@@@std@@@std@@QAEXI@Z 1010ee80 f i OpenExr:ImfDwaCompressor.obj
 0001:0010def0       ??0?$vector@PAGV?$allocator@PAG@std@@@std@@QAE@I@Z 1010eef0 f i OpenExr:ImfDwaCompressor.obj
 0001:0010def0       ??0?$vector@PBVHeader@Imf@@V?$allocator@PBVHeader@Imf@@@std@@@std@@QAE@I@Z 1010eef0 f i OpenExr:ImfCompositeDeepScanLine.obj
 0001:0010def0       ??0?$vector@PBMV?$allocator@PBM@std@@@std@@QAE@I@Z 1010eef0 f i OpenExr:ImfCompositeDeepScanLine.obj
 0001:0010def0       ??0?$vector@PAVTileOffsets@Imf@@V?$allocator@PAVTileOffsets@Imf@@@std@@@std@@QAE@I@Z 1010eef0 f i OpenExr:ImfMultiPartInputFile.obj
 0001:0010def0       ??0?$vector@IV?$allocator@I@std@@@std@@QAE@I@Z 1010eef0 f i OpenExr:ImfCompositeDeepScanLine.obj
 0001:0010def0       ??0?$vector@HV?$allocator@H@std@@@std@@QAE@I@Z 1010eef0 f i OpenExr:ImfMultiPartInputFile.obj
 0001:0010def0       ??0?$vector@MV?$allocator@M@std@@@std@@QAE@I@Z 1010eef0 f i OpenExr:ImfCompositeDeepScanLine.obj
 0001:0010def0       ??0?$vector@PBDV?$allocator@PBD@std@@@std@@QAE@I@Z 1010eef0 f i OpenExr:ImfCompositeDeepScanLine.obj
 0001:0010df40       ??0?$vector@V?$SimdAlignedBuffer64@G@Imf@@V?$allocator@V?$SimdAlignedBuffer64@G@Imf@@@std@@@std@@QAE@I@Z 1010ef40 f i OpenExr:ImfDwaCompressor.obj
 0001:0010df90       ??1?$vector@V?$SimdAlignedBuffer64@G@Imf@@V?$allocator@V?$SimdAlignedBuffer64@G@Imf@@@std@@@std@@QAE@XZ 1010ef90 f i OpenExr:ImfDwaCompressor.obj
 0001:0010dfa0       ??0?$vector@GV?$allocator@G@std@@@std@@QAE@I@Z 1010efa0 f i OpenExr:ImfDwaCompressor.obj
 0001:0010dff0       ??0?$vector@_NV?$allocator@_N@std@@@std@@QAE@IAB_N@Z 1010eff0 f i OpenExr:ImfDwaCompressor.obj
 0001:0010e080       ??1?$vector@_NV?$allocator@_N@std@@@std@@QAE@XZ 1010f080 f i OpenExr:ImfDwaCompressor.obj
 0001:0010e0b0       ??A?$map@V?$basic_string@DU?$char_traits@D@std@@V?$allocator@D@2@@std@@UCscChannelSet@DwaCompressor@Imf@@U?$less@V?$basic_string@DU?$char_traits@D@std@@V?$allocator@D@2@@std@@@2@V?$allocator@U?$pair@$$CBV?$basic_string@DU?$char_traits@D@std@@V?$allocator@D@2@@std@@UCscChannelSet@DwaCompressor@Imf@@@std@@@2@@std@@QAEAAUCscChannelSet@DwaCompressor@Imf@@ABV?$basic_string@DU?$char_traits@D@std@@V?$allocator@D@2@@1@@Z 1010f0b0 f i OpenExr:ImfDwaCompressor.obj
 0001:0010e160       ??0?$_Tree@V?$_Tmap_traits@VName@Imf@@UChannel@2@U?$less@VName@Imf@@@std@@V?$allocator@U?$pair@$$CBVName@Imf@@UChannel@2@@std@@@5@$0A@@std@@@std@@QAE@ABV01@ABV?$allocator@U?$pair@$$CBVName@Imf@@UChannel@2@@std@@@1@@Z 1010f160 f i OpenExr:ImfDwaCompressor.obj
 0001:0010e200       ?_Reserve@?$vector@UChannelData@DwaCompressor@Imf@@V?$allocator@UChannelData@DwaCompressor@Imf@@@std@@@std@@IAEXI@Z 1010f200 f i OpenExr:ImfDwaCompressor.obj
 0001:0010e2b0       ?_Reserve@?$vector@UCscChannelSet@DwaCompressor@Imf@@V?$allocator@UCscChannelSet@DwaCompressor@Imf@@@std@@@std@@IAEXI@Z 1010f2b0 f i OpenExr:ImfDwaCompressor.obj
 0001:0010e350       ?_Destroy@?$vector@UClassifier@DwaCompressor@Imf@@V?$allocator@UClassifier@DwaCompressor@Imf@@@std@@@std@@IAEXPAUClassifier@DwaCompressor@Imf@@0@Z 1010f350 f i OpenExr:ImfDwaCompressor.obj
 0001:0010e390       ?_Reserve@?$vector@UClassifier@DwaCompressor@Imf@@V?$allocator@UClassifier@DwaCompressor@Imf@@@std@@@std@@IAEXI@Z 1010f390 f i OpenExr:ImfDwaCompressor.obj
 0001:0010e430       ?_Reserve@?$vector@V?$basic_string@DU?$char_traits@D@std@@V?$allocator@D@2@@std@@V?$allocator@V?$basic_string@DU?$char_traits@D@std@@V?$allocator@D@2@@std@@@2@@std@@IAEXI@Z 1010f430 f i OpenExr:ImfDwaCompressor.obj
 0001:0010e4e0       ?_Buy@?$vector@V?$vector@V?$vector@PAMV?$allocator@PAM@std@@@std@@V?$allocator@V?$vector@PAMV?$allocator@PAM@std@@@std@@@2@@std@@V?$allocator@V?$vector@V?$vector@PAMV?$allocator@PAM@std@@@std@@V?$allocator@V?$vector@PAMV?$allocator@PAM@std@@@std@@@2@@std@@@2@@std@@IAE_NI@Z 1010f4e0 f i OpenExr:ImfCompositeDeepScanLine.obj
 0001:0010e4e0       ?_Buy@?$vector@V?$vector@_KV?$allocator@_K@std@@@std@@V?$allocator@V?$vector@_KV?$allocator@_K@std@@@std@@@2@@std@@IAE_NI@Z 1010f4e0 f i OpenExr:ImfMultiPartInputFile.obj
 0001:0010e4e0       ?_Buy@?$vector@V?$vector@V?$vector@_KV?$allocator@_K@std@@@std@@V?$allocator@V?$vector@_KV?$allocator@_K@std@@@std@@@2@@std@@V?$allocator@V?$vector@V?$vector@_KV?$allocator@_K@std@@@std@@V?$allocator@V?$vector@_KV?$allocator@_K@std@@@std@@@2@@std@@@2@@std@@IAE_NI@Z 1010f4e0 f i OpenExr:ImfMultiPartInputFile.obj
 0001:0010e4e0       ?_Buy@?$vector@V?$vector@MV?$allocator@M@std@@@std@@V?$allocator@V?$vector@MV?$allocator@M@std@@@std@@@2@@std@@IAE_NI@Z 1010f4e0 f i OpenExr:ImfCompositeDeepScanLine.obj
 0001:0010e4e0       ?_Buy@?$vector@V?$vector@PBDV?$allocator@PBD@std@@@std@@V?$allocator@V?$vector@PBDV?$allocator@PBD@std@@@std@@@2@@std@@IAE_NI@Z 1010f4e0 f i OpenExr:ImfDwaCompressor.obj
 0001:0010e4e0       ?_Buy@?$vector@V?$vector@PADV?$allocator@PAD@std@@@std@@V?$allocator@V?$vector@PADV?$allocator@PAD@std@@@std@@@2@@std@@IAE_NI@Z 1010f4e0 f i OpenExr:ImfDwaCompressor.obj
 0001:0010e4e0       ?_Buy@?$vector@V?$vector@IV?$allocator@I@std@@@std@@V?$allocator@V?$vector@IV?$allocator@I@std@@@std@@@2@@std@@IAE_NI@Z 1010f4e0 f i OpenExr:ImfCompositeDeepScanLine.obj
 0001:0010e550       ?_Reserve@?$vector@V?$vector@PADV?$allocator@PAD@std@@@std@@V?$allocator@V?$vector@PADV?$allocator@PAD@std@@@std@@@2@@std@@IAEXI@Z 1010f550 f i OpenExr:ImfDwaCompressor.obj
 0001:0010e550       ?_Reserve@?$vector@V?$vector@PBDV?$allocator@PBD@std@@@std@@V?$allocator@V?$vector@PBDV?$allocator@PBD@std@@@std@@@2@@std@@IAEXI@Z 1010f550 f i OpenExr:ImfDwaCompressor.obj
 0001:0010e5e0       ?_Reserve@?$vector@PADV?$allocator@PAD@std@@@std@@IAEXI@Z 1010f5e0 f i OpenExr:ImfDwaCompressor.obj
 0001:0010e5e0       ?_Reserve@?$vector@PAVDeepScanLineInputFile@Imf@@V?$allocator@PAVDeepScanLineInputFile@Imf@@@std@@@std@@IAEXI@Z 1010f5e0 f i OpenExr:ImfCompositeDeepScanLine.obj
 0001:0010e5e0       ?_Reserve@?$vector@W4PixelType@Imf@@V?$allocator@W4PixelType@Imf@@@std@@@std@@IAEXI@Z 1010f5e0 f i OpenExr:ImfDwaCompressor.obj
 0001:0010e650       ?_Pop_back_n@?$vector@V?$SimdAlignedBuffer64@M@Imf@@V?$allocator@V?$SimdAlignedBuffer64@M@Imf@@@std@@@std@@QAEXI@Z 1010f650 f i OpenExr:ImfDwaCompressor.obj
 0001:0010e6b0       ?_Reserve@?$vector@V?$SimdAlignedBuffer64@M@Imf@@V?$allocator@V?$SimdAlignedBuffer64@M@Imf@@@std@@@std@@IAEXI@Z 1010f6b0 f i OpenExr:ImfDwaCompressor.obj
 0001:0010e730       ?_Tidy@?$vector@V?$SimdAlignedBuffer64@G@Imf@@V?$allocator@V?$SimdAlignedBuffer64@G@Imf@@@std@@@std@@IAEXXZ 1010f730 f i OpenExr:ImfDwaCompressor.obj
 0001:0010e730       ?_Tidy@?$vector@V?$SimdAlignedBuffer64@M@Imf@@V?$allocator@V?$SimdAlignedBuffer64@M@Imf@@@std@@@std@@IAEXXZ 1010f730 f i OpenExr:ImfDwaCompressor.obj
 0001:0010e790       ?_Buy@?$vector@_KV?$allocator@_K@std@@@std@@IAE_NI@Z 1010f790 f i OpenExr:ImfScanLineInputFile.obj
 0001:0010e790       ?_Buy@?$vector@V?$SimdAlignedBuffer64@G@Imf@@V?$allocator@V?$SimdAlignedBuffer64@G@Imf@@@std@@@std@@IAE_NI@Z 1010f790 f i OpenExr:ImfDwaCompressor.obj
 0001:0010e800       ?_Buy@?$vector@GV?$allocator@G@std@@@std@@IAE_NI@Z 1010f800 f i OpenExr:ImfDwaCompressor.obj
 0001:0010e870       ?_Trim@?$vector@_NV?$allocator@_N@std@@@std@@QAEXI@Z 1010f870 f i OpenExr:ImfDwaCompressor.obj
 0001:0010e8e0       ?_Destroy@?$vector@UChannelData@DwaCompressor@Imf@@V?$allocator@UChannelData@DwaCompressor@Imf@@@std@@@std@@IAEXPAUChannelData@DwaCompressor@Imf@@0@Z 1010f8e0 f i OpenExr:ImfDwaCompressor.obj
 0001:0010e920       ?_Reallocate@?$vector@UChannelData@DwaCompressor@Imf@@V?$allocator@UChannelData@DwaCompressor@Imf@@@std@@@std@@IAEXI@Z 1010f920 f i OpenExr:ImfDwaCompressor.obj
 0001:0010ea10       ?_Reallocate@?$vector@UCscChannelSet@DwaCompressor@Imf@@V?$allocator@UCscChannelSet@DwaCompressor@Imf@@@std@@@std@@IAEXI@Z 1010fa10 f i OpenExr:ImfDwaCompressor.obj
 0001:0010eaa0       ?_Reallocate@?$vector@UClassifier@DwaCompressor@Imf@@V?$allocator@UClassifier@DwaCompressor@Imf@@@std@@@std@@IAEXI@Z 1010faa0 f i OpenExr:ImfDwaCompressor.obj
 0001:0010eb90       ?_Reallocate@?$vector@V?$basic_string@DU?$char_traits@D@std@@V?$allocator@D@2@@std@@V?$allocator@V?$basic_string@DU?$char_traits@D@std@@V?$allocator@D@2@@std@@@2@@std@@IAEXI@Z 1010fb90 f i OpenExr:ImfDwaCompressor.obj
 0001:0010ec30       ?_Reallocate@?$vector@V?$vector@PBDV?$allocator@PBD@std@@@std@@V?$allocator@V?$vector@PBDV?$allocator@PBD@std@@@std@@@2@@std@@IAEXI@Z 1010fc30 f i OpenExr:ImfDwaCompressor.obj
 0001:0010ec30       ?_Reallocate@?$vector@V?$vector@PADV?$allocator@PAD@std@@@std@@V?$allocator@V?$vector@PADV?$allocator@PAD@std@@@std@@@2@@std@@IAEXI@Z 1010fc30 f i OpenExr:ImfDwaCompressor.obj
 0001:0010ec30       ?_Reallocate@?$vector@V?$vector@_KV?$allocator@_K@std@@@std@@V?$allocator@V?$vector@_KV?$allocator@_K@std@@@std@@@2@@std@@IAEXI@Z 1010fc30 f i OpenExr:ImfTileOffsets.obj
 0001:0010ec30       ?_Reallocate@?$vector@V?$vector@PAMV?$allocator@PAM@std@@@std@@V?$allocator@V?$vector@PAMV?$allocator@PAM@std@@@std@@@2@@std@@IAEXI@Z 1010fc30 f i OpenExr:ImfCompositeDeepScanLine.obj
 0001:0010ecd0       ?_Reallocate@?$vector@V?$SimdAlignedBuffer64@M@Imf@@V?$allocator@V?$SimdAlignedBuffer64@M@Imf@@@std@@@std@@IAEXI@Z 1010fcd0 f i OpenExr:ImfDwaCompressor.obj
 0001:0010ed80       ?erase@?$vector@IV?$allocator@_N@std@@@std@@QAE?AV?$_Vector_iterator@V?$_Vector_val@U?$_Simple_types@I@std@@@std@@@2@V?$_Vector_const_iterator@V?$_Vector_val@U?$_Simple_types@I@std@@@std@@@2@0@Z 1010fd80 f i OpenExr:ImfDwaCompressor.obj
 0001:0010ede0       ?erase@?$_Tree@V?$_Tset_traits@V?$basic_string@DU?$char_traits@D@std@@V?$allocator@D@2@@std@@U?$less@V?$basic_string@DU?$char_traits@D@std@@V?$allocator@D@2@@std@@@2@V?$allocator@V?$basic_string@DU?$char_traits@D@std@@V?$allocator@D@2@@std@@@2@$0A@@std@@@std@@QAE?AV?$_Tree_const_iterator@V?$_Tree_val@U?$_Tree_simple_types@V?$basic_string@DU?$char_traits@D@std@@V?$allocator@D@2@@std@@@std@@@std@@@2@V32@0@Z 1010fde0 f i OpenExr:ImfMultiPartInputFile.obj
 0001:0010ede0       ?erase@?$_Tree@V?$_Tmap_traits@V?$basic_string@DU?$char_traits@D@std@@V?$allocator@D@2@@std@@UCscChannelSet@DwaCompressor@Imf@@U?$less@V?$basic_string@DU?$char_traits@D@std@@V?$allocator@D@2@@std@@@2@V?$allocator@U?$pair@$$CBV?$basic_string@DU?$char_traits@D@std@@V?$allocator@D@2@@std@@UCscChannelSet@DwaCompressor@Imf@@@std@@@2@$0A@@std@@@std@@QAE?AV?$_Tree_iterator@V?$_Tree_val@U?$_Tree_simple_types@U?$pair@$$CBV?$basic_string@DU?$char_traits@D@std@@V?$allocator@D@2@@std@@UCscChannelSet@DwaCompressor@Imf@@@std@@@std@@@std@@@2@V?$_Tree_const_iterator@V?$_Tree_val@U?$_Tree_simple_types@U?$pair@$$CBV?$basic_string@DU?$char_traits@D@std@@V?$allocator@D@2@@std@@UCscChannelSet@DwaCompressor@Imf@@@std@@@std@@@std@@@2@0@Z 1010fde0 f i OpenExr:ImfDwaCompressor.obj
 0001:0010eea0       ?_Lbound@?$_Tree@V?$_Tmap_traits@V?$basic_string@DU?$char_traits@D@std@@V?$allocator@D@2@@std@@UCscChannelSet@DwaCompressor@Imf@@U?$less@V?$basic_string@DU?$char_traits@D@std@@V?$allocator@D@2@@std@@@2@V?$allocator@U?$pair@$$CBV?$basic_string@DU?$char_traits@D@std@@V?$allocator@D@2@@std@@UCscChannelSet@DwaCompressor@Imf@@@std@@@2@$0A@@std@@@std@@IAEPAU?$_Tree_node@U?$pair@$$CBV?$basic_string@DU?$char_traits@D@std@@V?$allocator@D@2@@std@@UCscChannelSet@DwaCompressor@Imf@@@std@@PAX@2@ABV?$basic_string@DU?$char_traits@D@std@@V?$allocator@D@2@@2@@Z 1010fea0 f i OpenExr:ImfDwaCompressor.obj
 0001:0010eea0       ?_Lbound@?$_Tree@V?$_Tset_traits@V?$basic_string@DU?$char_traits@D@std@@V?$allocator@D@2@@std@@U?$less@V?$basic_string@DU?$char_traits@D@std@@V?$allocator@D@2@@std@@@2@V?$allocator@V?$basic_string@DU?$char_traits@D@std@@V?$allocator@D@2@@std@@@2@$0A@@std@@@std@@IAEPAU?$_Tree_node@V?$basic_string@DU?$char_traits@D@std@@V?$allocator@D@2@@std@@PAX@2@ABV?$basic_string@DU?$char_traits@D@std@@V?$allocator@D@2@@2@@Z 1010fea0 f i OpenExr:ImfMultiPartInputFile.obj
 0001:0010ef80       ?_Construct_n@?$vector@IV?$allocator@_N@std@@@std@@QAEXIPBI@Z 1010ff80 f i OpenExr:ImfDwaCompressor.obj
 0001:0010efc0       ?erase@?$_Tree@V?$_Tmap_traits@V?$basic_string@DU?$char_traits@D@std@@V?$allocator@D@2@@std@@UCscChannelSet@DwaCompressor@Imf@@U?$less@V?$basic_string@DU?$char_traits@D@std@@V?$allocator@D@2@@std@@@2@V?$allocator@U?$pair@$$CBV?$basic_string@DU?$char_traits@D@std@@V?$allocator@D@2@@std@@UCscChannelSet@DwaCompressor@Imf@@@std@@@2@$0A@@std@@@std@@QAE?AV?$_Tree_iterator@V?$_Tree_val@U?$_Tree_simple_types@U?$pair@$$CBV?$basic_string@DU?$char_traits@D@std@@V?$allocator@D@2@@std@@UCscChannelSet@DwaCompressor@Imf@@@std@@@std@@@std@@@2@V?$_Tree_const_iterator@V?$_Tree_val@U?$_Tree_simple_types@U?$pair@$$CBV?$basic_string@DU?$char_traits@D@std@@V?$allocator@D@2@@std@@UCscChannelSet@DwaCompressor@Imf@@@std@@@std@@@std@@@2@@Z 1010ffc0 f i OpenExr:ImfDwaCompressor.obj
 0001:0010efc0       ?erase@?$_Tree@V?$_Tset_traits@V?$basic_string@DU?$char_traits@D@std@@V?$allocator@D@2@@std@@U?$less@V?$basic_string@DU?$char_traits@D@std@@V?$allocator@D@2@@std@@@2@V?$allocator@V?$basic_string@DU?$char_traits@D@std@@V?$allocator@D@2@@std@@@2@$0A@@std@@@std@@QAE?AV?$_Tree_const_iterator@V?$_Tree_val@U?$_Tree_simple_types@V?$basic_string@DU?$char_traits@D@std@@V?$allocator@D@2@@std@@@std@@@std@@@2@V32@@Z 1010ffc0 f i OpenExr:ImfMultiPartInputFile.obj
 0001:0010f260       ?_Buyheadnode@?$_Tree_alloc@$0A@U?$_Tree_base_types@U?$pair@$$CBV?$basic_string@DU?$char_traits@D@std@@V?$allocator@D@2@@std@@UCscChannelSet@DwaCompressor@Imf@@@std@@V?$allocator@U?$pair@$$CBV?$basic_string@DU?$char_traits@D@std@@V?$allocator@D@2@@std@@UCscChannelSet@DwaCompressor@Imf@@@std@@@2@@std@@@std@@QAEPAU?$_Tree_node@U?$pair@$$CBV?$basic_string@DU?$char_traits@D@std@@V?$allocator@D@2@@std@@UCscChannelSet@DwaCompressor@Imf@@@std@@PAX@2@XZ 10110260 f i OpenExr:ImfDwaCompressor.obj
 0001:0010f290       ??$dctInverse8x8_scalar@$0A@@?A0xc5732b96@Imf@@YAXPAM@Z 10110290 f i OpenExr:ImfDwaCompressor.obj
 0001:0010f730       ??$dctInverse8x8_scalar@$00@?A0xc5732b96@Imf@@YAXPAM@Z 10110730 f i OpenExr:ImfDwaCompressor.obj
 0001:0010fbd0       ??$dctInverse8x8_scalar@$01@?A0xc5732b96@Imf@@YAXPAM@Z 10110bd0 f i OpenExr:ImfDwaCompressor.obj
 0001:00110070       ??$dctInverse8x8_scalar@$02@?A0xc5732b96@Imf@@YAXPAM@Z 10111070 f i OpenExr:ImfDwaCompressor.obj
 0001:00110510       ??$dctInverse8x8_scalar@$03@?A0xc5732b96@Imf@@YAXPAM@Z 10111510 f i OpenExr:ImfDwaCompressor.obj
 0001:001109b0       ??$dctInverse8x8_scalar@$04@?A0xc5732b96@Imf@@YAXPAM@Z 101119b0 f i OpenExr:ImfDwaCompressor.obj
 0001:00110e50       ??$dctInverse8x8_scalar@$05@?A0xc5732b96@Imf@@YAXPAM@Z 10111e50 f i OpenExr:ImfDwaCompressor.obj
 0001:001112f0       ??$dctInverse8x8_scalar@$06@?A0xc5732b96@Imf@@YAXPAM@Z 101122f0 f i OpenExr:ImfDwaCompressor.obj
 0001:00111770       ??$read@UCharPtrIO@Imf@@PBD@Xdr@Imf@@YAXAAPBDAAG@Z 10112770 f i OpenExr:ImfDwaCompressor.obj
 0001:00111770       ??$read@UCharPtrIO@Imf@@PBD@Xdr@Imf@@YAXAAPBDAAVhalf@@@Z 10112770 f i OpenExr:ImfDwaCompressor.obj
 0001:001117b0       ??$read@UCharPtrIO@Imf@@PBD@Xdr@Imf@@YAXAAPBDAAI@Z 101127b0 f i OpenExr:ImfMisc.obj
 0001:001117b0       ??$read@UCharPtrIO@Imf@@PBD@Xdr@Imf@@YAXAAPBDAAM@Z 101127b0 f i OpenExr:ImfDwaCompressor.obj
 0001:00111800       ??$write@UCharPtrIO@Imf@@PAD@Xdr@Imf@@YAXAAPAD_K@Z 10112800 f i OpenExr:ImfDwaCompressor.obj
 0001:00111890       ??$read@UCharPtrIO@Imf@@PBD@Xdr@Imf@@YAXAAPBDAA_K@Z 10112890 f i OpenExr:ImfDwaCompressor.obj
 0001:00111960       ??$_Transform@PADV?$_String_iterator@V?$_String_val@U?$_Simple_types@D@std@@@std@@@std@@P6AHH@Z@std@@YA?AV?$_String_iterator@V?$_String_val@U?$_Simple_types@D@std@@@std@@@0@PAD0V10@P6AHH@Z@Z 10112960 f i OpenExr:ImfDwaCompressor.obj
 0001:001119c0       ??$_Uninit_def_fill_n@PAUChannelData@DwaCompressor@Imf@@IV?$allocator@UChannelData@DwaCompressor@Imf@@@std@@U123@@std@@YAXPAUChannelData@DwaCompressor@Imf@@IAAU?$_Wrap_alloc@V?$allocator@UChannelData@DwaCompressor@Imf@@@std@@@0@0U_Nonscalar_ptr_iterator_tag@0@@Z 101129c0 f i OpenExr:ImfDwaCompressor.obj
 0001:001119e0       ??$_Uninit_def_fill_n@PAUCscChannelSet@DwaCompressor@Imf@@IV?$allocator@UCscChannelSet@DwaCompressor@Imf@@@std@@U123@@std@@YAXPAUCscChannelSet@DwaCompressor@Imf@@IAAU?$_Wrap_alloc@V?$allocator@UCscChannelSet@DwaCompressor@Imf@@@std@@@0@0U_Nonscalar_ptr_iterator_tag@0@@Z 101129e0 f i OpenExr:ImfDwaCompressor.obj
 0001:00111a00       ??$_Uninit_def_fill_n@PAV?$vector@_KV?$allocator@_K@std@@@std@@IV?$allocator@V?$vector@_KV?$allocator@_K@std@@@std@@@2@V12@@std@@YAXPAV?$vector@_KV?$allocator@_K@std@@@0@IAAU?$_Wrap_alloc@V?$allocator@V?$vector@_KV?$allocator@_K@std@@@std@@@std@@@0@0U_Nonscalar_ptr_iterator_tag@0@@Z 10112a00 f i OpenExr:ImfTileOffsets.obj
 0001:00111a00       ??$_Uninit_def_fill_n@PAV?$vector@PAMV?$allocator@PAM@std@@@std@@IV?$allocator@V?$vector@PAMV?$allocator@PAM@std@@@std@@@2@V12@@std@@YAXPAV?$vector@PAMV?$allocator@PAM@std@@@0@IAAU?$_Wrap_alloc@V?$allocator@V?$vector@PAMV?$allocator@PAM@std@@@std@@@std@@@0@0U_Nonscalar_ptr_iterator_tag@0@@Z 10112a00 f i OpenExr:ImfCompositeDeepScanLine.obj
 0001:00111a00       ??$_Uninit_def_fill_n@PAV?$vector@V?$vector@_KV?$allocator@_K@std@@@std@@V?$allocator@V?$vector@_KV?$allocator@_K@std@@@std@@@2@@std@@IV?$allocator@V?$vector@V?$vector@_KV?$allocator@_K@std@@@std@@V?$allocator@V?$vector@_KV?$allocator@_K@std@@@std@@@2@@std@@@2@V12@@std@@YAXPAV?$vector@V?$vector@_KV?$allocator@_K@std@@@std@@V?$allocator@V?$vector@_KV?$allocator@_K@std@@@std@@@2@@0@IAAU?$_Wrap_alloc@V?$allocator@V?$vector@V?$vector@_KV?$allocator@_K@std@@@std@@V?$allocator@V?$vector@_KV?$allocator@_K@std@@@std@@@2@@std@@@std@@@0@0U_Nonscalar_ptr_iterator_tag@0@@Z 10112a00 f i OpenExr:ImfTileOffsets.obj
 0001:00111a00       ??$_Uninit_def_fill_n@PAV?$vector@PADV?$allocator@PAD@std@@@std@@IV?$allocator@V?$vector@PADV?$allocator@PAD@std@@@std@@@2@V12@@std@@YAXPAV?$vector@PADV?$allocator@PAD@std@@@0@IAAU?$_Wrap_alloc@V?$allocator@V?$vector@PADV?$allocator@PAD@std@@@std@@@std@@@0@0U_Nonscalar_ptr_iterator_tag@0@@Z 10112a00 f i OpenExr:ImfDwaCompressor.obj
 0001:00111a00       ??$_Uninit_def_fill_n@PAV?$vector@IV?$allocator@I@std@@@std@@IV?$allocator@V?$vector@IV?$allocator@I@std@@@std@@@2@V12@@std@@YAXPAV?$vector@IV?$allocator@I@std@@@0@IAAU?$_Wrap_alloc@V?$allocator@V?$vector@IV?$allocator@I@std@@@std@@@std@@@0@0U_Nonscalar_ptr_iterator_tag@0@@Z 10112a00 f i OpenExr:ImfCompositeDeepScanLine.obj
 0001:00111a00       ??$_Uninit_def_fill_n@PAV?$vector@MV?$allocator@M@std@@@std@@IV?$allocator@V?$vector@MV?$allocator@M@std@@@std@@@2@V12@@std@@YAXPAV?$vector@MV?$allocator@M@std@@@0@IAAU?$_Wrap_alloc@V?$allocator@V?$vector@MV?$allocator@M@std@@@std@@@std@@@0@0U_Nonscalar_ptr_iterator_tag@0@@Z 10112a00 f i OpenExr:ImfCompositeDeepScanLine.obj
 0001:00111a00       ??$_Uninit_def_fill_n@PAV?$vector@V?$vector@PAMV?$allocator@PAM@std@@@std@@V?$allocator@V?$vector@PAMV?$allocator@PAM@std@@@std@@@2@@std@@IV?$allocator@V?$vector@V?$vector@PAMV?$allocator@PAM@std@@@std@@V?$allocator@V?$vector@PAMV?$allocator@PAM@std@@@std@@@2@@std@@@2@V12@@std@@YAXPAV?$vector@V?$vector@PAMV?$allocator@PAM@std@@@std@@V?$allocator@V?$vector@PAMV?$allocator@PAM@std@@@std@@@2@@0@IAAU?$_Wrap_alloc@V?$allocator@V?$vector@V?$vector@PAMV?$allocator@PAM@std@@@std@@V?$allocator@V?$vector@PAMV?$allocator@PAM@std@@@std@@@2@@std@@@std@@@0@0U_Nonscalar_ptr_iterator_tag@0@@Z 10112a00 f i OpenExr:ImfCompositeDeepScanLine.obj
 0001:00111a00       ??$_Uninit_def_fill_n@PAV?$vector@PBDV?$allocator@PBD@std@@@std@@IV?$allocator@V?$vector@PBDV?$allocator@PBD@std@@@std@@@2@V12@@std@@YAXPAV?$vector@PBDV?$allocator@PBD@std@@@0@IAAU?$_Wrap_alloc@V?$allocator@V?$vector@PBDV?$allocator@PBD@std@@@std@@@std@@@0@0U_Nonscalar_ptr_iterator_tag@0@@Z 10112a00 f i OpenExr:ImfDwaCompressor.obj
 0001:00111a30       ??$_Uninit_def_fill_n@PAV?$SimdAlignedBuffer64@M@Imf@@IV?$allocator@V?$SimdAlignedBuffer64@M@Imf@@@std@@V12@@std@@YAXPAV?$SimdAlignedBuffer64@M@Imf@@IAAU?$_Wrap_alloc@V?$allocator@V?$SimdAlignedBuffer64@M@Imf@@@std@@@0@0U_Nonscalar_ptr_iterator_tag@0@@Z 10112a30 f i OpenExr:ImfDwaCompressor.obj
 0001:00111a90       ??$_Uninit_def_fill_n@PAV?$SimdAlignedBuffer64@G@Imf@@IV?$allocator@V?$SimdAlignedBuffer64@G@Imf@@@std@@V12@@std@@YAXPAV?$SimdAlignedBuffer64@G@Imf@@IAAU?$_Wrap_alloc@V?$allocator@V?$SimdAlignedBuffer64@G@Imf@@@std@@@0@0U_Nonscalar_ptr_iterator_tag@0@@Z 10112a90 f i OpenExr:ImfDwaCompressor.obj
 0001:00111af0       ??$_Buynode@ABUpiecewise_construct_t@std@@V?$tuple@ABV?$basic_string@DU?$char_traits@D@std@@V?$allocator@D@2@@std@@@2@V?$tuple@$$$V@2@@?$_Tree_buy@U?$pair@$$CBV?$basic_string@DU?$char_traits@D@std@@V?$allocator@D@2@@std@@UCscChannelSet@DwaCompressor@Imf@@@std@@V?$allocator@U?$pair@$$CBV?$basic_string@DU?$char_traits@D@std@@V?$allocator@D@2@@std@@UCscChannelSet@DwaCompressor@Imf@@@std@@@2@@std@@QAEPAU?$_Tree_node@U?$pair@$$CBV?$basic_string@DU?$char_traits@D@std@@V?$allocator@D@2@@std@@UCscChannelSet@DwaCompressor@Imf@@@std@@PAX@1@ABUpiecewise_construct_t@1@$$QAV?$tuple@ABV?$basic_string@DU?$char_traits@D@std@@V?$allocator@D@2@@std@@@1@$$QAV?$tuple@$$$V@1@@Z 10112af0 f i OpenExr:ImfDwaCompressor.obj
 0001:00111ba0       ??$_Insert_hint@AAU?$pair@$$CBV?$basic_string@DU?$char_traits@D@std@@V?$allocator@D@2@@std@@UCscChannelSet@DwaCompressor@Imf@@@std@@PAU?$_Tree_node@U?$pair@$$CBV?$basic_string@DU?$char_traits@D@std@@V?$allocator@D@2@@std@@UCscChannelSet@DwaCompressor@Imf@@@std@@PAX@2@@?$_Tree@V?$_Tmap_traits@V?$basic_string@DU?$char_traits@D@std@@V?$allocator@D@2@@std@@UCscChannelSet@DwaCompressor@Imf@@U?$less@V?$basic_string@DU?$char_traits@D@std@@V?$allocator@D@2@@std@@@2@V?$allocator@U?$pair@$$CBV?$basic_string@DU?$char_traits@D@std@@V?$allocator@D@2@@std@@UCscChannelSet@DwaCompressor@Imf@@@std@@@2@$0A@@std@@@std@@IAE?AV?$_Tree_iterator@V?$_Tree_val@U?$_Tree_simple_types@U?$pair@$$CBV?$basic_string@DU?$char_traits@D@std@@V?$allocator@D@2@@std@@UCscChannelSet@DwaCompressor@Imf@@@std@@@std@@@std@@@1@V?$_Tree_const_iterator@V?$_Tree_val@U?$_Tree_simple_types@U?$pair@$$CBV?$basic_string@DU?$char_traits@D@std@@V?$allocator@D@2@@std@@UCscChannelSet@DwaCompressor@Imf@@@std@@@std@@@std@@@1@AAU?$pair@$$CBV?$basic_string@DU?$char_traits@D@std@@V?$allocator@D@2@@std@@UCscChannelSet@DwaCompressor@Imf@@@1@PAU?$_Tree_node@U?$pair@$$CBV?$basic_string@DU?$char_traits@D@std@@V?$allocator@D@2@@std@@UCscChannelSet@DwaCompressor@Imf@@@std@@PAX@1@@Z 10112ba0 f i OpenExr:ImfDwaCompressor.obj
 0001:00111dd0       ??$_Destroy_range@U?$_Wrap_alloc@V?$allocator@V?$vector@PADV?$allocator@PAD@std@@@std@@@std@@@std@@@std@@YAXPAV?$vector@PADV?$allocator@PAD@std@@@0@0AAU?$_Wrap_alloc@V?$allocator@V?$vector@PADV?$allocator@PAD@std@@@std@@@std@@@0@U_Nonscalar_ptr_iterator_tag@0@@Z 10112dd0 f i OpenExr:ImfDwaCompressor.obj
 0001:00111dd0       ??$_Destroy_range@U?$_Wrap_alloc@V?$allocator@V?$vector@PBDV?$allocator@PBD@std@@@std@@@std@@@std@@@std@@YAXPAV?$vector@PBDV?$allocator@PBD@std@@@0@0AAU?$_Wrap_alloc@V?$allocator@V?$vector@PBDV?$allocator@PBD@std@@@std@@@std@@@0@U_Nonscalar_ptr_iterator_tag@0@@Z 10112dd0 f i OpenExr:ImfDwaCompressor.obj
 0001:00111dd0       ??$_Destroy_range@U?$_Wrap_alloc@V?$allocator@V?$vector@MV?$allocator@M@std@@@std@@@std@@@std@@@std@@YAXPAV?$vector@MV?$allocator@M@std@@@0@0AAU?$_Wrap_alloc@V?$allocator@V?$vector@MV?$allocator@M@std@@@std@@@std@@@0@U_Nonscalar_ptr_iterator_tag@0@@Z 10112dd0 f i OpenExr:ImfCompositeDeepScanLine.obj
 0001:00111dd0       ??$_Destroy_range@U?$_Wrap_alloc@V?$allocator@V?$vector@IV?$allocator@I@std@@@std@@@std@@@std@@@std@@YAXPAV?$vector@IV?$allocator@I@std@@@0@0AAU?$_Wrap_alloc@V?$allocator@V?$vector@IV?$allocator@I@std@@@std@@@std@@@0@U_Nonscalar_ptr_iterator_tag@0@@Z 10112dd0 f i OpenExr:ImfCompositeDeepScanLine.obj
 0001:00111dd0       ??$_Destroy_range@U?$_Wrap_alloc@V?$allocator@V?$vector@_KV?$allocator@_K@std@@@std@@@std@@@std@@@std@@YAXPAV?$vector@_KV?$allocator@_K@std@@@0@0AAU?$_Wrap_alloc@V?$allocator@V?$vector@_KV?$allocator@_K@std@@@std@@@std@@@0@U_Nonscalar_ptr_iterator_tag@0@@Z 10112dd0 f i OpenExr:ImfMultiPartInputFile.obj
 0001:00111dd0       ??$_Destroy_range@U?$_Wrap_alloc@V?$allocator@V?$vector@PAMV?$allocator@PAM@std@@@std@@@std@@@std@@@std@@YAXPAV?$vector@PAMV?$allocator@PAM@std@@@0@0AAU?$_Wrap_alloc@V?$allocator@V?$vector@PAMV?$allocator@PAM@std@@@std@@@std@@@0@U_Nonscalar_ptr_iterator_tag@0@@Z 10112dd0 f i OpenExr:ImfCompositeDeepScanLine.obj
 0001:00111e10       ?_Destroy_if_not_nil@?$_Tree@V?$_Tmap_traits@V?$basic_string@DU?$char_traits@D@std@@V?$allocator@D@2@@std@@UCscChannelSet@DwaCompressor@Imf@@U?$less@V?$basic_string@DU?$char_traits@D@std@@V?$allocator@D@2@@std@@@2@V?$allocator@U?$pair@$$CBV?$basic_string@DU?$char_traits@D@std@@V?$allocator@D@2@@std@@UCscChannelSet@DwaCompressor@Imf@@@std@@@2@$0A@@std@@@std@@IAEXPAU?$_Tree_node@U?$pair@$$CBV?$basic_string@DU?$char_traits@D@std@@V?$allocator@D@2@@std@@UCscChannelSet@DwaCompressor@Imf@@@std@@PAX@2@@Z 10112e10 f i OpenExr:ImfDwaCompressor.obj
 0001:00111e50       ?_Buynode0@?$_Tree_buy@U?$pair@$$CBV?$basic_string@DU?$char_traits@D@std@@V?$allocator@D@2@@std@@UCscChannelSet@DwaCompressor@Imf@@@std@@V?$allocator@U?$pair@$$CBV?$basic_string@DU?$char_traits@D@std@@V?$allocator@D@2@@std@@UCscChannelSet@DwaCompressor@Imf@@@std@@@2@@std@@QAEPAU?$_Tree_node@U?$pair@$$CBV?$basic_string@DU?$char_traits@D@std@@V?$allocator@D@2@@std@@UCscChannelSet@DwaCompressor@Imf@@@std@@PAX@2@XZ 10112e50 f i OpenExr:ImfDwaCompressor.obj
 0001:00111e90       ??0?$vector@PBDV?$allocator@PBD@std@@@std@@QAE@ABV01@@Z 10112e90 f i OpenExr:ImfDwaCompressor.obj
 0001:00111e90       ??0?$vector@PADV?$allocator@PAD@std@@@std@@QAE@ABV01@@Z 10112e90 f i OpenExr:ImfDwaCompressor.obj
 0001:00111ef0       ??$_Insert_at@AAU?$pair@$$CBV?$basic_string@DU?$char_traits@D@std@@V?$allocator@D@2@@std@@UCscChannelSet@DwaCompressor@Imf@@@std@@PAU?$_Tree_node@U?$pair@$$CBV?$basic_string@DU?$char_traits@D@std@@V?$allocator@D@2@@std@@UCscChannelSet@DwaCompressor@Imf@@@std@@PAX@2@@?$_Tree@V?$_Tmap_traits@V?$basic_string@DU?$char_traits@D@std@@V?$allocator@D@2@@std@@UCscChannelSet@DwaCompressor@Imf@@U?$less@V?$basic_string@DU?$char_traits@D@std@@V?$allocator@D@2@@std@@@2@V?$allocator@U?$pair@$$CBV?$basic_string@DU?$char_traits@D@std@@V?$allocator@D@2@@std@@UCscChannelSet@DwaCompressor@Imf@@@std@@@2@$0A@@std@@@std@@IAE?AV?$_Tree_iterator@V?$_Tree_val@U?$_Tree_simple_types@U?$pair@$$CBV?$basic_string@DU?$char_traits@D@std@@V?$allocator@D@2@@std@@UCscChannelSet@DwaCompressor@Imf@@@std@@@std@@@std@@@1@_NPAU?$_Tree_node@U?$pair@$$CBV?$basic_string@DU?$char_traits@D@std@@V?$allocator@D@2@@std@@UCscChannelSet@DwaCompressor@Imf@@@std@@PAX@1@AAU?$pair@$$CBV?$basic_string@DU?$char_traits@D@std@@V?$allocator@D@2@@std@@UCscChannelSet@DwaCompressor@Imf@@@1@1@Z 10112ef0 f i OpenExr:ImfDwaCompressor.obj
 0001:001120f0       ??$_Insert_nohint@AAU?$pair@$$CBV?$basic_string@DU?$char_traits@D@std@@V?$allocator@D@2@@std@@UCscChannelSet@DwaCompressor@Imf@@@std@@PAU?$_Tree_node@U?$pair@$$CBV?$basic_string@DU?$char_traits@D@std@@V?$allocator@D@2@@std@@UCscChannelSet@DwaCompressor@Imf@@@std@@PAX@2@@?$_Tree@V?$_Tmap_traits@V?$basic_string@DU?$char_traits@D@std@@V?$allocator@D@2@@std@@UCscChannelSet@DwaCompressor@Imf@@U?$less@V?$basic_string@DU?$char_traits@D@std@@V?$allocator@D@2@@std@@@2@V?$allocator@U?$pair@$$CBV?$basic_string@DU?$char_traits@D@std@@V?$allocator@D@2@@std@@UCscChannelSet@DwaCompressor@Imf@@@std@@@2@$0A@@std@@@std@@IAE?AU?$pair@V?$_Tree_iterator@V?$_Tree_val@U?$_Tree_simple_types@U?$pair@$$CBV?$basic_string@DU?$char_traits@D@std@@V?$allocator@D@2@@std@@UCscChannelSet@DwaCompressor@Imf@@@std@@@std@@@std@@@std@@_N@1@_NAAU?$pair@$$CBV?$basic_string@DU?$char_traits@D@std@@V?$allocator@D@2@@std@@UCscChannelSet@DwaCompressor@Imf@@@1@PAU?$_Tree_node@U?$pair@$$CBV?$basic_string@DU?$char_traits@D@std@@V?$allocator@D@2@@std@@UCscChannelSet@DwaCompressor@Imf@@@std@@PAX@1@@Z 101130f0 f i OpenExr:ImfDwaCompressor.obj
 0001:001122e0       ??$_Uninit_move@PAUChannelData@DwaCompressor@Imf@@PAU123@V?$allocator@UChannelData@DwaCompressor@Imf@@@std@@U123@@std@@YAPAUChannelData@DwaCompressor@Imf@@PAU123@00AAU?$_Wrap_alloc@V?$allocator@UChannelData@DwaCompressor@Imf@@@std@@@0@0U_Nonscalar_ptr_iterator_tag@0@@Z 101132e0 f i OpenExr:ImfDwaCompressor.obj
 0001:00112380       ??$_Uninit_move@PAUClassifier@DwaCompressor@Imf@@PAU123@V?$allocator@UClassifier@DwaCompressor@Imf@@@std@@U123@@std@@YAPAUClassifier@DwaCompressor@Imf@@PAU123@00AAU?$_Wrap_alloc@V?$allocator@UClassifier@DwaCompressor@Imf@@@std@@@0@0U_Nonscalar_ptr_iterator_tag@0@@Z 10113380 f i OpenExr:ImfDwaCompressor.obj
 0001:00112450       ??$_Uninit_move@PAV?$basic_string@DU?$char_traits@D@std@@V?$allocator@D@2@@std@@PAV12@V?$allocator@V?$basic_string@DU?$char_traits@D@std@@V?$allocator@D@2@@std@@@2@V12@@std@@YAPAV?$basic_string@DU?$char_traits@D@std@@V?$allocator@D@2@@0@PAV10@00AAU?$_Wrap_alloc@V?$allocator@V?$basic_string@DU?$char_traits@D@std@@V?$allocator@D@2@@std@@@std@@@0@0U_Nonscalar_ptr_iterator_tag@0@@Z 10113450 f i OpenExr:ImfDwaCompressor.obj
 0001:001124e0       ??$_Uninit_move@PAV?$vector@PAMV?$allocator@PAM@std@@@std@@PAV12@V?$allocator@V?$vector@PAMV?$allocator@PAM@std@@@std@@@2@V12@@std@@YAPAV?$vector@PAMV?$allocator@PAM@std@@@0@PAV10@00AAU?$_Wrap_alloc@V?$allocator@V?$vector@PAMV?$allocator@PAM@std@@@std@@@std@@@0@0U_Nonscalar_ptr_iterator_tag@0@@Z 101134e0 f i OpenExr:ImfCompositeDeepScanLine.obj
 0001:001124e0       ??$_Uninit_move@PAV?$vector@PADV?$allocator@PAD@std@@@std@@PAV12@V?$allocator@V?$vector@PADV?$allocator@PAD@std@@@std@@@2@V12@@std@@YAPAV?$vector@PADV?$allocator@PAD@std@@@0@PAV10@00AAU?$_Wrap_alloc@V?$allocator@V?$vector@PADV?$allocator@PAD@std@@@std@@@std@@@0@0U_Nonscalar_ptr_iterator_tag@0@@Z 101134e0 f i OpenExr:ImfDwaCompressor.obj
 0001:001124e0       ??$_Uninit_move@PAV?$vector@_KV?$allocator@_K@std@@@std@@PAV12@V?$allocator@V?$vector@_KV?$allocator@_K@std@@@std@@@2@V12@@std@@YAPAV?$vector@_KV?$allocator@_K@std@@@0@PAV10@00AAU?$_Wrap_alloc@V?$allocator@V?$vector@_KV?$allocator@_K@std@@@std@@@std@@@0@0U_Nonscalar_ptr_iterator_tag@0@@Z 101134e0 f i OpenExr:ImfTileOffsets.obj
 0001:001124e0       ??$_Uninit_move@PAV?$vector@V?$vector@_KV?$allocator@_K@std@@@std@@V?$allocator@V?$vector@_KV?$allocator@_K@std@@@std@@@2@@std@@PAV12@V?$allocator@V?$vector@V?$vector@_KV?$allocator@_K@std@@@std@@V?$allocator@V?$vector@_KV?$allocator@_K@std@@@std@@@2@@std@@@2@V12@@std@@YAPAV?$vector@V?$vector@_KV?$allocator@_K@std@@@std@@V?$allocator@V?$vector@_KV?$allocator@_K@std@@@std@@@2@@0@PAV10@00AAU?$_Wrap_alloc@V?$allocator@V?$vector@V?$vector@_KV?$allocator@_K@std@@@std@@V?$allocator@V?$vector@_KV?$allocator@_K@std@@@std@@@2@@std@@@std@@@0@0U_Nonscalar_ptr_iterator_tag@0@@Z 101134e0 f i OpenExr:ImfTileOffsets.obj
 0001:001124e0       ??$_Uninit_move@PAV?$vector@PBDV?$allocator@PBD@std@@@std@@PAV12@V?$allocator@V?$vector@PBDV?$allocator@PBD@std@@@std@@@2@V12@@std@@YAPAV?$vector@PBDV?$allocator@PBD@std@@@0@PAV10@00AAU?$_Wrap_alloc@V?$allocator@V?$vector@PBDV?$allocator@PBD@std@@@std@@@std@@@0@0U_Nonscalar_ptr_iterator_tag@0@@Z 101134e0 f i OpenExr:ImfDwaCompressor.obj
 0001:00112540       ??$_Uninit_move@PAV?$SimdAlignedBuffer64@M@Imf@@PAV12@V?$allocator@V?$SimdAlignedBuffer64@M@Imf@@@std@@V12@@std@@YAPAV?$SimdAlignedBuffer64@M@Imf@@PAV12@00AAU?$_Wrap_alloc@V?$allocator@V?$SimdAlignedBuffer64@M@Imf@@@std@@@0@0U_Nonscalar_ptr_iterator_tag@0@@Z 10113540 f i OpenExr:ImfDwaCompressor.obj
 0001:001125d0       ??0ChannelData@DwaCompressor@Imf@@QAE@ABU012@@Z 101135d0 f i OpenExr:ImfDwaCompressor.obj
 0001:00112660       ?writeValueTo@?$TypedAttribute@VKeyCode@Imf@@@Imf@@UBEXAAVOStream@2@H@Z 10113660 f   OpenExr:ImfKeyCodeAttribute.obj
 0001:001127a0       ?readValueFrom@?$TypedAttribute@VKeyCode@Imf@@@Imf@@UAEXAAVIStream@2@HH@Z 101137a0 f   OpenExr:ImfKeyCodeAttribute.obj
 0001:00112a50       ??1EprotonosupportExc@Iex@@UAE@XZ 10113a50 f i IlmBase:IexThrowErrnoExc.obj
 0001:00112a50       ??1EpipeExc@Iex@@UAE@XZ    10113a50 f i IlmBase:IexThrowErrnoExc.obj
 0001:00112a50       ??1EaddrnotavailExc@Iex@@UAE@XZ 10113a50 f i IlmBase:IexThrowErrnoExc.obj
 0001:00112a50       ??1EnetdownExc@Iex@@UAE@XZ 10113a50 f i IlmBase:IexThrowErrnoExc.obj
 0001:00112a50       ??1EfaultExc@Iex@@UAE@XZ   10113a50 f i IlmBase:IexThrowErrnoExc.obj
 0001:00112a50       ??1EbadfExc@Iex@@UAE@XZ    10113a50 f i IlmBase:IexThrowErrnoExc.obj
 0001:00112a50       ??1EspipeExc@Iex@@UAE@XZ   10113a50 f i IlmBase:IexThrowErrnoExc.obj
 0001:00112a50       ??1EdestaddrreqExc@Iex@@UAE@XZ 10113a50 f i IlmBase:IexThrowErrnoExc.obj
 0001:00112a50       ??1EnosrExc@Iex@@UAE@XZ    10113a50 f i IlmBase:IexThrowErrnoExc.obj
 0001:00112a50       ??1EnetresetExc@Iex@@UAE@XZ 10113a50 f i IlmBase:IexThrowErrnoExc.obj
 0001:00112a50       ??1EprototypeExc@Iex@@UAE@XZ 10113a50 f i IlmBase:IexThrowErrnoExc.obj
 0001:00112a50       ??1EnolckExc@Iex@@UAE@XZ   10113a50 f i IlmBase:IexThrowErrnoExc.obj
 0001:00112a50       ??1EaccesExc@Iex@@UAE@XZ   10113a50 f i IlmBase:IexThrowErrnoExc.obj
 0001:00112a50       ??1EnomsgExc@Iex@@UAE@XZ   10113a50 f i IlmBase:IexThrowErrnoExc.obj
 0001:00112a50       ??1EalreadyExc@Iex@@UAE@XZ 10113a50 f i IlmBase:IexThrowErrnoExc.obj
 0001:00112a50       ??1EmsgsizeExc@Iex@@UAE@XZ 10113a50 f i IlmBase:IexThrowErrnoExc.obj
 0001:00112a50       ??1EoverflowExc@Iex@@UAE@XZ 10113a50 f i IlmBase:IexThrowErrnoExc.obj
 0001:00112a50       ??1EaddrinuseExc@Iex@@UAE@XZ 10113a50 f i IlmBase:IexThrowErrnoExc.obj
 0001:00112a50       ??1EconnrefusedExc@Iex@@UAE@XZ 10113a50 f i IlmBase:IexThrowErrnoExc.obj
 0001:00112a50       ??1EnxioExc@Iex@@UAE@XZ    10113a50 f i IlmBase:IexThrowErrnoExc.obj
 0001:00112a50       ??1EnoentExc@Iex@@UAE@XZ   10113a50 f i IlmBase:IexThrowErrnoExc.obj
 0001:00112a50       ??1EintrExc@Iex@@UAE@XZ    10113a50 f i IlmBase:IexThrowErrnoExc.obj
 0001:00112a50       ??1ErofsExc@Iex@@UAE@XZ    10113a50 f i IlmBase:IexThrowErrnoExc.obj
 0001:00112a50       ??1EdomExc@Iex@@UAE@XZ     10113a50 f i IlmBase:IexThrowErrnoExc.obj
 0001:00112a50       ??1EexistExc@Iex@@UAE@XZ   10113a50 f i IlmBase:IexThrowErrnoExc.obj
 0001:00112a50       ??1EinvalExc@Iex@@UAE@XZ   10113a50 f i IlmBase:IexThrowErrnoExc.obj
 0001:00112a50       ??1EnospcExc@Iex@@UAE@XZ   10113a50 f i IlmBase:IexThrowErrnoExc.obj
 0001:00112a50       ??1EprotoExc@Iex@@UAE@XZ   10113a50 f i IlmBase:IexThrowErrnoExc.obj
 0001:00112a50       ??1EtimedoutExc@Iex@@UAE@XZ 10113a50 f i IlmBase:IexThrowErrnoExc.obj
 0001:00112a50       ??1EnodataExc@Iex@@UAE@XZ  10113a50 f i IlmBase:IexThrowErrnoExc.obj
 0001:00112a50       ??1EconnresetExc@Iex@@UAE@XZ 10113a50 f i IlmBase:IexThrowErrnoExc.obj
 0001:00112a50       ??1EilseqExc@Iex@@UAE@XZ   10113a50 f i IlmBase:IexThrowErrnoExc.obj
 0001:00112a50       ??1EloopExc@Iex@@UAE@XZ    10113a50 f i IlmBase:IexThrowErrnoExc.obj
 0001:00112a50       ??1EhostunreachExc@Iex@@UAE@XZ 10113a50 f i IlmBase:IexThrowErrnoExc.obj
 0001:00112a50       ??1EcanceledExc@Iex@@UAE@XZ 10113a50 f i IlmBase:IexThrowErrnoExc.obj
 0001:00112a50       ??1EdeadlkExc@Iex@@UAE@XZ  10113a50 f i IlmBase:IexThrowErrnoExc.obj
 0001:00112a50       ??1EnodevExc@Iex@@UAE@XZ   10113a50 f i IlmBase:IexThrowErrnoExc.obj
 0001:00112a50       ??1EnomemExc@Iex@@UAE@XZ   10113a50 f i IlmBase:IexThrowErrnoExc.obj
 0001:00112a50       ??1EnotdirExc@Iex@@UAE@XZ  10113a50 f i IlmBase:IexThrowErrnoExc.obj
 0001:00112a50       ??1EnotsupExc@Iex@@UAE@XZ  10113a50 f i IlmBase:IexThrowErrnoExc.obj
 0001:00112a50       ??1EnfileExc@Iex@@UAE@XZ   10113a50 f i IlmBase:IexThrowErrnoExc.obj
 0001:00112a50       ??1EtxtbsyExc@Iex@@UAE@XZ  10113a50 f i IlmBase:IexThrowErrnoExc.obj
 0001:00112a50       ??1EconnabortedExc@Iex@@UAE@XZ 10113a50 f i IlmBase:IexThrowErrnoExc.obj
 0001:00112a50       ??1ErrnoExc@Iex@@UAE@XZ    10113a50 f i OpenExr:ImfStdIO.obj
 0001:00112a50       ??1EopnotsuppExc@Iex@@UAE@XZ 10113a50 f i IlmBase:IexThrowErrnoExc.obj
 0001:00112a50       ??1EidrmExc@Iex@@UAE@XZ    10113a50 f i IlmBase:IexThrowErrnoExc.obj
 0001:00112a50       ??1EmfileExc@Iex@@UAE@XZ   10113a50 f i IlmBase:IexThrowErrnoExc.obj
 0001:00112a50       ??1EbadmsgExc@Iex@@UAE@XZ  10113a50 f i IlmBase:IexThrowErrnoExc.obj
 0001:00112a50       ??1EnosysExc@Iex@@UAE@XZ   10113a50 f i IlmBase:IexThrowErrnoExc.obj
 0001:00112a50       ??1EbusyExc@Iex@@UAE@XZ    10113a50 f i IlmBase:IexThrowErrnoExc.obj
 0001:00112a50       ??1EnoprotooptExc@Iex@@UAE@XZ 10113a50 f i IlmBase:IexThrowErrnoExc.obj
 0001:00112a50       ??1EnotemptyExc@Iex@@UAE@XZ 10113a50 f i IlmBase:IexThrowErrnoExc.obj
 0001:00112a50       ??1EnotconnExc@Iex@@UAE@XZ 10113a50 f i IlmBase:IexThrowErrnoExc.obj
 0001:00112a50       ??1EchildExc@Iex@@UAE@XZ   10113a50 f i IlmBase:IexThrowErrnoExc.obj
 0001:00112a50       ??1EfbigExc@Iex@@UAE@XZ    10113a50 f i IlmBase:IexThrowErrnoExc.obj
 0001:00112a50       ??1EnolinkExc@Iex@@UAE@XZ  10113a50 f i IlmBase:IexThrowErrnoExc.obj
 0001:00112a50       ??1EioExc@Iex@@UAE@XZ      10113a50 f i IlmBase:IexThrowErrnoExc.obj
 0001:00112a50       ??1EmlinkExc@Iex@@UAE@XZ   10113a50 f i IlmBase:IexThrowErrnoExc.obj
 0001:00112a50       ??1EinprogressExc@Iex@@UAE@XZ 10113a50 f i IlmBase:IexThrowErrnoExc.obj
 0001:00112a50       ??1EisdirExc@Iex@@UAE@XZ   10113a50 f i IlmBase:IexThrowErrnoExc.obj
 0001:00112a50       ??1EpermExc@Iex@@UAE@XZ    10113a50 f i IlmBase:IexThrowErrnoExc.obj
 0001:00112a50       ??1E2bigExc@Iex@@UAE@XZ    10113a50 f i IlmBase:IexThrowErrnoExc.obj
 0001:00112a50       ??1EnostrExc@Iex@@UAE@XZ   10113a50 f i IlmBase:IexThrowErrnoExc.obj
 0001:00112a50       ??1EtimeExc@Iex@@UAE@XZ    10113a50 f i IlmBase:IexThrowErrnoExc.obj
 0001:00112a50       ??1ErangeExc@Iex@@UAE@XZ   10113a50 f i IlmBase:IexThrowErrnoExc.obj
 0001:00112a50       ??1EafnosupportExc@Iex@@UAE@XZ 10113a50 f i IlmBase:IexThrowErrnoExc.obj
 0001:00112a50       ??1EnoexecExc@Iex@@UAE@XZ  10113a50 f i IlmBase:IexThrowErrnoExc.obj
 0001:00112a50       ??1EisconnExc@Iex@@UAE@XZ  10113a50 f i IlmBase:IexThrowErrnoExc.obj
 0001:00112a50       ??1EnetunreachExc@Iex@@UAE@XZ 10113a50 f i IlmBase:IexThrowErrnoExc.obj
 0001:00112a50       ??1EnobufsExc@Iex@@UAE@XZ  10113a50 f i IlmBase:IexThrowErrnoExc.obj
 0001:00112a50       ??1EnametoolongExc@Iex@@UAE@XZ 10113a50 f i IlmBase:IexThrowErrnoExc.obj
 0001:00112a50       ??1EnotsockExc@Iex@@UAE@XZ 10113a50 f i IlmBase:IexThrowErrnoExc.obj
 0001:00112a50       ??1EagainExc@Iex@@UAE@XZ   10113a50 f i IlmBase:IexThrowErrnoExc.obj
 0001:00112a50       ??1EsrchExc@Iex@@UAE@XZ    10113a50 f i IlmBase:IexThrowErrnoExc.obj
 0001:00112a50       ??1EnottyExc@Iex@@UAE@XZ   10113a50 f i IlmBase:IexThrowErrnoExc.obj
 0001:00112a50       ??1ExdevExc@Iex@@UAE@XZ    10113a50 f i IlmBase:IexThrowErrnoExc.obj
 0001:00112a60       ??_GEtxtbsyExc@Iex@@UAEPAXI@Z 10113a60 f i IlmBase:IexThrowErrnoExc.obj
 0001:00112a60       ??_GEisdirExc@Iex@@UAEPAXI@Z 10113a60 f i IlmBase:IexThrowErrnoExc.obj
 0001:00112a60       ??_GErofsExc@Iex@@UAEPAXI@Z 10113a60 f i IlmBase:IexThrowErrnoExc.obj
 0001:00112a60       ??_GEnfileExc@Iex@@UAEPAXI@Z 10113a60 f i IlmBase:IexThrowErrnoExc.obj
 0001:00112a60       ??_GEexistExc@Iex@@UAEPAXI@Z 10113a60 f i IlmBase:IexThrowErrnoExc.obj
 0001:00112a60       ??_GEnostrExc@Iex@@UAEPAXI@Z 10113a60 f i IlmBase:IexThrowErrnoExc.obj
 0001:00112a60       ??_GEchildExc@Iex@@UAEPAXI@Z 10113a60 f i IlmBase:IexThrowErrnoExc.obj
 0001:00112a60       ??_GEnospcExc@Iex@@UAEPAXI@Z 10113a60 f i IlmBase:IexThrowErrnoExc.obj
 0001:00112a60       ??_EEtimedoutExc@Iex@@UAEPAXI@Z 10113a60 f i * CIL library *:* CIL module *
 0001:00112a60       ??_EEidrmExc@Iex@@UAEPAXI@Z 10113a60 f i * CIL library *:* CIL module *
 0001:00112a60       ??_EEnetdownExc@Iex@@UAEPAXI@Z 10113a60 f i * CIL library *:* CIL module *
 0001:00112a60       ??_EEnoprotooptExc@Iex@@UAEPAXI@Z 10113a60 f i * CIL library *:* CIL module *
 0001:00112a60       ??_EE2bigExc@Iex@@UAEPAXI@Z 10113a60 f i * CIL library *:* CIL module *
 0001:00112a60       ??_EEopnotsuppExc@Iex@@UAEPAXI@Z 10113a60 f i * CIL library *:* CIL module *
 0001:00112a60       ??_GEbusyExc@Iex@@UAEPAXI@Z 10113a60 f i IlmBase:IexThrowErrnoExc.obj
 0001:00112a60       ??_EEbadmsgExc@Iex@@UAEPAXI@Z 10113a60 f i * CIL library *:* CIL module *
 0001:00112a60       ??_GEaddrinuseExc@Iex@@UAEPAXI@Z 10113a60 f i IlmBase:IexThrowErrnoExc.obj
 0001:00112a60       ??_GEpermExc@Iex@@UAEPAXI@Z 10113a60 f i IlmBase:IexThrowErrnoExc.obj
 0001:00112a60       ??_EEnobufsExc@Iex@@UAEPAXI@Z 10113a60 f i * CIL library *:* CIL module *
 0001:00112a60       ??_GExdevExc@Iex@@UAEPAXI@Z 10113a60 f i IlmBase:IexThrowErrnoExc.obj
 0001:00112a60       ??_EEfbigExc@Iex@@UAEPAXI@Z 10113a60 f i * CIL library *:* CIL module *
 0001:00112a60       ??_GEprototypeExc@Iex@@UAEPAXI@Z 10113a60 f i IlmBase:IexThrowErrnoExc.obj
 0001:00112a60       ??_EEnoentExc@Iex@@UAEPAXI@Z 10113a60 f i * CIL library *:* CIL module *
 0001:00112a60       ??_EEnostrExc@Iex@@UAEPAXI@Z 10113a60 f i * CIL library *:* CIL module *
 0001:00112a60       ??_EErofsExc@Iex@@UAEPAXI@Z 10113a60 f i * CIL library *:* CIL module *
 0001:00112a60       ??_GEnodataExc@Iex@@UAEPAXI@Z 10113a60 f i IlmBase:IexThrowErrnoExc.obj
 0001:00112a60       ??_GEnoexecExc@Iex@@UAEPAXI@Z 10113a60 f i IlmBase:IexThrowErrnoExc.obj
 0001:00112a60       ??_EEconnresetExc@Iex@@UAEPAXI@Z 10113a60 f i * CIL library *:* CIL module *
 0001:00112a60       ??_GEhostunreachExc@Iex@@UAEPAXI@Z 10113a60 f i IlmBase:IexThrowErrnoExc.obj
 0001:00112a60       ??_GEbadmsgExc@Iex@@UAEPAXI@Z 10113a60 f i IlmBase:IexThrowErrnoExc.obj
 0001:00112a60       ??_EEtimeExc@Iex@@UAEPAXI@Z 10113a60 f i * CIL library *:* CIL module *
 0001:00112a60       ??_GEnotsupExc@Iex@@UAEPAXI@Z 10113a60 f i IlmBase:IexThrowErrnoExc.obj
 0001:00112a60       ??_EEnotconnExc@Iex@@UAEPAXI@Z 10113a60 f i * CIL library *:* CIL module *
 0001:00112a60       ??_EEnosysExc@Iex@@UAEPAXI@Z 10113a60 f i * CIL library *:* CIL module *
 0001:00112a60       ??_EEnotdirExc@Iex@@UAEPAXI@Z 10113a60 f i * CIL library *:* CIL module *
 0001:00112a60       ??_GEloopExc@Iex@@UAEPAXI@Z 10113a60 f i IlmBase:IexThrowErrnoExc.obj
 0001:00112a60       ??_EEioExc@Iex@@UAEPAXI@Z  10113a60 f i * CIL library *:* CIL module *
 0001:00112a60       ??_GEalreadyExc@Iex@@UAEPAXI@Z 10113a60 f i IlmBase:IexThrowErrnoExc.obj
 0001:00112a60       ??_EEnetresetExc@Iex@@UAEPAXI@Z 10113a60 f i * CIL library *:* CIL module *
 0001:00112a60       ??_GEtimeExc@Iex@@UAEPAXI@Z 10113a60 f i IlmBase:IexThrowErrnoExc.obj
 0001:00112a60       ??_GEaccesExc@Iex@@UAEPAXI@Z 10113a60 f i IlmBase:IexThrowErrnoExc.obj
 0001:00112a60       ??_EEdestaddrreqExc@Iex@@UAEPAXI@Z 10113a60 f i * CIL library *:* CIL module *
 0001:00112a60       ??_GEisconnExc@Iex@@UAEPAXI@Z 10113a60 f i IlmBase:IexThrowErrnoExc.obj
 0001:00112a60       ??_EEnfileExc@Iex@@UAEPAXI@Z 10113a60 f i * CIL library *:* CIL module *
 0001:00112a60       ??_EEnametoolongExc@Iex@@UAEPAXI@Z 10113a60 f i * CIL library *:* CIL module *
 0001:00112a60       ??_EEnotsockExc@Iex@@UAEPAXI@Z 10113a60 f i * CIL library *:* CIL module *
 0001:00112a60       ??_GEnomemExc@Iex@@UAEPAXI@Z 10113a60 f i IlmBase:IexThrowErrnoExc.obj
 0001:00112a60       ??_GEmlinkExc@Iex@@UAEPAXI@Z 10113a60 f i IlmBase:IexThrowErrnoExc.obj
 0001:00112a60       ??_EEnospcExc@Iex@@UAEPAXI@Z 10113a60 f i * CIL library *:* CIL module *
 0001:00112a60       ??_EEoverflowExc@Iex@@UAEPAXI@Z 10113a60 f i * CIL library *:* CIL module *
 0001:00112a60       ??_EEchildExc@Iex@@UAEPAXI@Z 10113a60 f i * CIL library *:* CIL module *
 0001:00112a60       ??_GEtimedoutExc@Iex@@UAEPAXI@Z 10113a60 f i IlmBase:IexThrowErrnoExc.obj
 0001:00112a60       ??_GEoverflowExc@Iex@@UAEPAXI@Z 10113a60 f i IlmBase:IexThrowErrnoExc.obj
 0001:00112a60       ??_GEafnosupportExc@Iex@@UAEPAXI@Z 10113a60 f i IlmBase:IexThrowErrnoExc.obj
 0001:00112a60       ??_EEnotemptyExc@Iex@@UAEPAXI@Z 10113a60 f i * CIL library *:* CIL module *
 0001:00112a60       ??_GEfbigExc@Iex@@UAEPAXI@Z 10113a60 f i IlmBase:IexThrowErrnoExc.obj
 0001:00112a60       ??_GEnosysExc@Iex@@UAEPAXI@Z 10113a60 f i IlmBase:IexThrowErrnoExc.obj
 0001:00112a60       ??_EEdomExc@Iex@@UAEPAXI@Z 10113a60 f i * CIL library *:* CIL module *
 0001:00112a60       ??_GEbadfExc@Iex@@UAEPAXI@Z 10113a60 f i IlmBase:IexThrowErrnoExc.obj
 0001:00112a60       ??_EEmlinkExc@Iex@@UAEPAXI@Z 10113a60 f i * CIL library *:* CIL module *
 0001:00112a60       ??_GEagainExc@Iex@@UAEPAXI@Z 10113a60 f i IlmBase:IexThrowErrnoExc.obj
 0001:00112a60       ??_GErangeExc@Iex@@UAEPAXI@Z 10113a60 f i IlmBase:IexThrowErrnoExc.obj
 0001:00112a60       ??_EEnodataExc@Iex@@UAEPAXI@Z 10113a60 f i * CIL library *:* CIL module *
 0001:00112a60       ??_GEmfileExc@Iex@@UAEPAXI@Z 10113a60 f i IlmBase:IexThrowErrnoExc.obj
 0001:00112a60       ??_EEconnrefusedExc@Iex@@UAEPAXI@Z 10113a60 f i * CIL library *:* CIL module *
 0001:00112a60       ??_GEopnotsuppExc@Iex@@UAEPAXI@Z 10113a60 f i IlmBase:IexThrowErrnoExc.obj
 0001:00112a60       ??_EEisdirExc@Iex@@UAEPAXI@Z 10113a60 f i * CIL library *:* CIL module *
 0001:00112a60       ??_GEnetunreachExc@Iex@@UAEPAXI@Z 10113a60 f i IlmBase:IexThrowErrnoExc.obj
 0001:00112a60       ??_GEpipeExc@Iex@@UAEPAXI@Z 10113a60 f i IlmBase:IexThrowErrnoExc.obj
 0001:00112a60       ??_GEnetdownExc@Iex@@UAEPAXI@Z 10113a60 f i IlmBase:IexThrowErrnoExc.obj
 0001:00112a60       ??_EEisconnExc@Iex@@UAEPAXI@Z 10113a60 f i * CIL library *:* CIL module *
 0001:00112a60       ??_EEpermExc@Iex@@UAEPAXI@Z 10113a60 f i * CIL library *:* CIL module *
 0001:00112a60       ??_EEnoexecExc@Iex@@UAEPAXI@Z 10113a60 f i * CIL library *:* CIL module *
 0001:00112a60       ??_GEioExc@Iex@@UAEPAXI@Z  10113a60 f i IlmBase:IexThrowErrnoExc.obj
 0001:00112a60       ??_EEinprogressExc@Iex@@UAEPAXI@Z 10113a60 f i * CIL library *:* CIL module *
 0001:00112a60       ??_GEdeadlkExc@Iex@@UAEPAXI@Z 10113a60 f i IlmBase:IexThrowErrnoExc.obj
 0001:00112a60       ??_GEnolckExc@Iex@@UAEPAXI@Z 10113a60 f i IlmBase:IexThrowErrnoExc.obj
 0001:00112a60       ??_EEprototypeExc@Iex@@UAEPAXI@Z 10113a60 f i * CIL library *:* CIL module *
 0001:00112a60       ??_EEsrchExc@Iex@@UAEPAXI@Z 10113a60 f i * CIL library *:* CIL module *
 0001:00112a60       ??_EEloopExc@Iex@@UAEPAXI@Z 10113a60 f i * CIL library *:* CIL module *
 0001:00112a60       ??_GEnotemptyExc@Iex@@UAEPAXI@Z 10113a60 f i IlmBase:IexThrowErrnoExc.obj
 0001:00112a60       ??_GEcanceledExc@Iex@@UAEPAXI@Z 10113a60 f i IlmBase:IexThrowErrnoExc.obj
 0001:00112a60       ??_GEnetresetExc@Iex@@UAEPAXI@Z 10113a60 f i IlmBase:IexThrowErrnoExc.obj
 0001:00112a60       ??_GEnolinkExc@Iex@@UAEPAXI@Z 10113a60 f i IlmBase:IexThrowErrnoExc.obj
 0001:00112a60       ??_GEconnabortedExc@Iex@@UAEPAXI@Z 10113a60 f i IlmBase:IexThrowErrnoExc.obj
 0001:00112a60       ??_GEprotoExc@Iex@@UAEPAXI@Z 10113a60 f i IlmBase:IexThrowErrnoExc.obj
 0001:00112a60       ??_GEfaultExc@Iex@@UAEPAXI@Z 10113a60 f i IlmBase:IexThrowErrnoExc.obj
 0001:00112a60       ??_EEdeadlkExc@Iex@@UAEPAXI@Z 10113a60 f i * CIL library *:* CIL module *
 0001:00112a60       ??_GE2bigExc@Iex@@UAEPAXI@Z 10113a60 f i IlmBase:IexThrowErrnoExc.obj
 0001:00112a60       ??_EEnottyExc@Iex@@UAEPAXI@Z 10113a60 f i * CIL library *:* CIL module *
 0001:00112a60       ??_EEintrExc@Iex@@UAEPAXI@Z 10113a60 f i * CIL library *:* CIL module *
 0001:00112a60       ??_EEnolinkExc@Iex@@UAEPAXI@Z 10113a60 f i * CIL library *:* CIL module *
 0001:00112a60       ??_EEprotonosupportExc@Iex@@UAEPAXI@Z 10113a60 f i * CIL library *:* CIL module *
 0001:00112a60       ??_EEtxtbsyExc@Iex@@UAEPAXI@Z 10113a60 f i * CIL library *:* CIL module *
 0001:00112a60       ??_GEinvalExc@Iex@@UAEPAXI@Z 10113a60 f i IlmBase:IexThrowErrnoExc.obj
 0001:00112a60       ??_EEexistExc@Iex@@UAEPAXI@Z 10113a60 f i * CIL library *:* CIL module *
 0001:00112a60       ??_GErrnoExc@Iex@@UAEPAXI@Z 10113a60 f i OpenExr:ImfStdIO.obj
 0001:00112a60       ??_GEnametoolongExc@Iex@@UAEPAXI@Z 10113a60 f i IlmBase:IexThrowErrnoExc.obj
 0001:00112a60       ??_EEcanceledExc@Iex@@UAEPAXI@Z 10113a60 f i * CIL library *:* CIL module *
 0001:00112a60       ??_GEnoentExc@Iex@@UAEPAXI@Z 10113a60 f i IlmBase:IexThrowErrnoExc.obj
 0001:00112a60       ??_EEconnabortedExc@Iex@@UAEPAXI@Z 10113a60 f i * CIL library *:* CIL module *
 0001:00112a60       ??_GEconnrefusedExc@Iex@@UAEPAXI@Z 10113a60 f i IlmBase:IexThrowErrnoExc.obj
 0001:00112a60       ??_GEnotconnExc@Iex@@UAEPAXI@Z 10113a60 f i IlmBase:IexThrowErrnoExc.obj
 0001:00112a60       ??_EEbadfExc@Iex@@UAEPAXI@Z 10113a60 f i * CIL library *:* CIL module *
 0001:00112a60       ??_GEnotdirExc@Iex@@UAEPAXI@Z 10113a60 f i IlmBase:IexThrowErrnoExc.obj
 0001:00112a60       ??_EEaccesExc@Iex@@UAEPAXI@Z 10113a60 f i * CIL library *:* CIL module *
 0001:00112a60       ??_EEpipeExc@Iex@@UAEPAXI@Z 10113a60 f i * CIL library *:* CIL module *
 0001:00112a60       ??_EExdevExc@Iex@@UAEPAXI@Z 10113a60 f i * CIL library *:* CIL module *
 0001:00112a60       ??_EEaddrnotavailExc@Iex@@UAEPAXI@Z 10113a60 f i * CIL library *:* CIL module *
 0001:00112a60       ??_EEafnosupportExc@Iex@@UAEPAXI@Z 10113a60 f i * CIL library *:* CIL module *
 0001:00112a60       ??_GEdomExc@Iex@@UAEPAXI@Z 10113a60 f i IlmBase:IexThrowErrnoExc.obj
 0001:00112a60       ??_EEnxioExc@Iex@@UAEPAXI@Z 10113a60 f i * CIL library *:* CIL module *
 0001:00112a60       ??_EEaddrinuseExc@Iex@@UAEPAXI@Z 10113a60 f i * CIL library *:* CIL module *
 0001:00112a60       ??_GEnottyExc@Iex@@UAEPAXI@Z 10113a60 f i IlmBase:IexThrowErrnoExc.obj
 0001:00112a60       ??_EEnosrExc@Iex@@UAEPAXI@Z 10113a60 f i * CIL library *:* CIL module *
 0001:00112a60       ??_GEnoprotooptExc@Iex@@UAEPAXI@Z 10113a60 f i IlmBase:IexThrowErrnoExc.obj
 0001:00112a60       ??_GEnxioExc@Iex@@UAEPAXI@Z 10113a60 f i IlmBase:IexThrowErrnoExc.obj
 0001:00112a60       ??_GEilseqExc@Iex@@UAEPAXI@Z 10113a60 f i IlmBase:IexThrowErrnoExc.obj
 0001:00112a60       ??_GEnomsgExc@Iex@@UAEPAXI@Z 10113a60 f i IlmBase:IexThrowErrnoExc.obj
 0001:00112a60       ??_EEnolckExc@Iex@@UAEPAXI@Z 10113a60 f i * CIL library *:* CIL module *
 0001:00112a60       ??_EEagainExc@Iex@@UAEPAXI@Z 10113a60 f i * CIL library *:* CIL module *
 0001:00112a60       ??_EEfaultExc@Iex@@UAEPAXI@Z 10113a60 f i * CIL library *:* CIL module *
 0001:00112a60       ??_EEspipeExc@Iex@@UAEPAXI@Z 10113a60 f i * CIL library *:* CIL module *
 0001:00112a60       ??_EErrnoExc@Iex@@UAEPAXI@Z 10113a60 f i * CIL library *:* CIL module *
 0001:00112a60       ??_GEintrExc@Iex@@UAEPAXI@Z 10113a60 f i IlmBase:IexThrowErrnoExc.obj
 0001:00112a60       ??_EEnodevExc@Iex@@UAEPAXI@Z 10113a60 f i * CIL library *:* CIL module *
 0001:00112a60       ??_EEnotsupExc@Iex@@UAEPAXI@Z 10113a60 f i * CIL library *:* CIL module *
 0001:00112a60       ??_GEnotsockExc@Iex@@UAEPAXI@Z 10113a60 f i IlmBase:IexThrowErrnoExc.obj
 0001:00112a60       ??_EEnomsgExc@Iex@@UAEPAXI@Z 10113a60 f i * CIL library *:* CIL module *
 0001:00112a60       ??_GEspipeExc@Iex@@UAEPAXI@Z 10113a60 f i IlmBase:IexThrowErrnoExc.obj
 0001:00112a60       ??_GEaddrnotavailExc@Iex@@UAEPAXI@Z 10113a60 f i IlmBase:IexThrowErrnoExc.obj
 0001:00112a60       ??_GEsrchExc@Iex@@UAEPAXI@Z 10113a60 f i IlmBase:IexThrowErrnoExc.obj
 0001:00112a60       ??_EEilseqExc@Iex@@UAEPAXI@Z 10113a60 f i * CIL library *:* CIL module *
 0001:00112a60       ??_EEnomemExc@Iex@@UAEPAXI@Z 10113a60 f i * CIL library *:* CIL module *
 0001:00112a60       ??_GEmsgsizeExc@Iex@@UAEPAXI@Z 10113a60 f i IlmBase:IexThrowErrnoExc.obj
 0001:00112a60       ??_EEalreadyExc@Iex@@UAEPAXI@Z 10113a60 f i * CIL library *:* CIL module *
 0001:00112a60       ??_GEinprogressExc@Iex@@UAEPAXI@Z 10113a60 f i IlmBase:IexThrowErrnoExc.obj
 0001:00112a60       ??_EEinvalExc@Iex@@UAEPAXI@Z 10113a60 f i * CIL library *:* CIL module *
 0001:00112a60       ??_GEnobufsExc@Iex@@UAEPAXI@Z 10113a60 f i IlmBase:IexThrowErrnoExc.obj
 0001:00112a60       ??_EEmfileExc@Iex@@UAEPAXI@Z 10113a60 f i * CIL library *:* CIL module *
 0001:00112a60       ??_EErangeExc@Iex@@UAEPAXI@Z 10113a60 f i * CIL library *:* CIL module *
 0001:00112a60       ??_EEnetunreachExc@Iex@@UAEPAXI@Z 10113a60 f i * CIL library *:* CIL module *
 0001:00112a60       ??_GEconnresetExc@Iex@@UAEPAXI@Z 10113a60 f i IlmBase:IexThrowErrnoExc.obj
 0001:00112a60       ??_GEdestaddrreqExc@Iex@@UAEPAXI@Z 10113a60 f i IlmBase:IexThrowErrnoExc.obj
 0001:00112a60       ??_EEmsgsizeExc@Iex@@UAEPAXI@Z 10113a60 f i * CIL library *:* CIL module *
 0001:00112a60       ??_GEidrmExc@Iex@@UAEPAXI@Z 10113a60 f i IlmBase:IexThrowErrnoExc.obj
 0001:00112a60       ??_EEhostunreachExc@Iex@@UAEPAXI@Z 10113a60 f i * CIL library *:* CIL module *
 0001:00112a60       ??_GEnodevExc@Iex@@UAEPAXI@Z 10113a60 f i IlmBase:IexThrowErrnoExc.obj
 0001:00112a60       ??_EEbusyExc@Iex@@UAEPAXI@Z 10113a60 f i * CIL library *:* CIL module *
 0001:00112a60       ??_EEprotoExc@Iex@@UAEPAXI@Z 10113a60 f i * CIL library *:* CIL module *
 0001:00112a60       ??_GEprotonosupportExc@Iex@@UAEPAXI@Z 10113a60 f i IlmBase:IexThrowErrnoExc.obj
 0001:00112a60       ??_GEnosrExc@Iex@@UAEPAXI@Z 10113a60 f i IlmBase:IexThrowErrnoExc.obj
 0001:00112a90       ??0ErrnoExc@Iex@@QAE@ABV01@@Z 10113a90 f i OpenExr:ImfStdIO.obj
 0001:00112ab0       ??_EStdOSStream@Imf@@UAEPAXI@Z 10113ab0 f i * CIL library *:* CIL module *
 0001:00112ab0       ??_GStdOSStream@Imf@@UAEPAXI@Z 10113ab0 f i OpenExr:ImfStdIO.obj
 0001:00112b10       ?write@StdOSStream@Imf@@UAEXQBDH@Z 10113b10 f   OpenExr:ImfStdIO.obj
 0001:00112ba0       ?tellp@StdOSStream@Imf@@UAE_KXZ 10113ba0 f   OpenExr:ImfStdIO.obj
 0001:00112bd0       ?seekp@StdOSStream@Imf@@UAEX_K@Z 10113bd0 f   OpenExr:ImfStdIO.obj
 0001:00112c70       ?write@?$basic_ostream@DU?$char_traits@D@std@@@std@@QAEAAV12@PBD_J@Z 10113c70 f i OpenExr:ImfStdIO.obj
 0001:00112dc0       ?seekp@?$basic_ostream@DU?$char_traits@D@std@@@std@@QAEAAV12@V?$fpos@H@2@@Z 10113dc0 f i OpenExr:ImfStdIO.obj
 0001:00112ee0       ?tellp@?$basic_ostream@DU?$char_traits@D@std@@@std@@QAE?AV?$fpos@H@2@XZ 10113ee0 f i OpenExr:ImfStdIO.obj
 0001:00112fe0       ??0?$basic_ostringstream@DU?$char_traits@D@std@@V?$allocator@D@2@@std@@QAE@H@Z 10113fe0 f i OpenExr:ImfStdIO.obj
 0001:001130b0       ??0PreviewImage@Imf@@QAE@IIQBUPreviewRgba@1@@Z 101140b0 f   OpenExr:ImfPreviewImage.obj
 0001:001131c0       ??1?$Array2D@I@Imf@@QAE@XZ 101141c0 f   OpenExr:ImfDeepScanLineInputFile.obj
 0001:001131c0       ??1PreviewImage@Imf@@QAE@XZ 101141c0 f   OpenExr:ImfPreviewImage.obj
 0001:001131d0       ??4PreviewImage@Imf@@QAEAAV01@ABV01@@Z 101141d0 f   OpenExr:ImfPreviewImage.obj
 0001:00113260       ??0OpaqueAttribute@Imf@@QAE@QBD@Z 10114260 f   OpenExr:ImfOpaqueAttribute.obj
 0001:00113300       ??_EOpaqueAttribute@Imf@@UAEPAXI@Z 10114300 f i * CIL library *:* CIL module *
 0001:00113300       ??_GOpaqueAttribute@Imf@@UAEPAXI@Z 10114300 f i OpenExr:ImfOpaqueAttribute.obj
 0001:00113340       ??0OpaqueAttribute@Imf@@QAE@ABV01@@Z 10114340 f   OpenExr:ImfOpaqueAttribute.obj
 0001:00113410       ?typeName@OpaqueAttribute@Imf@@UBEPBDXZ 10114410 f   OpenExr:ImfOpaqueAttribute.obj
 0001:00113420       ?copy@OpaqueAttribute@Imf@@UBEPAVAttribute@2@XZ 10114420 f   OpenExr:ImfOpaqueAttribute.obj
 0001:00113490       ?writeValueTo@OpaqueAttribute@Imf@@UBEXAAVOStream@2@H@Z 10114490 f   OpenExr:ImfOpaqueAttribute.obj
 0001:001134b0       ?readValueFrom@OpaqueAttribute@Imf@@UAEXAAVIStream@2@HH@Z 101144b0 f   OpenExr:ImfOpaqueAttribute.obj
 0001:001134f0       ?copyValueFrom@OpaqueAttribute@Imf@@UAEXABVAttribute@2@@Z 101144f0 f   OpenExr:ImfOpaqueAttribute.obj
 0001:00113690       ?writeValueTo@?$TypedAttribute@V?$vector@V?$basic_string@DU?$char_traits@D@std@@V?$allocator@D@2@@std@@V?$allocator@V?$basic_string@DU?$char_traits@D@std@@V?$allocator@D@2@@std@@@2@@std@@@Imf@@UBEXAAVOStream@2@H@Z 10114690 f   OpenExr:ImfStringVectorAttribute.obj
 0001:00113720       ?readValueFrom@?$TypedAttribute@V?$vector@V?$basic_string@DU?$char_traits@D@std@@V?$allocator@D@2@@std@@V?$allocator@V?$basic_string@DU?$char_traits@D@std@@V?$allocator@D@2@@std@@@2@@std@@@Imf@@UAEXAAVIStream@2@HH@Z 10114720 f   OpenExr:ImfStringVectorAttribute.obj
 0001:00113850       ?writeValueTo@?$TypedAttribute@UChromaticities@Imf@@@Imf@@UBEXAAVOStream@2@H@Z 10114850 f   OpenExr:ImfChromaticitiesAttribute.obj
 0001:00113a00       ?readValueFrom@?$TypedAttribute@UChromaticities@Imf@@@Imf@@UAEXAAVIStream@2@HH@Z 10114a00 f   OpenExr:ImfChromaticitiesAttribute.obj
 0001:00113be0       ?readMagicNumberAndVersionField@GenericInputFile@Imf@@IAEXAAVIStream@2@AAH@Z 10114be0 f   OpenExr:ImfGenericInputFile.obj
 0001:00113db0       ??0Data@ScanLineInputFile@Imf@@QAE@H@Z 10114db0 f   OpenExr:ImfScanLineInputFile.obj
 0001:00113f60       ??_EData@ScanLineInputFile@Imf@@UAEPAXI@Z 10114f60 f i * CIL library *:* CIL module *
 0001:00113f60       ??_GData@ScanLineInputFile@Imf@@UAEPAXI@Z 10114f60 f i OpenExr:ImfScanLineInputFile.obj
 0001:00113f90       ??1Data@ScanLineInputFile@Imf@@UAE@XZ 10114f90 f   OpenExr:ImfScanLineInputFile.obj
 0001:001141a0       ?reconstructLineOffsets@?A0xa53b32cd@Imf@@YAXAAVIStream@2@W4LineOrder@2@AAV?$vector@_KV?$allocator@_K@std@@@std@@@Z 101151a0 f   OpenExr:ImfScanLineInputFile.obj
 0001:00114350       ?readLineOffsets@?A0xa53b32cd@Imf@@YAXAAVIStream@2@W4LineOrder@2@AAV?$vector@_KV?$allocator@_K@std@@@std@@AA_N@Z 10115350 f   OpenExr:ImfScanLineInputFile.obj
 0001:001143e0       ?readPixelData@?A0xa53b32cd@Imf@@YAXPAUInputStreamMutex@2@PAUData@ScanLineInputFile@2@HAAPADAAH@Z 101153e0 f   OpenExr:ImfScanLineInputFile.obj
 0001:00114720       ??_ELineBufferTask@?A0xa53b32cd@Imf@@UAEPAXI@Z 10115720 f i * CIL library *:* CIL module *
 0001:00114720       ??_GLineBufferTask@?A0xa53b32cd@Imf@@UAEPAXI@Z 10115720 f i OpenExr:ImfScanLineInputFile.obj
 0001:00114790       ?execute@LineBufferTask@?A0xa53b32cd@Imf@@UAEXXZ 10115790 f   OpenExr:ImfScanLineInputFile.obj
 0001:00114af0       ??_ELineBufferTaskIIF@?A0xa53b32cd@Imf@@UAEPAXI@Z 10115af0 f i * CIL library *:* CIL module *
 0001:00114af0       ??_GLineBufferTaskIIF@?A0xa53b32cd@Imf@@UAEPAXI@Z 10115af0 f i OpenExr:ImfScanLineInputFile.obj
 0001:00114b60       ?execute@LineBufferTaskIIF@?A0xa53b32cd@Imf@@UAEXXZ 10115b60 f   OpenExr:ImfScanLineInputFile.obj
 0001:001163c0       ?newLineBufferTask@?A0xa53b32cd@Imf@@YAPAVTask@IlmThread@@PAVTaskGroup@4@PAUInputStreamMutex@2@PAUData@ScanLineInputFile@2@HHHVOptimizationMode@2@@Z 101173c0 f   OpenExr:ImfScanLineInputFile.obj
 0001:00116560       ?initialize@ScanLineInputFile@Imf@@AAEXABVHeader@2@@Z 10117560 f   OpenExr:ImfScanLineInputFile.obj
 0001:00116830       ??0ScanLineInputFile@Imf@@AAE@PAUInputPartData@1@@Z 10117830 f   OpenExr:ImfScanLineInputFile.obj
 0001:001169a0       ??_GScanLineInputFile@Imf@@UAEPAXI@Z 101179a0 f i OpenExr:ImfScanLineInputFile.obj
 0001:001169a0       ??_EScanLineInputFile@Imf@@UAEPAXI@Z 101179a0 f i * CIL library *:* CIL module *
 0001:001169d0       ??0ScanLineInputFile@Imf@@QAE@ABVHeader@1@PAVIStream@1@H@Z 101179d0 f   OpenExr:ImfScanLineInputFile.obj
 0001:00116ae0       ??1ScanLineInputFile@Imf@@UAE@XZ 10117ae0 f   OpenExr:ImfScanLineInputFile.obj
 0001:00116bb0       ?fileName@ScanLineInputFile@Imf@@QBEPBDXZ 10117bb0 f   OpenExr:ImfScanLineInputFile.obj
 0001:00116bd0       ?detectOptimizationMode@?A0xa53b32cd@Imf@@YA?AVOptimizationMode@2@ABV?$vector@UsliceOptimizationData@?A0xa53b32cd@Imf@@V?$allocator@UsliceOptimizationData@?A0xa53b32cd@Imf@@@std@@@std@@@Z 10117bd0 f   OpenExr:ImfScanLineInputFile.obj
 0001:00116cb0       ?setFrameBuffer@ScanLineInputFile@Imf@@QAEXABVFrameBuffer@2@@Z 10117cb0 f   OpenExr:ImfScanLineInputFile.obj
 0001:00117570       ?readPixels@ScanLineInputFile@Imf@@QAEXHH@Z 10118570 f   OpenExr:ImfScanLineInputFile.obj
 0001:001178c0       ??4?$vector@_KV?$allocator@_K@std@@@std@@QAEAAV01@ABV01@@Z 101188c0 f i OpenExr:ImfScanLineInputFile.obj
 0001:001179d0       ?push_back@?$vector@UTInSliceInfo@?A0xea54366f@Imf@@V?$allocator@UTInSliceInfo@?A0xea54366f@Imf@@@std@@@std@@QAEX$$QAUTInSliceInfo@?A0xea54366f@Imf@@@Z 101189d0 f i OpenExr:ImfTiledInputFile.obj
 0001:001179d0       ?push_back@?$vector@UInSliceInfo@?A0xa53b32cd@Imf@@V?$allocator@UInSliceInfo@?A0xa53b32cd@Imf@@@std@@@std@@QAEX$$QAUInSliceInfo@?A0xa53b32cd@Imf@@@Z 101189d0 f i OpenExr:ImfScanLineInputFile.obj
 0001:00117a80       ??4?$vector@UInSliceInfo@?A0xa53b32cd@Imf@@V?$allocator@UInSliceInfo@?A0xa53b32cd@Imf@@@std@@@std@@QAEAAV01@ABV01@@Z 10118a80 f i OpenExr:ImfScanLineInputFile.obj
 0001:00117a80       ??4?$vector@UTInSliceInfo@?A0xea54366f@Imf@@V?$allocator@UTInSliceInfo@?A0xea54366f@Imf@@@std@@@std@@QAEAAV01@ABV01@@Z 10118a80 f i OpenExr:ImfTiledInputFile.obj
 0001:00117bb0       ??4?$vector@UsliceOptimizationData@?A0xa53b32cd@Imf@@V?$allocator@UsliceOptimizationData@?A0xa53b32cd@Imf@@@std@@@std@@QAEAAV01@ABV01@@Z 10118bb0 f i OpenExr:ImfScanLineInputFile.obj
 0001:00117c90       ?_Buy@?$vector@UInSliceInfo@?A0xa53b32cd@Imf@@V?$allocator@UInSliceInfo@?A0xa53b32cd@Imf@@@std@@@std@@IAE_NI@Z 10118c90 f i OpenExr:ImfScanLineInputFile.obj
 0001:00117c90       ?_Buy@?$vector@UTInSliceInfo@?A0xea54366f@Imf@@V?$allocator@UTInSliceInfo@?A0xea54366f@Imf@@@std@@@std@@IAE_NI@Z 10118c90 f i OpenExr:ImfTiledInputFile.obj
 0001:00117d00       ?_Reserve@?$vector@UInSliceInfo@?A0xa53b32cd@Imf@@V?$allocator@UInSliceInfo@?A0xa53b32cd@Imf@@@std@@@std@@IAEXI@Z 10118d00 f i OpenExr:ImfScanLineInputFile.obj
 0001:00117d00       ?_Reserve@?$vector@UTInSliceInfo@?A0xea54366f@Imf@@V?$allocator@UTInSliceInfo@?A0xea54366f@Imf@@@std@@@std@@IAEXI@Z 10118d00 f i OpenExr:ImfTiledInputFile.obj
 0001:00117da0       ?_Buy@?$vector@UsliceOptimizationData@?A0xa53b32cd@Imf@@V?$allocator@UsliceOptimizationData@?A0xa53b32cd@Imf@@@std@@@std@@IAE_NI@Z 10118da0 f i OpenExr:ImfScanLineInputFile.obj
 0001:00117e10       ?_Reallocate@?$vector@UInSliceInfo@?A0xa53b32cd@Imf@@V?$allocator@UInSliceInfo@?A0xa53b32cd@Imf@@@std@@@std@@IAEXI@Z 10118e10 f i OpenExr:ImfScanLineInputFile.obj
 0001:00117e10       ?_Reallocate@?$vector@UTInSliceInfo@?A0xea54366f@Imf@@V?$allocator@UTInSliceInfo@?A0xea54366f@Imf@@@std@@@std@@IAEXI@Z 10118e10 f i OpenExr:ImfTiledInputFile.obj
 0001:00117ea0       ??$read@UStreamIO@Imf@@VIStream@2@@Xdr@Imf@@YAXAAVIStream@1@AA_K@Z 10118ea0 f i OpenExr:ImfScanLineInputFile.obj
 0001:00117f50       ??$getWritePointer@Vhalf@@@LineBufferTaskIIF@?A0xa53b32cd@Imf@@QBEXHAAPAGAAI1H@Z 10118f50 f i OpenExr:ImfScanLineInputFile.obj
 0001:001180c0       ??$_Copy_impl@PAUTInSliceInfo@?A0xea54366f@Imf@@PAU123@@std@@YAPAUTInSliceInfo@?A0xea54366f@Imf@@PAU123@00@Z 101190c0 f i OpenExr:ImfTiledInputFile.obj
 0001:001180c0       ??$_Copy_impl@PAUInSliceInfo@?A0xa53b32cd@Imf@@PAU123@@std@@YAPAUInSliceInfo@?A0xa53b32cd@Imf@@PAU123@00@Z 101190c0 f i OpenExr:ImfScanLineInputFile.obj
 0001:00118100       ??$_Copy_impl@PAUsliceOptimizationData@?A0xa53b32cd@Imf@@PAU123@@std@@YAPAUsliceOptimizationData@?A0xa53b32cd@Imf@@PAU123@00U_Nonscalar_ptr_iterator_tag@0@@Z 10119100 f i OpenExr:ImfScanLineInputFile.obj
 0001:00118170       ??$_Sort@PAUsliceOptimizationData@?A0xa53b32cd@Imf@@HU?$less@X@std@@@std@@YAXPAUsliceOptimizationData@?A0xa53b32cd@Imf@@0HU?$less@X@0@@Z 10119170 f i OpenExr:ImfScanLineInputFile.obj
 0001:00118260       ??$_Unguarded_partition@PAUsliceOptimizationData@?A0xa53b32cd@Imf@@U?$less@X@std@@@std@@YA?AU?$pair@PAUsliceOptimizationData@?A0xa53b32cd@Imf@@PAU123@@0@PAUsliceOptimizationData@?A0xa53b32cd@Imf@@0U?$less@X@0@@Z 10119260 f i OpenExr:ImfScanLineInputFile.obj
 0001:001183f0       ??$_Uninit_move@PAUInSliceInfo@?A0xa53b32cd@Imf@@PAU123@V?$allocator@UInSliceInfo@?A0xa53b32cd@Imf@@@std@@U123@@std@@YAPAUInSliceInfo@?A0xa53b32cd@Imf@@PAU123@00AAU?$_Wrap_alloc@V?$allocator@UInSliceInfo@?A0xa53b32cd@Imf@@@std@@@0@0U_Nonscalar_ptr_iterator_tag@0@@Z 101193f0 f i OpenExr:ImfScanLineInputFile.obj
 0001:001183f0       ??$_Uninit_copy@PAUInSliceInfo@?A0xa53b32cd@Imf@@PAU123@V?$allocator@UInSliceInfo@?A0xa53b32cd@Imf@@@std@@@std@@YAPAUInSliceInfo@?A0xa53b32cd@Imf@@PAU123@00AAU?$_Wrap_alloc@V?$allocator@UInSliceInfo@?A0xa53b32cd@Imf@@@std@@@0@U_Nonscalar_ptr_iterator_tag@0@@Z 101193f0 f i OpenExr:ImfScanLineInputFile.obj
 0001:001183f0       ??$_Uninit_move@PAUTInSliceInfo@?A0xea54366f@Imf@@PAU123@V?$allocator@UTInSliceInfo@?A0xea54366f@Imf@@@std@@U123@@std@@YAPAUTInSliceInfo@?A0xea54366f@Imf@@PAU123@00AAU?$_Wrap_alloc@V?$allocator@UTInSliceInfo@?A0xea54366f@Imf@@@std@@@0@0U_Nonscalar_ptr_iterator_tag@0@@Z 101193f0 f i OpenExr:ImfTiledInputFile.obj
 0001:001183f0       ??$_Uninit_copy@PAUTInSliceInfo@?A0xea54366f@Imf@@PAU123@V?$allocator@UTInSliceInfo@?A0xea54366f@Imf@@@std@@@std@@YAPAUTInSliceInfo@?A0xea54366f@Imf@@PAU123@00AAU?$_Wrap_alloc@V?$allocator@UTInSliceInfo@?A0xea54366f@Imf@@@std@@@0@U_Nonscalar_ptr_iterator_tag@0@@Z 101193f0 f i OpenExr:ImfTiledInputFile.obj
 0001:00118430       ??$_Median@PAUsliceOptimizationData@?A0xa53b32cd@Imf@@U?$less@X@std@@@std@@YAXPAUsliceOptimizationData@?A0xa53b32cd@Imf@@00U?$less@X@0@@Z 10119430 f i OpenExr:ImfScanLineInputFile.obj
 0001:00118580       ??$_Make_heap@PAUsliceOptimizationData@?A0xa53b32cd@Imf@@HU123@U?$less@X@std@@@std@@YAXPAUsliceOptimizationData@?A0xa53b32cd@Imf@@0U?$less@X@0@PAH0@Z 10119580 f i OpenExr:ImfScanLineInputFile.obj
 0001:001186c0       ??$_Sort_heap@PAUsliceOptimizationData@?A0xa53b32cd@Imf@@U?$less@X@std@@@std@@YAXPAUsliceOptimizationData@?A0xa53b32cd@Imf@@0U?$less@X@0@@Z 101196c0 f i OpenExr:ImfScanLineInputFile.obj
 0001:00118770       ??$_Insertion_sort1@PAUsliceOptimizationData@?A0xa53b32cd@Imf@@U?$less@X@std@@U123@@std@@YAXPAUsliceOptimizationData@?A0xa53b32cd@Imf@@0U?$less@X@0@0@Z 10119770 f i OpenExr:ImfScanLineInputFile.obj
 0001:00118890       ??$swap@UsliceOptimizationData@?A0xa53b32cd@Imf@@@std@@YAXAAUsliceOptimizationData@?A0xa53b32cd@Imf@@0@Z 10119890 f i OpenExr:ImfScanLineInputFile.obj
 0001:00118930       ??$_Adjust_heap@PAUsliceOptimizationData@?A0xa53b32cd@Imf@@HU123@U?$less@X@std@@@std@@YAXPAUsliceOptimizationData@?A0xa53b32cd@Imf@@HH$$QAU123@U?$less@X@0@@Z 10119930 f i OpenExr:ImfScanLineInputFile.obj
 0001:00118a20       ??$_Push_heap@PAUsliceOptimizationData@?A0xa53b32cd@Imf@@HU123@U?$less@X@std@@@std@@YAXPAUsliceOptimizationData@?A0xa53b32cd@Imf@@HH$$QAU123@U?$less@X@0@@Z 10119a20 f i OpenExr:ImfScanLineInputFile.obj
 0001:00118ae0       ??$_Move_backward@PAUsliceOptimizationData@?A0xa53b32cd@Imf@@PAU123@@std@@YAPAUsliceOptimizationData@?A0xa53b32cd@Imf@@PAU123@00U_Nonscalar_ptr_iterator_tag@0@@Z 10119ae0 f i OpenExr:ImfScanLineInputFile.obj
 0001:00118b40       ??0Data@MultiPartInputFile@Imf@@QAE@_NH0@Z 10119b40 f i OpenExr:ImfMultiPartInputFile.obj
 0001:00118c10       ??1Data@MultiPartInputFile@Imf@@UAE@XZ 10119c10 f i OpenExr:ImfMultiPartInputFile.obj
 0001:00118d70       ??_GData@MultiPartInputFile@Imf@@UAEPAXI@Z 10119d70 f i OpenExr:ImfMultiPartInputFile.obj
 0001:00118d70       ??_EData@MultiPartInputFile@Imf@@UAEPAXI@Z 10119d70 f i * CIL library *:* CIL module *
 0001:00118da0       ??_EMultiPartInputFile@Imf@@UAEPAXI@Z 10119da0 f i * CIL library *:* CIL module *
 0001:00118da0       ??_GMultiPartInputFile@Imf@@UAEPAXI@Z 10119da0 f i OpenExr:ImfMultiPartInputFile.obj
 0001:00118dd0       ??0MultiPartInputFile@Imf@@QAE@AAVIStream@1@H_N@Z 10119dd0 f   OpenExr:ImfMultiPartInputFile.obj
 0001:00118f10       ??1MultiPartInputFile@Imf@@UAE@XZ 10119f10 f   OpenExr:ImfMultiPartInputFile.obj
 0001:00118fe0       ?checkSharedAttributesValues@Data@MultiPartInputFile@Imf@@QBE_NABVHeader@3@0AAV?$vector@V?$basic_string@DU?$char_traits@D@std@@V?$allocator@D@2@@std@@V?$allocator@V?$basic_string@DU?$char_traits@D@std@@V?$allocator@D@2@@std@@@2@@std@@@Z 10119fe0 f   OpenExr:ImfMultiPartInputFile.obj
 0001:00119280       ?initialize@MultiPartInputFile@Imf@@AAEXXZ 1011a280 f   OpenExr:ImfMultiPartInputFile.obj
 0001:00119ce0       ?createTileOffsets@Data@MultiPartInputFile@Imf@@QAEPAVTileOffsets@3@ABVHeader@3@@Z 1011ace0 f   OpenExr:ImfMultiPartInputFile.obj
 0001:00119dc0       ?chunkOffsetReconstruction@Data@MultiPartInputFile@Imf@@QAEXAAVIStream@3@ABV?$vector@PAUInputPartData@Imf@@V?$allocator@PAUInputPartData@Imf@@@std@@@std@@@Z 1011adc0 f   OpenExr:ImfMultiPartInputFile.obj
 0001:0011aa50       ??1TileOffsets@Imf@@QAE@XZ 1011ba50 f i OpenExr:ImfMultiPartInputFile.obj
 0001:0011aa90       ?readChunkOffsetTables@Data@MultiPartInputFile@Imf@@QAEX_N@Z 1011ba90 f   OpenExr:ImfMultiPartInputFile.obj
 0001:0011ab80       ??0?$vector@V?$vector@V?$vector@_KV?$allocator@_K@std@@@std@@V?$allocator@V?$vector@_KV?$allocator@_K@std@@@std@@@2@@std@@V?$allocator@V?$vector@V?$vector@_KV?$allocator@_K@std@@@std@@V?$allocator@V?$vector@_KV?$allocator@_K@std@@@std@@@2@@std@@@2@@std@@QAE@ABV01@@Z 1011bb80 f i OpenExr:ImfMultiPartInputFile.obj
 0001:0011ac30       ?_Tidy@?$vector@V?$vector@V?$vector@_KV?$allocator@_K@std@@@std@@V?$allocator@V?$vector@_KV?$allocator@_K@std@@@std@@@2@@std@@V?$allocator@V?$vector@V?$vector@_KV?$allocator@_K@std@@@std@@V?$allocator@V?$vector@_KV?$allocator@_K@std@@@std@@@2@@std@@@2@@std@@IAEXXZ 1011bc30 f i OpenExr:ImfMultiPartInputFile.obj
 0001:0011ac30       ??1?$vector@V?$vector@V?$vector@PAMV?$allocator@PAM@std@@@std@@V?$allocator@V?$vector@PAMV?$allocator@PAM@std@@@std@@@2@@std@@V?$allocator@V?$vector@V?$vector@PAMV?$allocator@PAM@std@@@std@@V?$allocator@V?$vector@PAMV?$allocator@PAM@std@@@std@@@2@@std@@@2@@std@@QAE@XZ 1011bc30 f i OpenExr:ImfCompositeDeepScanLine.obj
 0001:0011ac30       ??1?$vector@V?$vector@V?$vector@_KV?$allocator@_K@std@@@std@@V?$allocator@V?$vector@_KV?$allocator@_K@std@@@std@@@2@@std@@V?$allocator@V?$vector@V?$vector@_KV?$allocator@_K@std@@@std@@V?$allocator@V?$vector@_KV?$allocator@_K@std@@@std@@@2@@std@@@2@@std@@QAE@XZ 1011bc30 f i OpenExr:ImfMultiPartInputFile.obj
 0001:0011ac70       ??1?$vector@VHeader@Imf@@V?$allocator@VHeader@Imf@@@std@@@std@@QAE@XZ 1011bc70 f i OpenExr:ImfMultiPartInputFile.obj
 0001:0011acc0       ?push_back@?$vector@VHeader@Imf@@V?$allocator@VHeader@Imf@@@std@@@std@@QAEXABVHeader@Imf@@@Z 1011bcc0 f i OpenExr:ImfMultiPartInputFile.obj
 0001:0011ad80       ?push_back@?$vector@V?$basic_string@DU?$char_traits@D@std@@V?$allocator@D@2@@std@@V?$allocator@V?$basic_string@DU?$char_traits@D@std@@V?$allocator@D@2@@std@@@2@@std@@QAEX$$QAV?$basic_string@DU?$char_traits@D@std@@V?$allocator@D@2@@2@@Z 1011bd80 f i OpenExr:ImfMultiPartInputFile.obj
 0001:0011ae00       ?find@?$_Tree@V?$_Tset_traits@V?$basic_string@DU?$char_traits@D@std@@V?$allocator@D@2@@std@@U?$less@V?$basic_string@DU?$char_traits@D@std@@V?$allocator@D@2@@std@@@2@V?$allocator@V?$basic_string@DU?$char_traits@D@std@@V?$allocator@D@2@@std@@@2@$0A@@std@@@std@@QAE?AV?$_Tree_const_iterator@V?$_Tree_val@U?$_Tree_simple_types@V?$basic_string@DU?$char_traits@D@std@@V?$allocator@D@2@@std@@@std@@@std@@@2@ABV?$basic_string@DU?$char_traits@D@std@@V?$allocator@D@2@@2@@Z 1011be00 f i OpenExr:ImfMultiPartInputFile.obj
 0001:0011ae90       ?_Reserve@?$vector@VHeader@Imf@@V?$allocator@VHeader@Imf@@@std@@@std@@IAEXI@Z 1011be90 f i OpenExr:ImfMultiPartInputFile.obj
 0001:0011af30       ?_Reallocate@?$vector@VHeader@Imf@@V?$allocator@VHeader@Imf@@@std@@@std@@IAEXI@Z 1011bf30 f i OpenExr:ImfMultiPartInputFile.obj
 0001:0011b050       ?_Buyheadnode@?$_Tree_alloc@$0A@U?$_Tree_base_types@V?$basic_string@DU?$char_traits@D@std@@V?$allocator@D@2@@std@@V?$allocator@V?$basic_string@DU?$char_traits@D@std@@V?$allocator@D@2@@std@@@2@@std@@@std@@QAEPAU?$_Tree_node@V?$basic_string@DU?$char_traits@D@std@@V?$allocator@D@2@@std@@PAX@2@XZ 1011c050 f i OpenExr:ImfMultiPartInputFile.obj
 0001:0011b080       ??$?HDU?$char_traits@D@std@@V?$allocator@D@1@@std@@YA?AV?$basic_string@DU?$char_traits@D@std@@V?$allocator@D@2@@0@PBDABV10@@Z 1011c080 f i OpenExr:ImfMultiPartInputFile.obj
 0001:0011b170       ??$_Destroy_range@U?$_Wrap_alloc@V?$allocator@V?$vector@V?$vector@PAMV?$allocator@PAM@std@@@std@@V?$allocator@V?$vector@PAMV?$allocator@PAM@std@@@std@@@2@@std@@@std@@@std@@@std@@YAXPAV?$vector@V?$vector@PAMV?$allocator@PAM@std@@@std@@V?$allocator@V?$vector@PAMV?$allocator@PAM@std@@@std@@@2@@0@0AAU?$_Wrap_alloc@V?$allocator@V?$vector@V?$vector@PAMV?$allocator@PAM@std@@@std@@V?$allocator@V?$vector@PAMV?$allocator@PAM@std@@@std@@@2@@std@@@std@@@0@U_Nonscalar_ptr_iterator_tag@0@@Z 1011c170 f i OpenExr:ImfCompositeDeepScanLine.obj
 0001:0011b170       ??$_Destroy_range@U?$_Wrap_alloc@V?$allocator@V?$vector@V?$vector@_KV?$allocator@_K@std@@@std@@V?$allocator@V?$vector@_KV?$allocator@_K@std@@@std@@@2@@std@@@std@@@std@@@std@@YAXPAV?$vector@V?$vector@_KV?$allocator@_K@std@@@std@@V?$allocator@V?$vector@_KV?$allocator@_K@std@@@std@@@2@@0@0AAU?$_Wrap_alloc@V?$allocator@V?$vector@V?$vector@_KV?$allocator@_K@std@@@std@@V?$allocator@V?$vector@_KV?$allocator@_K@std@@@std@@@2@@std@@@std@@@0@U_Nonscalar_ptr_iterator_tag@0@@Z 1011c170 f i OpenExr:ImfMultiPartInputFile.obj
 0001:0011b1f0       ??$destroy@V?$vector@V?$vector@_KV?$allocator@_K@std@@@std@@V?$allocator@V?$vector@_KV?$allocator@_K@std@@@std@@@2@@std@@@?$_Wrap_alloc@V?$allocator@V?$vector@V?$vector@_KV?$allocator@_K@std@@@std@@V?$allocator@V?$vector@_KV?$allocator@_K@std@@@std@@@2@@std@@@std@@@std@@QAEXPAV?$vector@V?$vector@_KV?$allocator@_K@std@@@std@@V?$allocator@V?$vector@_KV?$allocator@_K@std@@@std@@@2@@1@@Z 1011c1f0 f i OpenExr:ImfMultiPartInputFile.obj
 0001:0011b230       ??$_Uninit_copy@PAV?$vector@V?$vector@_KV?$allocator@_K@std@@@std@@V?$allocator@V?$vector@_KV?$allocator@_K@std@@@std@@@2@@std@@PAV12@V?$allocator@V?$vector@V?$vector@_KV?$allocator@_K@std@@@std@@V?$allocator@V?$vector@_KV?$allocator@_K@std@@@std@@@2@@std@@@2@@std@@YAPAV?$vector@V?$vector@_KV?$allocator@_K@std@@@std@@V?$allocator@V?$vector@_KV?$allocator@_K@std@@@std@@@2@@0@PAV10@00AAU?$_Wrap_alloc@V?$allocator@V?$vector@V?$vector@_KV?$allocator@_K@std@@@std@@V?$allocator@V?$vector@_KV?$allocator@_K@std@@@std@@@2@@std@@@std@@@0@U_Nonscalar_ptr_iterator_tag@0@@Z 1011c230 f i OpenExr:ImfTiledInputFile.obj
 0001:0011b230       ??$_Uninit_copy@PBV?$vector@V?$vector@_KV?$allocator@_K@std@@@std@@V?$allocator@V?$vector@_KV?$allocator@_K@std@@@std@@@2@@std@@PAV12@V?$allocator@V?$vector@V?$vector@_KV?$allocator@_K@std@@@std@@V?$allocator@V?$vector@_KV?$allocator@_K@std@@@std@@@2@@std@@@2@@std@@YAPAV?$vector@V?$vector@_KV?$allocator@_K@std@@@std@@V?$allocator@V?$vector@_KV?$allocator@_K@std@@@std@@@2@@0@PBV10@0PAV10@AAU?$_Wrap_alloc@V?$allocator@V?$vector@V?$vector@_KV?$allocator@_K@std@@@std@@V?$allocator@V?$vector@_KV?$allocator@_K@std@@@std@@@2@@std@@@std@@@0@U_Nonscalar_ptr_iterator_tag@0@@Z 1011c230 f i OpenExr:ImfMultiPartInputFile.obj
 0001:0011b2d0       ??$_Uninit_move@PAVHeader@Imf@@PAV12@V?$allocator@VHeader@Imf@@@std@@V12@@std@@YAPAVHeader@Imf@@PAV12@00AAU?$_Wrap_alloc@V?$allocator@VHeader@Imf@@@std@@@0@0U_Nonscalar_ptr_iterator_tag@0@@Z 1011c2d0 f i OpenExr:ImfMultiPartInputFile.obj
 0001:0011b370       ??0?$vector@V?$vector@_KV?$allocator@_K@std@@@std@@V?$allocator@V?$vector@_KV?$allocator@_K@std@@@std@@@2@@std@@QAE@ABV01@@Z 1011c370 f i OpenExr:ImfMultiPartInputFile.obj
 0001:0011b420       ??$destroy@V?$vector@_KV?$allocator@_K@std@@@std@@@?$_Wrap_alloc@V?$allocator@V?$vector@_KV?$allocator@_K@std@@@std@@@std@@@std@@QAEXPAV?$vector@_KV?$allocator@_K@std@@@1@@Z 1011c420 f i OpenExr:ImfMultiPartInputFile.obj
 0001:0011b450       ??$_Uninit_copy@PBV?$vector@_KV?$allocator@_K@std@@@std@@PAV12@V?$allocator@V?$vector@_KV?$allocator@_K@std@@@std@@@2@@std@@YAPAV?$vector@_KV?$allocator@_K@std@@@0@PBV10@0PAV10@AAU?$_Wrap_alloc@V?$allocator@V?$vector@_KV?$allocator@_K@std@@@std@@@std@@@0@U_Nonscalar_ptr_iterator_tag@0@@Z 1011c450 f i OpenExr:ImfMultiPartInputFile.obj
 0001:0011b450       ??$_Uninit_copy@PAV?$vector@_KV?$allocator@_K@std@@@std@@PAV12@V?$allocator@V?$vector@_KV?$allocator@_K@std@@@std@@@2@@std@@YAPAV?$vector@_KV?$allocator@_K@std@@@0@PAV10@00AAU?$_Wrap_alloc@V?$allocator@V?$vector@_KV?$allocator@_K@std@@@std@@@std@@@0@U_Nonscalar_ptr_iterator_tag@0@@Z 1011c450 f i OpenExr:ImfTiledInputFile.obj
 0001:0011b4f0       ??0?$vector@_KV?$allocator@_K@std@@@std@@QAE@ABV01@@Z 1011c4f0 f i OpenExr:ImfMultiPartInputFile.obj
 0001:0011b550       ??0TileBuffer@?A0xea54366f@Imf@@QAE@QAVCompressor@2@@Z 1011c550 f   OpenExr:ImfTiledInputFile.obj
 0001:0011b600       ??0Data@TiledInputFile@Imf@@QAE@H@Z 1011c600 f   OpenExr:ImfTiledInputFile.obj
 0001:0011b7b0       ??_EData@TiledInputFile@Imf@@UAEPAXI@Z 1011c7b0 f i * CIL library *:* CIL module *
 0001:0011b7b0       ??_GData@TiledInputFile@Imf@@UAEPAXI@Z 1011c7b0 f i OpenExr:ImfTiledInputFile.obj
 0001:0011b7e0       ??1Data@TiledInputFile@Imf@@UAE@XZ 1011c7e0 f   OpenExr:ImfTiledInputFile.obj
 0001:0011b9c0       ?readTileData@?A0xea54366f@Imf@@YAXPAUInputStreamMutex@2@PAUData@TiledInputFile@2@HHHHAAPADAAH@Z 1011c9c0 f   OpenExr:ImfTiledInputFile.obj
 0001:0011be50       ??_GTileBufferTask@?A0xea54366f@Imf@@UAEPAXI@Z 1011ce50 f i OpenExr:ImfTiledInputFile.obj
 0001:0011be50       ??_ETileBufferTask@?A0xea54366f@Imf@@UAEPAXI@Z 1011ce50 f i * CIL library *:* CIL module *
 0001:0011bec0       ?execute@TileBufferTask@?A0xea54366f@Imf@@UAEXXZ 1011cec0 f   OpenExr:ImfTiledInputFile.obj
 0001:0011c160       ?newTileBufferTask@?A0xea54366f@Imf@@YAPAVTileBufferTask@12@PAVTaskGroup@IlmThread@@PAUInputStreamMutex@2@PAUData@TiledInputFile@2@HHHHH@Z 1011d160 f   OpenExr:ImfTiledInputFile.obj
 0001:0011c270       ??_GTiledInputFile@Imf@@UAEPAXI@Z 1011d270 f i OpenExr:ImfTiledInputFile.obj
 0001:0011c270       ??_ETiledInputFile@Imf@@UAEPAXI@Z 1011d270 f i * CIL library *:* CIL module *
 0001:0011c2a0       ??0TiledInputFile@Imf@@AAE@ABVHeader@1@PAVIStream@1@HH@Z 1011d2a0 f   OpenExr:ImfTiledInputFile.obj
 0001:0011c400       ??0TiledInputFile@Imf@@AAE@PAUInputPartData@1@@Z 1011d400 f   OpenExr:ImfTiledInputFile.obj
 0001:0011c490       ?multiPartInitialize@TiledInputFile@Imf@@AAEXPAUInputPartData@2@@Z 1011d490 f   OpenExr:ImfTiledInputFile.obj
 0001:0011c5e0       ?initialize@TiledInputFile@Imf@@AAEXXZ 1011d5e0 f   OpenExr:ImfTiledInputFile.obj
 0001:0011c910       ??1TiledInputFile@Imf@@UAE@XZ 1011d910 f   OpenExr:ImfTiledInputFile.obj
 0001:0011ca00       ?fileName@TiledInputFile@Imf@@QBEPBDXZ 1011da00 f   OpenExr:ImfTiledInputFile.obj
 0001:0011ca20       ?setFrameBuffer@TiledInputFile@Imf@@QAEXABVFrameBuffer@2@@Z 1011da20 f   OpenExr:ImfTiledInputFile.obj
 0001:0011cff0       ?readTiles@TiledInputFile@Imf@@QAEXHHHHHH@Z 1011dff0 f   OpenExr:ImfTiledInputFile.obj
 0001:0011d490       ?levelWidth@TiledInputFile@Imf@@QBEHH@Z 1011e490 f   OpenExr:ImfTiledInputFile.obj
 0001:0011d580       ?numXTiles@TiledInputFile@Imf@@QBEHH@Z 1011e580 f   OpenExr:ImfTiledInputFile.obj
 0001:0011d660       ?dataWindowForLevel@TiledInputFile@Imf@@QBE?AV?$Box@V?$Vec2@H@Imath@@@Imath@@HH@Z 1011e660 f   OpenExr:ImfTiledInputFile.obj
 0001:0011d780       ?dataWindowForTile@TiledInputFile@Imf@@QBE?AV?$Box@V?$Vec2@H@Imath@@@Imath@@HHHH@Z 1011e780 f   OpenExr:ImfTiledInputFile.obj
 0001:0011d8d0       ??4?$vector@V?$vector@V?$vector@_KV?$allocator@_K@std@@@std@@V?$allocator@V?$vector@_KV?$allocator@_K@std@@@std@@@2@@std@@V?$allocator@V?$vector@V?$vector@_KV?$allocator@_K@std@@@std@@V?$allocator@V?$vector@_KV?$allocator@_K@std@@@std@@@2@@std@@@2@@std@@QAEAAV01@ABV01@@Z 1011e8d0 f i OpenExr:ImfTiledInputFile.obj
 0001:0011da70       ??$_Copy_impl@PAV?$vector@V?$vector@_KV?$allocator@_K@std@@@std@@V?$allocator@V?$vector@_KV?$allocator@_K@std@@@std@@@2@@std@@PAV12@@std@@YAPAV?$vector@V?$vector@_KV?$allocator@_K@std@@@std@@V?$allocator@V?$vector@_KV?$allocator@_K@std@@@std@@@2@@0@PAV10@00@Z 1011ea70 f i OpenExr:ImfTiledInputFile.obj
 0001:0011daa0       ??4?$vector@V?$vector@_KV?$allocator@_K@std@@@std@@V?$allocator@V?$vector@_KV?$allocator@_K@std@@@std@@@2@@std@@QAEAAV01@ABV01@@Z 1011eaa0 f i OpenExr:ImfTiledInputFile.obj
 0001:0011dc40       ??$_Copy_impl@PAV?$vector@_KV?$allocator@_K@std@@@std@@PAV12@@std@@YAPAV?$vector@_KV?$allocator@_K@std@@@0@PAV10@00@Z 1011ec40 f i OpenExr:ImfTiledInputFile.obj
 0001:0011dc70       ??0Data@CompositeDeepScanLine@Imf@@QAE@XZ 1011ec70 f   OpenExr:ImfCompositeDeepScanLine.obj
 0001:0011dd70       ??0CompositeDeepScanLine@Imf@@QAE@XZ 1011ed70 f   OpenExr:ImfCompositeDeepScanLine.obj
 0001:0011ddf0       ??_ECompositeDeepScanLine@Imf@@UAEPAXI@Z 1011edf0 f i * CIL library *:* CIL module *
 0001:0011ddf0       ??_GCompositeDeepScanLine@Imf@@UAEPAXI@Z 1011edf0 f i OpenExr:ImfCompositeDeepScanLine.obj
 0001:0011de30       ??1Data@CompositeDeepScanLine@Imf@@QAE@XZ 1011ee30 f i OpenExr:ImfCompositeDeepScanLine.obj
 0001:0011df50       ?check_valid@Data@CompositeDeepScanLine@Imf@@QAEXABVHeader@3@@Z 1011ef50 f   OpenExr:ImfCompositeDeepScanLine.obj
 0001:0011e390       ?handleDeepFrameBuffer@Data@CompositeDeepScanLine@Imf@@QAEXAAVDeepFrameBuffer@3@AAV?$vector@IV?$allocator@I@std@@@std@@AAV?$vector@V?$vector@PAMV?$allocator@PAM@std@@@std@@V?$allocator@V?$vector@PAMV?$allocator@PAM@std@@@std@@@2@@6@ABVHeader@3@HH@Z 1011f390 f   OpenExr:ImfCompositeDeepScanLine.obj
 0001:0011e620       ?setFrameBuffer@CompositeDeepScanLine@Imf@@QAEXABVFrameBuffer@2@@Z 1011f620 f   OpenExr:ImfCompositeDeepScanLine.obj
 0001:0011ea60       ??_ELineCompositeTask@?A0x339a07d2@Imf@@UAEPAXI@Z 1011fa60 f i * CIL library *:* CIL module *
 0001:0011ea60       ??_GLineCompositeTask@?A0x339a07d2@Imf@@UAEPAXI@Z 1011fa60 f i OpenExr:ImfCompositeDeepScanLine.obj
 0001:0011ea60       ??_ETask@IlmThread@@UAEPAXI@Z 1011fa60 f i * CIL library *:* CIL module *
 0001:0011ea60       ??_GTask@IlmThread@@UAEPAXI@Z 1011fa60 f i IlmBase:IlmThreadPool.obj
 0001:0011ea90       ?composite_line@?A0x339a07d2@Imf@@YAXHHPAUData@CompositeDeepScanLine@2@AAV?$vector@PBDV?$allocator@PBD@std@@@std@@ABV?$vector@V?$vector@V?$vector@PAMV?$allocator@PAM@std@@@std@@V?$allocator@V?$vector@PAMV?$allocator@PAM@std@@@std@@@2@@std@@V?$allocator@V?$vector@V?$vector@PAMV?$allocator@PAM@std@@@std@@V?$allocator@V?$vector@PAMV?$allocator@PAM@std@@@std@@@2@@std@@@2@@6@ABV?$vector@IV?$allocator@I@std@@@6@3@Z 1011fa90 f   OpenExr:ImfCompositeDeepScanLine.obj
 0001:0011ed70       ?execute@LineCompositeTask@?A0x339a07d2@Imf@@UAEXXZ 1011fd70 f   OpenExr:ImfCompositeDeepScanLine.obj
 0001:0011ed90       ?readPixels@CompositeDeepScanLine@Imf@@QAEXHH@Z 1011fd90 f   OpenExr:ImfCompositeDeepScanLine.obj
 0001:0011f520       ?push_back@?$vector@HV?$allocator@H@std@@@std@@QAEX$$QAH@Z 10120520 f i OpenExr:ImfCompositeDeepScanLine.obj
 0001:0011f590       ?resize@?$vector@V?$basic_string@DU?$char_traits@D@std@@V?$allocator@D@2@@std@@V?$allocator@V?$basic_string@DU?$char_traits@D@std@@V?$allocator@D@2@@std@@@2@@std@@QAEXI@Z 10120590 f i OpenExr:ImfCompositeDeepScanLine.obj
 0001:0011f650       ?resize@?$vector@V?$vector@PAMV?$allocator@PAM@std@@@std@@V?$allocator@V?$vector@PAMV?$allocator@PAM@std@@@std@@@2@@std@@QAEXI@Z 10120650 f i OpenExr:ImfCompositeDeepScanLine.obj
 0001:0011f650       ?resize@?$vector@V?$vector@_KV?$allocator@_K@std@@@std@@V?$allocator@V?$vector@_KV?$allocator@_K@std@@@std@@@2@@std@@QAEXI@Z 10120650 f i OpenExr:ImfTileOffsets.obj
 0001:0011f710       ??0?$vector@VDeepFrameBuffer@Imf@@V?$allocator@VDeepFrameBuffer@Imf@@@std@@@std@@QAE@I@Z 10120710 f i OpenExr:ImfCompositeDeepScanLine.obj
 0001:0011f7b0       ??1?$vector@VDeepFrameBuffer@Imf@@V?$allocator@VDeepFrameBuffer@Imf@@@std@@@std@@QAE@XZ 101207b0 f i OpenExr:ImfCompositeDeepScanLine.obj
 0001:0011f7c0       ?_Reserve@?$vector@V?$vector@PAMV?$allocator@PAM@std@@@std@@V?$allocator@V?$vector@PAMV?$allocator@PAM@std@@@std@@@2@@std@@IAEXI@Z 101207c0 f i OpenExr:ImfCompositeDeepScanLine.obj
 0001:0011f7c0       ?_Reserve@?$vector@V?$vector@_KV?$allocator@_K@std@@@std@@V?$allocator@V?$vector@_KV?$allocator@_K@std@@@std@@@2@@std@@IAEXI@Z 101207c0 f i OpenExr:ImfTileOffsets.obj
 0001:0011f860       ?_Buy@?$vector@VDeepFrameBuffer@Imf@@V?$allocator@VDeepFrameBuffer@Imf@@@std@@@std@@IAE_NI@Z 10120860 f i OpenExr:ImfCompositeDeepScanLine.obj
 0001:0011f8d0       ?_Tidy@?$vector@VDeepFrameBuffer@Imf@@V?$allocator@VDeepFrameBuffer@Imf@@@std@@@std@@IAEXXZ 101208d0 f i OpenExr:ImfCompositeDeepScanLine.obj
 0001:0011f930       ??$_Uninit_def_fill_n@PAV?$basic_string@DU?$char_traits@D@std@@V?$allocator@D@2@@std@@IV?$allocator@V?$basic_string@DU?$char_traits@D@std@@V?$allocator@D@2@@std@@@2@V12@@std@@YAXPAV?$basic_string@DU?$char_traits@D@std@@V?$allocator@D@2@@0@IAAU?$_Wrap_alloc@V?$allocator@V?$basic_string@DU?$char_traits@D@std@@V?$allocator@D@2@@std@@@std@@@0@0U_Nonscalar_ptr_iterator_tag@0@@Z 10120930 f i OpenExr:ImfCompositeDeepScanLine.obj
 0001:0011f950       ??$_Uninit_def_fill_n@PAVDeepFrameBuffer@Imf@@IV?$allocator@VDeepFrameBuffer@Imf@@@std@@V12@@std@@YAXPAVDeepFrameBuffer@Imf@@IAAU?$_Wrap_alloc@V?$allocator@VDeepFrameBuffer@Imf@@@std@@@0@0U_Nonscalar_ptr_iterator_tag@0@@Z 10120950 f i OpenExr:ImfCompositeDeepScanLine.obj
 0001:0011f9f0       ??$destroy@VDeepFrameBuffer@Imf@@@?$_Wrap_alloc@V?$allocator@VDeepFrameBuffer@Imf@@@std@@@std@@QAEXPAVDeepFrameBuffer@Imf@@@Z 101209f0 f i OpenExr:ImfCompositeDeepScanLine.obj
 0001:0011fa20       ??0DeepFrameBuffer@Imf@@QAE@XZ 10120a20 f i OpenExr:ImfCompositeDeepScanLine.obj
 0001:0011fa80       ?_Buyheadnode@?$_Tree_alloc@$0A@U?$_Tree_base_types@U?$pair@$$CBVName@Imf@@UDeepSlice@2@@std@@V?$allocator@U?$pair@$$CBVName@Imf@@UDeepSlice@2@@std@@@2@@std@@@std@@QAEPAU?$_Tree_node@U?$pair@$$CBVName@Imf@@UDeepSlice@2@@std@@PAX@2@XZ 10120a80 f i OpenExr:ImfCompositeDeepScanLine.obj
 0001:0011fab0       ??0LineBuffer@?A0xad7979d8@Imf@@QAE@XZ 10120ab0 f   OpenExr:ImfDeepScanLineInputFile.obj
 0001:0011fb50       ??0Data@DeepScanLineInputFile@Imf@@QAE@H@Z 10120b50 f   OpenExr:ImfDeepScanLineInputFile.obj
 0001:0011fda0       ??_EData@DeepScanLineInputFile@Imf@@UAEPAXI@Z 10120da0 f i * CIL library *:* CIL module *
 0001:0011fda0       ??_GData@DeepScanLineInputFile@Imf@@UAEPAXI@Z 10120da0 f i OpenExr:ImfDeepScanLineInputFile.obj
 0001:0011fdd0       ??1Data@DeepScanLineInputFile@Imf@@UAE@XZ 10120dd0 f   OpenExr:ImfDeepScanLineInputFile.obj
 0001:00120020       ??_GLineBuffer@?A0xad7979d8@Imf@@QAEPAXI@Z 10121020 f i OpenExr:ImfDeepScanLineInputFile.obj
 0001:001200c0       ?reconstructLineOffsets@?A0xad7979d8@Imf@@YAXAAVIStream@2@W4LineOrder@2@AAV?$vector@_KV?$allocator@_K@std@@@std@@@Z 101210c0 f   OpenExr:ImfDeepScanLineInputFile.obj
 0001:00120260       ?readLineOffsets@?A0xad7979d8@Imf@@YAXAAVIStream@2@W4LineOrder@2@AAV?$vector@_KV?$allocator@_K@std@@@std@@AA_N@Z 10121260 f   OpenExr:ImfDeepScanLineInputFile.obj
 0001:001202f0       ?readPixelData@?A0xad7979d8@Imf@@YAXPAUInputStreamMutex@2@PAUData@DeepScanLineInputFile@2@HAAPADAA_K3@Z 101212f0 f   OpenExr:ImfDeepScanLineInputFile.obj
 0001:00120730       ??_GLineBufferTask@?A0xad7979d8@Imf@@UAEPAXI@Z 10121730 f i OpenExr:ImfDeepScanLineInputFile.obj
 0001:00120730       ??_ELineBufferTask@?A0xad7979d8@Imf@@UAEPAXI@Z 10121730 f i * CIL library *:* CIL module *
 0001:001207a0       ?execute@LineBufferTask@?A0xad7979d8@Imf@@UAEXXZ 101217a0 f   OpenExr:ImfDeepScanLineInputFile.obj
 0001:00120b50       ?newLineBufferTask@?A0xad7979d8@Imf@@YAPAVLineBufferTask@12@PAVTaskGroup@IlmThread@@PAUData@DeepScanLineInputFile@2@HHH@Z 10121b50 f   OpenExr:ImfDeepScanLineInputFile.obj
 0001:00120cc0       ?initialize@DeepScanLineInputFile@Imf@@AAEXABVHeader@2@@Z 10121cc0 f   OpenExr:ImfDeepScanLineInputFile.obj
 0001:001213b0       ??0DeepScanLineInputFile@Imf@@AAE@PAUInputPartData@1@@Z 101223b0 f   OpenExr:ImfDeepScanLineInputFile.obj
 0001:00121490       ??_EDeepScanLineInputFile@Imf@@UAEPAXI@Z 10122490 f i * CIL library *:* CIL module *
 0001:00121490       ??_GDeepScanLineInputFile@Imf@@UAEPAXI@Z 10122490 f i OpenExr:ImfDeepScanLineInputFile.obj
 0001:001214c0       ??0DeepScanLineInputFile@Imf@@QAE@ABVHeader@1@PAVIStream@1@HH@Z 101224c0 f   OpenExr:ImfDeepScanLineInputFile.obj
 0001:001215f0       ??1DeepScanLineInputFile@Imf@@UAE@XZ 101225f0 f   OpenExr:ImfDeepScanLineInputFile.obj
 0001:001216e0       ?fileName@DeepScanLineInputFile@Imf@@QBEPBDXZ 101226e0 f   OpenExr:ImfDeepScanLineInputFile.obj
 0001:00121700       ?setFrameBuffer@DeepScanLineInputFile@Imf@@QAEXABVDeepFrameBuffer@2@@Z 10122700 f   OpenExr:ImfDeepScanLineInputFile.obj
 0001:00121f90       ?readPixels@DeepScanLineInputFile@Imf@@QAEXHH@Z 10122f90 f   OpenExr:ImfDeepScanLineInputFile.obj
 0001:00122370       ?readSampleCountForLineBlock@?A0xad7979d8@Imf@@YAXPAUInputStreamMutex@2@PAUData@DeepScanLineInputFile@2@H@Z 10123370 f   OpenExr:ImfDeepScanLineInputFile.obj
 0001:00122a00       ?fillSampleCountFromCache@?A0xad7979d8@Imf@@YAXHPAUData@DeepScanLineInputFile@2@@Z 10123a00 f   OpenExr:ImfDeepScanLineInputFile.obj
 0001:00122a70       ?readPixelSampleCounts@DeepScanLineInputFile@Imf@@QAEXHH@Z 10123a70 f   OpenExr:ImfDeepScanLineInputFile.obj
 0001:00122dc0       ??$_Copy_nodes@U?$integral_constant@_N$0A@@std@@@?$_Tree@V?$_Tmap_traits@VName@Imf@@UDeepSlice@2@U?$less@VName@Imf@@@std@@V?$allocator@U?$pair@$$CBVName@Imf@@UDeepSlice@2@@std@@@5@$0A@@std@@@std@@IAEPAU?$_Tree_node@U?$pair@$$CBVName@Imf@@UDeepSlice@2@@std@@PAX@1@PAU21@0U?$integral_constant@_N$0A@@1@@Z 10123dc0 f i OpenExr:ImfDeepScanLineInputFile.obj
 0001:00122e80       ??$_Buynode@AAU?$pair@$$CBVName@Imf@@UDeepSlice@2@@std@@@?$_Tree_buy@U?$pair@$$CBVName@Imf@@UDeepSlice@2@@std@@V?$allocator@U?$pair@$$CBVName@Imf@@UDeepSlice@2@@std@@@2@@std@@QAEPAU?$_Tree_node@U?$pair@$$CBVName@Imf@@UDeepSlice@2@@std@@PAX@1@AAU?$pair@$$CBVName@Imf@@UDeepSlice@2@@1@@Z 10123e80 f i OpenExr:ImfDeepScanLineInputFile.obj
 0001:00122eb0       ?_Buynode0@?$_Tree_buy@U?$pair@$$CBVName@Imf@@UDeepSlice@2@@std@@V?$allocator@U?$pair@$$CBVName@Imf@@UDeepSlice@2@@std@@@2@@std@@QAEPAU?$_Tree_node@U?$pair@$$CBVName@Imf@@UDeepSlice@2@@std@@PAX@2@XZ 10123eb0 f i OpenExr:ImfDeepScanLineInputFile.obj
 0001:00122ef0       ?pixelTypeSize@Imf@@YAHW4PixelType@1@@Z 10123ef0 f   OpenExr:ImfMisc.obj
 0001:00122f60       ?bytesPerLineTable@Imf@@YAIABVHeader@1@AAV?$vector@IV?$allocator@I@std@@@std@@@Z 10123f60 f   OpenExr:ImfMisc.obj
 0001:00123100       ?bytesPerDeepLineTable@Imf@@YAIABVHeader@1@HHPBDHHAAV?$vector@IV?$allocator@I@std@@@std@@@Z 10124100 f   OpenExr:ImfMisc.obj
 0001:00123320       ?offsetInLineBufferTable@Imf@@YAXABV?$vector@IV?$allocator@I@std@@@std@@HHHAAV23@@Z 10124320 f   OpenExr:ImfMisc.obj
 0001:00123370       ?copyIntoFrameBuffer@Imf@@YAXAAPBDPAD1I_NNW4Format@Compressor@1@W4PixelType@1@4@Z 10124370 f   OpenExr:ImfMisc.obj
 0001:00123bf0       ?copyIntoDeepFrameBuffer@Imf@@YAXAAPBDPADPBDHHHHHHHHHHHH_NNW4Format@Compressor@1@W4PixelType@1@5@Z 10124bf0 f   OpenExr:ImfMisc.obj
 0001:001252c0       ?convertInPlace@Imf@@YAXAAPADAAPBDW4PixelType@1@I@Z 101262c0 f   OpenExr:ImfMisc.obj
 0001:00125430       ?copyFromFrameBuffer@Imf@@YAXAAPADAAPBDPBDIW4Format@Compressor@1@W4PixelType@1@@Z 10126430 f   OpenExr:ImfMisc.obj
 0001:001256c0       ?fillChannelWithZeroes@Imf@@YAXAAPADW4Format@Compressor@1@W4PixelType@1@I@Z 101266c0 f   OpenExr:ImfMisc.obj
 0001:00125900       ?usesLongNames@Imf@@YA_NABVHeader@1@@Z 10126900 f   OpenExr:ImfMisc.obj
 0001:001259e0       ?getScanlineChunkOffsetTableSize@Imf@@YAHABVHeader@1@@Z 101269e0 f   OpenExr:ImfMisc.obj
 0001:00125ab0       ?getChunkOffsetTableSize@Imf@@YAHABVHeader@1@_N@Z 10126ab0 f   OpenExr:ImfMisc.obj
 0001:00125b80       ??$skip@UCharPtrIO@Imf@@PBD@Xdr@Imf@@YAXAAPBDH@Z 10126b80 f i OpenExr:ImfMisc.obj
 0001:00125c10       ?writeMagicNumberAndVersionField@GenericOutputFile@Imf@@IAEXAAVOStream@2@ABVHeader@2@@Z 10126c10 f   OpenExr:ImfGenericOutputFile.obj
 0001:00125cc0       ?bitmapFromData@?A0x0af1d440@Imf@@YAXQBGHQAEAAG2@Z 10126cc0 f   OpenExr:ImfPizCompressor.obj
 0001:00125d50       ?reverseLutFromBitmap@?A0x0af1d440@Imf@@YAGQBEQAG@Z 10126d50 f   OpenExr:ImfPizCompressor.obj
 0001:00125db0       ??0PizCompressor@Imf@@QAE@ABVHeader@1@II@Z 10126db0 f   OpenExr:ImfPizCompressor.obj
 0001:00126030       ??_GPizCompressor@Imf@@UAEPAXI@Z 10127030 f i OpenExr:ImfPizCompressor.obj
 0001:00126030       ??_EPizCompressor@Imf@@UAEPAXI@Z 10127030 f i * CIL library *:* CIL module *
 0001:00126080       ?numScanLines@Pxr24Compressor@Imf@@UBEHXZ 10127080 f   OpenExr:ImfPxr24Compressor.obj
 0001:00126080       ?numScanLines@ZipCompressor@Imf@@UBEHXZ 10127080 f   OpenExr:ImfZipCompressor.obj
 0001:00126080       ?format@PizCompressor@Imf@@UBE?AW4Format@Compressor@2@XZ 10127080 f   OpenExr:ImfPizCompressor.obj
 0001:00126090       ?compress@PizCompressor@Imf@@UAEHPBDHHAAPBD@Z 10127090 f   OpenExr:ImfPizCompressor.obj
 0001:001260e0       ?compressTile@PizCompressor@Imf@@UAEHPBDHV?$Box@V?$Vec2@H@Imath@@@Imath@@AAPBD@Z 101270e0 f   OpenExr:ImfPizCompressor.obj
 0001:00126120       ?uncompress@PizCompressor@Imf@@UAEHPBDHHAAPBD@Z 10127120 f   OpenExr:ImfPizCompressor.obj
 0001:00126170       ?uncompressTile@PizCompressor@Imf@@UAEHPBDHV?$Box@V?$Vec2@H@Imath@@@Imath@@AAPBD@Z 10127170 f   OpenExr:ImfPizCompressor.obj
 0001:001261b0       ?compress@PizCompressor@Imf@@AAEHPBDHV?$Box@V?$Vec2@H@Imath@@@Imath@@AAPBD@Z 101271b0 f   OpenExr:ImfPizCompressor.obj
 0001:00126780       ?uncompress@PizCompressor@Imf@@AAEHPBDHV?$Box@V?$Vec2@H@Imath@@@Imath@@AAPBD@Z 10127780 f   OpenExr:ImfPizCompressor.obj
 0001:00126d20       ??1?$AutoArray@E$0CAAA@@Imf@@QAE@XZ 10127d20 f i OpenExr:ImfPizCompressor.obj
 0001:00126d20       ??1?$AutoArray@PA_K$0BAAAB@@Imf@@QAE@XZ 10127d20 f i OpenExr:ImfHuf.obj
 0001:00126d20       ??1?$AutoArray@_K$0BAAAB@@Imf@@QAE@XZ 10127d20 f i OpenExr:ImfHuf.obj
 0001:00126d20       ??1?$AutoArray@G$0BAAAA@@Imf@@QAE@XZ 10127d20 f i OpenExr:ImfPizCompressor.obj
 0001:00126d20       ??1?$AutoArray@UHufDec@?A0x6b7141d6@Imf@@$0EAAA@@Imf@@QAE@XZ 10127d20 f i OpenExr:ImfHuf.obj
 0001:00126d20       ??1?$AutoArray@H$0BAAAB@@Imf@@QAE@XZ 10127d20 f i OpenExr:ImfHuf.obj
 0001:00126d30       ?convertFromLinear@?A0x77d3bc11@Imf@@YAXQAG@Z 10127d30 f i OpenExr:ImfB44Compressor.obj
 0001:00126d90       ?convertToLinear@?A0x77d3bc11@Imf@@YAXQAG@Z 10127d90 f i OpenExr:ImfB44Compressor.obj
 0001:00126df0       ?pack@?A0x77d3bc11@Imf@@YAHQBGQAE_N2@Z 10127df0 f   OpenExr:ImfB44Compressor.obj
 0001:00127290       ?unpack14@?A0x77d3bc11@Imf@@YAXQBEQAG@Z 10128290 f i OpenExr:ImfB44Compressor.obj
 0001:001274c0       ?notEnoughData@?A0x77d3bc11@Imf@@YAXXZ 101284c0 f   OpenExr:ImfB44Compressor.obj
 0001:001274c0       ?notEnoughData@?A0xde4b4382@Imf@@YAXXZ 101284c0 f   OpenExr:ImfPxr24Compressor.obj
 0001:00127500       ??0B44Compressor@Imf@@QAE@ABVHeader@1@II_N@Z 10128500 f   OpenExr:ImfB44Compressor.obj
 0001:001278a0       ??_GB44Compressor@Imf@@UAEPAXI@Z 101288a0 f i OpenExr:ImfB44Compressor.obj
 0001:001278a0       ??_EB44Compressor@Imf@@UAEPAXI@Z 101288a0 f i * CIL library *:* CIL module *
 0001:001278f0       ?numScanLines@B44Compressor@Imf@@UBEHXZ 101288f0 f   OpenExr:ImfB44Compressor.obj
 0001:00127900       ?compress@B44Compressor@Imf@@UAEHPBDHHAAPBD@Z 10128900 f   OpenExr:ImfB44Compressor.obj
 0001:00127950       ?compressTile@B44Compressor@Imf@@UAEHPBDHV?$Box@V?$Vec2@H@Imath@@@Imath@@AAPBD@Z 10128950 f   OpenExr:ImfB44Compressor.obj
 0001:00127990       ?uncompress@B44Compressor@Imf@@UAEHPBDHHAAPBD@Z 10128990 f   OpenExr:ImfB44Compressor.obj
 0001:001279e0       ?uncompressTile@B44Compressor@Imf@@UAEHPBDHV?$Box@V?$Vec2@H@Imath@@@Imath@@AAPBD@Z 101289e0 f   OpenExr:ImfB44Compressor.obj
 0001:00127a20       ?compress@B44Compressor@Imf@@AAEHPBDHV?$Box@V?$Vec2@H@Imath@@@Imath@@AAPBD@Z 10128a20 f   OpenExr:ImfB44Compressor.obj
 0001:00127fa0       ?uncompress@B44Compressor@Imf@@AAEHPBDHV?$Box@V?$Vec2@H@Imath@@@Imath@@AAPBD@Z 10128fa0 f   OpenExr:ImfB44Compressor.obj
 0001:001285a0       ??0ZipCompressor@Imf@@QAE@ABVHeader@1@II@Z 101295a0 f   OpenExr:ImfZipCompressor.obj
 0001:00128630       ??_GZipCompressor@Imf@@UAEPAXI@Z 10129630 f i OpenExr:ImfZipCompressor.obj
 0001:00128630       ??_EZipCompressor@Imf@@UAEPAXI@Z 10129630 f i * CIL library *:* CIL module *
 0001:00128680       ?compress@ZipCompressor@Imf@@UAEHPBDHHAAPBD@Z 10129680 f   OpenExr:ImfZipCompressor.obj
 0001:001286c0       ?uncompress@ZipCompressor@Imf@@UAEHPBDHHAAPBD@Z 101296c0 f   OpenExr:ImfZipCompressor.obj
 0001:00128700       ??0Pxr24Compressor@Imf@@QAE@ABVHeader@1@II@Z 10129700 f   OpenExr:ImfPxr24Compressor.obj
 0001:001288c0       ??_EPxr24Compressor@Imf@@UAEPAXI@Z 101298c0 f i * CIL library *:* CIL module *
 0001:001288c0       ??_GPxr24Compressor@Imf@@UAEPAXI@Z 101298c0 f i OpenExr:ImfPxr24Compressor.obj
 0001:00128900       ?compress@Pxr24Compressor@Imf@@UAEHPBDHHAAPBD@Z 10129900 f   OpenExr:ImfPxr24Compressor.obj
 0001:00128950       ?compressTile@Pxr24Compressor@Imf@@UAEHPBDHV?$Box@V?$Vec2@H@Imath@@@Imath@@AAPBD@Z 10129950 f   OpenExr:ImfPxr24Compressor.obj
 0001:00128990       ?uncompress@Pxr24Compressor@Imf@@UAEHPBDHHAAPBD@Z 10129990 f   OpenExr:ImfPxr24Compressor.obj
 0001:001289e0       ?uncompressTile@Pxr24Compressor@Imf@@UAEHPBDHV?$Box@V?$Vec2@H@Imath@@@Imath@@AAPBD@Z 101299e0 f   OpenExr:ImfPxr24Compressor.obj
 0001:00128a20       ?compress@Pxr24Compressor@Imf@@AAEHPBDHV?$Box@V?$Vec2@H@Imath@@@Imath@@AAPBD@Z 10129a20 f   OpenExr:ImfPxr24Compressor.obj
 0001:00128e80       ?uncompress@Pxr24Compressor@Imf@@AAEHPBDHV?$Box@V?$Vec2@H@Imath@@@Imath@@AAPBD@Z 10129e80 f   OpenExr:ImfPxr24Compressor.obj
 0001:00129240       ??0RleCompressor@Imf@@QAE@ABVHeader@1@I@Z 1012a240 f   OpenExr:ImfRleCompressor.obj
 0001:00129310       ??_ERleCompressor@Imf@@UAEPAXI@Z 1012a310 f i * CIL library *:* CIL module *
 0001:00129310       ??_GRleCompressor@Imf@@UAEPAXI@Z 1012a310 f i OpenExr:ImfRleCompressor.obj
 0001:00129350       ?compress@RleCompressor@Imf@@UAEHPBDHHAAPBD@Z 1012a350 f   OpenExr:ImfRleCompressor.obj
 0001:001293f0       ?uncompress@RleCompressor@Imf@@UAEHPBDHHAAPBD@Z 1012a3f0 f   OpenExr:ImfRleCompressor.obj
 0001:001294d0       ?tooMuchData@?A0x6b7141d6@Imf@@YAXXZ 1012a4d0 f   OpenExr:ImfHuf.obj
 0001:00129510       ?notEnoughData@?A0x6b7141d6@Imf@@YAXXZ 1012a510 f   OpenExr:ImfHuf.obj
 0001:00129550       ?invalidCode@?A0x6b7141d6@Imf@@YAXXZ 1012a550 f   OpenExr:ImfHuf.obj
 0001:00129590       ?unexpectedEndOfTable@?A0x6b7141d6@Imf@@YAXXZ 1012a590 f   OpenExr:ImfHuf.obj
 0001:001295d0       ?tableTooLong@?A0x6b7141d6@Imf@@YAXXZ 1012a5d0 f   OpenExr:ImfHuf.obj
 0001:00129610       ?invalidTableEntry@?A0x6b7141d6@Imf@@YAXXZ 1012a610 f   OpenExr:ImfHuf.obj
 0001:00129650       ?outputBits@?A0x6b7141d6@Imf@@YAXH_KAA_KAAHAAPAD@Z 1012a650 f i OpenExr:ImfHuf.obj
 0001:001296c0       ?getBits@?A0x6b7141d6@Imf@@YA_KHAA_KAAHAAPBD@Z 1012a6c0 f i OpenExr:ImfHuf.obj
 0001:00129740       ?hufCanonicalCodeTable@?A0x6b7141d6@Imf@@YAXQA_K@Z 1012a740 f   OpenExr:ImfHuf.obj
 0001:00129840       ?hufBuildEncTable@?A0x6b7141d6@Imf@@YAXPA_KPAH1@Z 1012a840 f   OpenExr:ImfHuf.obj
 0001:00129b50       ?hufPackEncTable@?A0x6b7141d6@Imf@@YAXPB_KHHPAPAD@Z 1012ab50 f   OpenExr:ImfHuf.obj
 0001:00129cb0       ?hufUnpackEncTable@?A0x6b7141d6@Imf@@YAXPAPBDHHHPA_K@Z 1012acb0 f   OpenExr:ImfHuf.obj
 0001:00129df0       ?hufBuildDecTable@?A0x6b7141d6@Imf@@YAXPB_KHHPAUHufDec@12@@Z 1012adf0 f   OpenExr:ImfHuf.obj
 0001:00129f90       ?hufFreeDecTable@?A0x6b7141d6@Imf@@YAXPAUHufDec@12@@Z 1012af90 f   OpenExr:ImfHuf.obj
 0001:00129fc0       ?sendCode@?A0x6b7141d6@Imf@@YAX_KH0AA_KAAHAAPAD@Z 1012afc0 f i OpenExr:ImfHuf.obj
 0001:0012a0b0       ?hufEncode@?A0x6b7141d6@Imf@@YAHPB_KPBGHHPAD@Z 1012b0b0 f   OpenExr:ImfHuf.obj
 0001:0012a330       ?hufDecode@?A0x6b7141d6@Imf@@YAXPB_KPBUHufDec@12@PBDHHHPAG@Z 1012b330 f   OpenExr:ImfHuf.obj
 0001:0012a7f0       ?countFrequencies@?A0x6b7141d6@Imf@@YAXQA_KQBGH@Z 1012b7f0 f   OpenExr:ImfHuf.obj
 0001:0012a840       ?hufCompress@Imf@@YAHQBGHQAD@Z 1012b840 f   OpenExr:ImfHuf.obj
 0001:0012a9d0       ?hufUncompress@Imf@@YAXQBDHQAGH@Z 1012b9d0 f   OpenExr:ImfHuf.obj
 0001:0012ac70       ??0?$AutoArray@_K$0BAAAB@@Imf@@QAE@XZ 1012bc70 f i OpenExr:ImfHuf.obj
 0001:0012aca0       ??$_Make_heap@PAPA_KHPA_KUFHeapCompare@?A0x6b7141d6@Imf@@@std@@YAXPAPA_K0UFHeapCompare@?A0x6b7141d6@Imf@@PAH0@Z 1012bca0 f i OpenExr:ImfHuf.obj
 0001:0012ad90       ??$_Adjust_heap@PAPA_KHPA_KUFHeapCompare@?A0x6b7141d6@Imf@@@std@@YAXPAPA_KHH$$QAPA_KUFHeapCompare@?A0x6b7141d6@Imf@@@Z 1012bd90 f i OpenExr:ImfHuf.obj
 0001:0012ae10       ??$_Push_heap@PAPA_KHPA_KUFHeapCompare@?A0x6b7141d6@Imf@@@std@@YAXPAPA_KHH$$QAPA_KUFHeapCompare@?A0x6b7141d6@Imf@@@Z 1012be10 f i OpenExr:ImfHuf.obj
 0001:0012ae70       ??0Zip@Imf@@QAE@II@Z       1012be70 f   OpenExr:ImfZip.obj
 0001:0012aef0       ??1Zip@Imf@@QAE@XZ         1012bef0 f   OpenExr:ImfZip.obj
 0001:0012af00       ?maxCompressedSize@Zip@Imf@@QAEIXZ 1012bf00 f   OpenExr:ImfZip.obj
 0001:0012afe0       ?compress@Zip@Imf@@QAEHPBDHPAD@Z 1012bfe0 f   OpenExr:ImfZip.obj
 0001:0012b0f0       ?uncompress@Zip@Imf@@QAEHPBDHPAD@Z 1012c0f0 f   OpenExr:ImfZip.obj
 0001:0012b1b0       ?rleCompress@Imf@@YAHHQBDQAC@Z 1012c1b0 f   OpenExr:ImfRle.obj
 0001:0012b280       ?rleUncompress@Imf@@YAHHHQBCQAD@Z 1012c280 f   OpenExr:ImfRle.obj
 0001:0012b320       ??0TileOffsets@Imf@@QAE@W4LevelMode@1@HHPBH1@Z 1012c320 f   OpenExr:ImfTileOffsets.obj
 0001:0012b5b0       ?anyOffsetsAreInvalid@TileOffsets@Imf@@ABE_NXZ 1012c5b0 f   OpenExr:ImfTileOffsets.obj
 0001:0012b6f0       ?findTiles@TileOffsets@Imf@@AAEXAAVIStream@2@_N11@Z 1012c6f0 f   OpenExr:ImfTileOffsets.obj
 0001:0012ba30       ?reconstructFromFile@TileOffsets@Imf@@AAEXAAVIStream@2@_N1@Z 1012ca30 f   OpenExr:ImfTileOffsets.obj
 0001:0012bad0       ?readFrom@TileOffsets@Imf@@QAEXAAVIStream@2@AA_N_N2@Z 1012cad0 f   OpenExr:ImfTileOffsets.obj
 0001:0012bc00       ?readFrom@TileOffsets@Imf@@QAEXV?$vector@_KV?$allocator@_K@std@@@std@@AA_N@Z 1012cc00 f   OpenExr:ImfTileOffsets.obj
 0001:0012be80       ?isValidTile@TileOffsets@Imf@@QBE_NHHHH@Z 1012ce80 f   OpenExr:ImfTileOffsets.obj
 0001:0012bfb0       ??RTileOffsets@Imf@@QAEAA_KHHHH@Z 1012cfb0 f   OpenExr:ImfTileOffsets.obj
 0001:0012c050       ?resize@?$vector@V?$vector@V?$vector@_KV?$allocator@_K@std@@@std@@V?$allocator@V?$vector@_KV?$allocator@_K@std@@@std@@@2@@std@@V?$allocator@V?$vector@V?$vector@_KV?$allocator@_K@std@@@std@@V?$allocator@V?$vector@_KV?$allocator@_K@std@@@std@@@2@@std@@@2@@std@@QAEXI@Z 1012d050 f i OpenExr:ImfTileOffsets.obj
 0001:0012c110       ?_Reserve@?$vector@V?$vector@V?$vector@_KV?$allocator@_K@std@@@std@@V?$allocator@V?$vector@_KV?$allocator@_K@std@@@std@@@2@@std@@V?$allocator@V?$vector@V?$vector@_KV?$allocator@_K@std@@@std@@V?$allocator@V?$vector@_KV?$allocator@_K@std@@@std@@@2@@std@@@2@@std@@IAEXI@Z 1012d110 f i OpenExr:ImfTileOffsets.obj
 0001:0012c1b0       ?_Reallocate@?$vector@V?$vector@V?$vector@_KV?$allocator@_K@std@@@std@@V?$allocator@V?$vector@_KV?$allocator@_K@std@@@std@@@2@@std@@V?$allocator@V?$vector@V?$vector@_KV?$allocator@_K@std@@@std@@V?$allocator@V?$vector@_KV?$allocator@_K@std@@@std@@@2@@std@@@2@@std@@IAEXI@Z 1012d1b0 f i OpenExr:ImfTileOffsets.obj
 0001:0012c250       ?levelSize@Imf@@YAHHHHW4LevelRoundingMode@1@@Z 1012d250 f   OpenExr:ImfTiledMisc.obj
 0001:0012c2e0       ?dataWindowForTile@Imf@@YA?AV?$Box@V?$Vec2@H@Imath@@@Imath@@ABVTileDescription@1@HHHHHHHH@Z 1012d2e0 f   OpenExr:ImfTiledMisc.obj
 0001:0012c3a0       ?calculateBytesPerPixel@Imf@@YAIABVHeader@1@@Z 1012d3a0 f   OpenExr:ImfTiledMisc.obj
 0001:0012c470       ?roundLog2@?A0xe8ba526a@Imf@@YAHHW4LevelRoundingMode@2@@Z 1012d470 f   OpenExr:ImfTiledMisc.obj
 0001:0012c4b0       ?calculateNumXLevels@?A0xe8ba526a@Imf@@YAHABVTileDescription@2@HHHH@Z 1012d4b0 f   OpenExr:ImfTiledMisc.obj
 0001:0012c570       ?calculateNumYLevels@?A0xe8ba526a@Imf@@YAHABVTileDescription@2@HHHH@Z 1012d570 f   OpenExr:ImfTiledMisc.obj
 0001:0012c630       ?calculateNumTiles@?A0xe8ba526a@Imf@@YAXPAHHHHHW4LevelRoundingMode@2@@Z 1012d630 f   OpenExr:ImfTiledMisc.obj
 0001:0012c6e0       ?precalculateTileInfo@Imf@@YAXABVTileDescription@1@HHHHAAPAH1AAH2@Z 1012d6e0 f   OpenExr:ImfTiledMisc.obj
 0001:0012c7a0       ?getTiledChunkOffsetTableSize@Imf@@YAHABVHeader@1@@Z 1012d7a0 f   OpenExr:ImfTiledMisc.obj
 0001:0012ca10       ??0DeepSlice@Imf@@QAE@W4PixelType@1@PADIIIHHN_N2@Z 1012da10 f   OpenExr:ImfDeepFrameBuffer.obj
 0001:0012ca60       ?insert@DeepFrameBuffer@Imf@@QAEXQBDABUDeepSlice@2@@Z 1012da60 f   OpenExr:ImfDeepFrameBuffer.obj
 0001:0012cb80       ??A?$map@VName@Imf@@UDeepSlice@2@U?$less@VName@Imf@@@std@@V?$allocator@U?$pair@$$CBVName@Imf@@UDeepSlice@2@@std@@@5@@std@@QAEAAUDeepSlice@Imf@@$$QAVName@3@@Z 1012db80 f i OpenExr:ImfDeepFrameBuffer.obj
 0001:0012cc10       ??$_Buynode@ABUpiecewise_construct_t@std@@V?$tuple@$$QAVName@Imf@@@2@V?$tuple@$$$V@2@@?$_Tree_buy@U?$pair@$$CBVName@Imf@@UDeepSlice@2@@std@@V?$allocator@U?$pair@$$CBVName@Imf@@UDeepSlice@2@@std@@@2@@std@@QAEPAU?$_Tree_node@U?$pair@$$CBVName@Imf@@UDeepSlice@2@@std@@PAX@1@ABUpiecewise_construct_t@1@$$QAV?$tuple@$$QAVName@Imf@@@1@$$QAV?$tuple@$$$V@1@@Z 1012dc10 f i OpenExr:ImfDeepFrameBuffer.obj
 0001:0012cc60       ??$_Insert_hint@AAU?$pair@$$CBVName@Imf@@UDeepSlice@2@@std@@PAU?$_Tree_node@U?$pair@$$CBVName@Imf@@UDeepSlice@2@@std@@PAX@2@@?$_Tree@V?$_Tmap_traits@VName@Imf@@UDeepSlice@2@U?$less@VName@Imf@@@std@@V?$allocator@U?$pair@$$CBVName@Imf@@UDeepSlice@2@@std@@@5@$0A@@std@@@std@@IAE?AV?$_Tree_iterator@V?$_Tree_val@U?$_Tree_simple_types@U?$pair@$$CBVName@Imf@@UDeepSlice@2@@std@@@std@@@std@@@1@V?$_Tree_const_iterator@V?$_Tree_val@U?$_Tree_simple_types@U?$pair@$$CBVName@Imf@@UDeepSlice@2@@std@@@std@@@std@@@1@AAU?$pair@$$CBVName@Imf@@UDeepSlice@2@@1@PAU?$_Tree_node@U?$pair@$$CBVName@Imf@@UDeepSlice@2@@std@@PAX@1@@Z 1012dc60 f i OpenExr:ImfDeepFrameBuffer.obj
 0001:0012ceb0       ??$_Insert_at@AAU?$pair@$$CBVName@Imf@@UDeepSlice@2@@std@@PAU?$_Tree_node@U?$pair@$$CBVName@Imf@@UDeepSlice@2@@std@@PAX@2@@?$_Tree@V?$_Tmap_traits@VName@Imf@@UDeepSlice@2@U?$less@VName@Imf@@@std@@V?$allocator@U?$pair@$$CBVName@Imf@@UDeepSlice@2@@std@@@5@$0A@@std@@@std@@IAE?AV?$_Tree_iterator@V?$_Tree_val@U?$_Tree_simple_types@U?$pair@$$CBVName@Imf@@UDeepSlice@2@@std@@@std@@@std@@@1@_NPAU?$_Tree_node@U?$pair@$$CBVName@Imf@@UDeepSlice@2@@std@@PAX@1@AAU?$pair@$$CBVName@Imf@@UDeepSlice@2@@1@1@Z 1012deb0 f i OpenExr:ImfDeepFrameBuffer.obj
 0001:0012d090       ??$_Insert_nohint@AAU?$pair@$$CBVName@Imf@@UDeepSlice@2@@std@@PAU?$_Tree_node@U?$pair@$$CBVName@Imf@@UDeepSlice@2@@std@@PAX@2@@?$_Tree@V?$_Tmap_traits@VName@Imf@@UDeepSlice@2@U?$less@VName@Imf@@@std@@V?$allocator@U?$pair@$$CBVName@Imf@@UDeepSlice@2@@std@@@5@$0A@@std@@@std@@IAE?AU?$pair@V?$_Tree_iterator@V?$_Tree_val@U?$_Tree_simple_types@U?$pair@$$CBVName@Imf@@UDeepSlice@2@@std@@@std@@@std@@@std@@_N@1@_NAAU?$pair@$$CBVName@Imf@@UDeepSlice@2@@1@PAU?$_Tree_node@U?$pair@$$CBVName@Imf@@UDeepSlice@2@@std@@PAX@1@@Z 1012e090 f i OpenExr:ImfDeepFrameBuffer.obj
 0001:0012d1f0       ??_GDeepCompositing@Imf@@UAEPAXI@Z 1012e1f0 f i OpenExr:ImfDeepCompositing.obj
 0001:0012d1f0       ??_EDeepCompositing@Imf@@UAEPAXI@Z 1012e1f0 f i * CIL library *:* CIL module *
 0001:0012d220       ??1DeepCompositing@Imf@@UAE@XZ 1012e220 f   OpenExr:ImfDeepCompositing.obj
 0001:0012d230       ?composite_pixel@DeepCompositing@Imf@@UAEXQAMQAPBMQAPBDHHH@Z 1012e230 f   OpenExr:ImfDeepCompositing.obj
 0001:0012d3f0       ?sort@DeepCompositing@Imf@@UAEXQAHQAPBMQAPBDHHH@Z 1012e3f0 f   OpenExr:ImfDeepCompositing.obj
 0001:0012d420       ??$_Sort@PAHHUsort_helper@Imf@@@std@@YAXPAH0HUsort_helper@Imf@@@Z 1012e420 f i OpenExr:ImfDeepCompositing.obj
 0001:0012d510       ??$_Unguarded_partition@PAHUsort_helper@Imf@@@std@@YA?AU?$pair@PAHPAH@0@PAH0Usort_helper@Imf@@@Z 1012e510 f i OpenExr:ImfDeepCompositing.obj
 0001:0012d8b0       ??$_Median@PAHUsort_helper@Imf@@@std@@YAXPAH00Usort_helper@Imf@@@Z 1012e8b0 f i OpenExr:ImfDeepCompositing.obj
 0001:0012d950       ??$_Make_heap@PAHHHUsort_helper@Imf@@@std@@YAXPAH0Usort_helper@Imf@@00@Z 1012e950 f i OpenExr:ImfDeepCompositing.obj
 0001:0012da40       ??$_Sort_heap@PAHUsort_helper@Imf@@@std@@YAXPAH0Usort_helper@Imf@@@Z 1012ea40 f i OpenExr:ImfDeepCompositing.obj
 0001:0012daa0       ??$_Insertion_sort1@PAHUsort_helper@Imf@@H@std@@YAXPAH0Usort_helper@Imf@@0@Z 1012eaa0 f i OpenExr:ImfDeepCompositing.obj
 0001:0012dba0       ??$_Med3@PAHUsort_helper@Imf@@@std@@YAXPAH00Usort_helper@Imf@@@Z 1012eba0 f i OpenExr:ImfDeepCompositing.obj
 0001:0012dc80       ??$_Adjust_heap@PAHHHUsort_helper@Imf@@@std@@YAXPAHHH$$QAHUsort_helper@Imf@@@Z 1012ec80 f i OpenExr:ImfDeepCompositing.obj
 0001:0012dd30       ??$_Push_heap@PAHHHUsort_helper@Imf@@@std@@YAXPAHHH$$QAHUsort_helper@Imf@@@Z 1012ed30 f i OpenExr:ImfDeepCompositing.obj
 0001:0012ddc0       ?halfToUint@Imf@@YAIVhalf@@@Z 1012edc0 f   OpenExr:ImfConvert.obj
 0001:0012de10       ?floatToUint@Imf@@YAIM@Z   1012ee10 f   OpenExr:ImfConvert.obj
 0001:0012de70       ?floatToHalf@Imf@@YA?AVhalf@@M@Z 1012ee70 f   OpenExr:ImfConvert.obj
 0001:0012ded0       ?wav2Encode@Imf@@YAXPAGHHHHG@Z 1012eed0 f   OpenExr:ImfWav.obj
 0001:0012e220       ?wav2Decode@Imf@@YAXPAGHHHHG@Z 1012f220 f   OpenExr:ImfWav.obj
 0001:0012e530       ??0FastHufDecoder@Imf@@QAE@AAPBDHHHH@Z 1012f530 f   OpenExr:ImfFastHuf.obj
 0001:0012ec30       ??1FastHufDecoder@Imf@@QAE@XZ 1012fc30 f   OpenExr:ImfFastHuf.obj
 0001:0012ec40       ?buildTables@FastHufDecoder@Imf@@AAEXPA_K0@Z 1012fc40 f   OpenExr:ImfFastHuf.obj
 0001:0012eea0       ?refill@FastHufDecoder@Imf@@AAEXAA_KH0AAHAAPBE1@Z 1012fea0 f i OpenExr:ImfFastHuf.obj
 0001:0012f040       ?readBits@FastHufDecoder@Imf@@AAE_KHAA_KAAHAAPBD@Z 10130040 f i OpenExr:ImfFastHuf.obj
 0001:0012f0b0       ?decode@FastHufDecoder@Imf@@QAEXPBEHPAGH@Z 101300b0 f   OpenExr:ImfFastHuf.obj
 0001:0012f560       ?push_back@?$vector@_KV?$allocator@_K@std@@@std@@QAEX$$QA_K@Z 10130560 f i OpenExr:ImfFastHuf.obj
 0001:0012f5e0       _jpeg_add_quant_table      101305e0 f   jpeg:jcparam.obj
 0001:0012f6a0       _jpeg_set_quality          101306a0 f   jpeg:jcparam.obj
 0001:0012f820       _jpeg_set_defaults         10130820 f   jpeg:jcparam.obj
 0001:0012f930       _jpeg_default_colorspace   10130930 f   jpeg:jcparam.obj
 0001:0012fb70       _jpeg_set_colorspace       10130b70 f   jpeg:jcparam.obj
 0001:00130110       _jpeg_simple_progression   10131110 f   jpeg:jcparam.obj
 0001:00130460       _jpeg_start_decompress     10131460 f   jpeg:jdapistd.obj
 0001:00130630       _jpeg_read_scanlines       10131630 f   jpeg:jdapistd.obj
 0001:001306d0       _jpeg_finish_output        101316d0 f   jpeg:jdapistd.obj
 0001:00130770       _jpeg_CreateDecompress     10131770 f   jpeg:jdapimin.obj
 0001:00130a80       _jpeg_read_header          10131a80 f   jpeg:jdapimin.obj
 0001:00130b20       _jpeg_consume_input        10131b20 f   jpeg:jdapimin.obj
 0001:00130be0       _jpeg_finish_decompress    10131be0 f   jpeg:jdapimin.obj
 0001:00130ce0       _jpeg_CreateCompress       10131ce0 f   jpeg:jcapimin.obj
 0001:00130df0       _jpeg_suppress_tables      10131df0 f   jpeg:jcapimin.obj
 0001:00130eb0       _jpeg_finish_compress      10131eb0 f   jpeg:jcapimin.obj
 0001:001330e0       _jpeg_resync_to_restart    101340e0 f   jpeg:jdmarker.obj
 0001:00133220       _jinit_marker_reader       10134220 f   jpeg:jdmarker.obj
 0001:001332d0       _jpeg_start_compress       101342d0 f   jpeg:jcapistd.obj
 0001:00133340       _jpeg_write_scanlines      10134340 f   jpeg:jcapistd.obj
 0001:001335b0       _jpeg_std_error            101345b0 f   jpeg:jerror.obj
 0001:001337d0       _jpeg_stdio_src            101347d0 f   jpeg:jdatasrc.obj
 0001:001338f0       _jpeg_calc_output_dimensions 101348f0 f   jpeg:jdmaster.obj
 0001:00133f60       _jpeg_core_output_dimensions 10134f60 f   jpeg:jdinput.obj
 0001:00135900       _jinit_memory_mgr          10136900 f   jpeg:jmemmgr.obj
 0001:00136e70       _jinit_compress_master     10137e70 f   jpeg:jcinit.obj
 0001:00138d80       _jinit_huff_decoder        10139d80 f   jpeg:jdhuff.obj
 0001:001398f0       _jinit_1pass_quantizer     1013a8f0 f   jpeg:jquant1.obj
 0001:00139fd0       _jinit_inverse_dct         1013afd0 f   jpeg:jddctmgr.obj
 0001:0013a380       _jinit_upsampler           1013b380 f   jpeg:jdsample.obj
 0001:0013b480       _jinit_arith_decoder       1013c480 f   jpeg:jdarith.obj
 0001:0013bf00       _jinit_color_deconverter   1013cf00 f   jpeg:jdcolor.obj
 0001:0013d190       _jinit_d_coef_controller   1013e190 f   jpeg:jdcoefct.obj
 0001:0013e6d0       _jinit_2pass_quantizer     1013f6d0 f   jpeg:jquant2.obj
 0001:0013ed60       _jinit_merged_upsampler    1013fd60 f   jpeg:jdmerge.obj
 0001:0013f3a0       _jinit_d_main_controller   101403a0 f   jpeg:jdmainct.obj
 0001:0013f740       _jinit_d_post_controller   10140740 f   jpeg:jdpostct.obj
 0001:0013ff40       _jinit_color_converter     10140f40 f   jpeg:jccolor.obj
 0001:001415a0       _jinit_arith_encoder       101425a0 f   jpeg:jcarith.obj
 0001:001416f0       _jinit_c_main_controller   101426f0 f   jpeg:jcmainct.obj
 0001:00141770       _jpeg_calc_jpeg_dimensions 10142770 f   jpeg:jcmaster.obj
 0001:00142a90       _jinit_c_master_control    10143a90 f   jpeg:jcmaster.obj
 0001:00143300       _jinit_c_coef_controller   10144300 f   jpeg:jccoefct.obj
 0001:001439a0       _jinit_c_prep_controller   101449a0 f   jpeg:jcprepct.obj
 0001:00144400       _jinit_forward_dct         10145400 f   jpeg:jcdctmgr.obj
 0001:00144c80       _jinit_downsampler         10145c80 f   jpeg:jcsample.obj
 0001:00146980       _jinit_huff_encoder        10147980 f   jpeg:jchuff.obj
 0001:00146a30       _jpeg_idct_islow           10147a30 f   jpeg:jidctint.obj
 0001:00146f30       _jpeg_idct_7x7             10147f30 f   jpeg:jidctint.obj
 0001:00148220       _jpeg_idct_6x6             10149220 f   jpeg:jidctint.obj
 0001:00148c50       _jpeg_idct_5x5             10149c50 f   jpeg:jidctint.obj
 0001:001493a0       _jpeg_idct_4x4             1014a3a0 f   jpeg:jidctint.obj
 0001:001497e0       _jpeg_idct_3x3             1014a7e0 f   jpeg:jidctint.obj
 0001:00149a10       _jpeg_idct_2x2             1014aa10 f   jpeg:jidctint.obj
 0001:00149ad0       _jpeg_idct_1x1             1014aad0 f   jpeg:jidctint.obj
 0001:00149b10       _jpeg_idct_9x9             1014ab10 f   jpeg:jidctint.obj
 0001:00149f60       _jpeg_idct_10x10           1014af60 f   jpeg:jidctint.obj
 0001:0014a480       _jpeg_idct_11x11           1014b480 f   jpeg:jidctint.obj
 0001:0014aae0       _jpeg_idct_12x12           1014bae0 f   jpeg:jidctint.obj
 0001:0014b0b0       _jpeg_idct_13x13           1014c0b0 f   jpeg:jidctint.obj
 0001:0014b800       _jpeg_idct_14x14           1014c800 f   jpeg:jidctint.obj
 0001:0014bef0       _jpeg_idct_15x15           1014cef0 f   jpeg:jidctint.obj
 0001:0014c670       _jpeg_idct_16x16           1014d670 f   jpeg:jidctint.obj
 0001:0014ced0       _jpeg_idct_16x8            1014ded0 f   jpeg:jidctint.obj
 0001:0014d5a0       _jpeg_idct_14x7            1014e5a0 f   jpeg:jidctint.obj
 0001:0014e670       _jpeg_idct_12x6            1014f670 f   jpeg:jidctint.obj
 0001:0014f150       _jpeg_idct_10x5            10150150 f   jpeg:jidctint.obj
 0001:0014fa50       _jpeg_idct_8x4             10150a50 f   jpeg:jidctint.obj
 0001:00150020       _jpeg_idct_6x3             10151020 f   jpeg:jidctint.obj
 0001:001504c0       _jpeg_idct_4x2             101514c0 f   jpeg:jidctint.obj
 0001:00150670       _jpeg_idct_2x1             10151670 f   jpeg:jidctint.obj
 0001:001506e0       _jpeg_idct_8x16            101516e0 f   jpeg:jidctint.obj
 0001:00150d10       _jpeg_idct_7x14            10151d10 f   jpeg:jidctint.obj
 0001:00151290       _jpeg_idct_6x12            10152290 f   jpeg:jidctint.obj
 0001:001516e0       _jpeg_idct_5x10            101526e0 f   jpeg:jidctint.obj
 0001:00152240       _jpeg_idct_4x8             10153240 f   jpeg:jidctint.obj
 0001:001529e0       _jpeg_idct_3x6             101539e0 f   jpeg:jidctint.obj
 0001:00152e80       _jpeg_idct_2x4             10153e80 f   jpeg:jidctint.obj
 0001:00153060       _jpeg_idct_1x2             10154060 f   jpeg:jidctint.obj
 0001:001530d0       _jpeg_idct_float           101540d0 f   jpeg:jidctflt.obj
 0001:00153560       _jpeg_idct_ifast           10154560 f   jpeg:jidctfst.obj
 0001:001539a0       _jpeg_fdct_islow           101549a0 f   jpeg:jfdctint.obj
 0001:001545f0       _jpeg_fdct_7x7             101555f0 f   jpeg:jfdctint.obj
 0001:00155750       _jpeg_fdct_6x6             10156750 f   jpeg:jfdctint.obj
 0001:001560e0       _jpeg_fdct_5x5             101570e0 f   jpeg:jfdctint.obj
 0001:001567c0       _jpeg_fdct_4x4             101577c0 f   jpeg:jfdctint.obj
 0001:00156b00       _jpeg_fdct_3x3             10157b00 f   jpeg:jfdctint.obj
 0001:00156cf0       _jpeg_fdct_2x2             10157cf0 f   jpeg:jfdctint.obj
 0001:00156d60       _jpeg_fdct_1x1             10157d60 f   jpeg:jfdctint.obj
 0001:00156d90       _jpeg_fdct_9x9             10157d90 f   jpeg:jfdctint.obj
 0001:00157aa0       _jpeg_fdct_10x10           10158aa0 f   jpeg:jfdctint.obj
 0001:00157e70       _jpeg_fdct_11x11           10158e70 f   jpeg:jfdctint.obj
 0001:001583e0       _jpeg_fdct_12x12           101593e0 f   jpeg:jfdctint.obj
 0001:00158a00       _jpeg_fdct_13x13           10159a00 f   jpeg:jfdctint.obj
 0001:00159190       _jpeg_fdct_14x14           1015a190 f   jpeg:jfdctint.obj
 0001:00159880       _jpeg_fdct_15x15           1015a880 f   jpeg:jfdctint.obj
 0001:00159fe0       _jpeg_fdct_16x16           1015afe0 f   jpeg:jfdctint.obj
 0001:0015a860       _jpeg_fdct_16x8            1015b860 f   jpeg:jfdctint.obj
 0001:0015b6f0       _jpeg_fdct_14x7            1015c6f0 f   jpeg:jfdctint.obj
 0001:0015c370       _jpeg_fdct_12x6            1015d370 f   jpeg:jfdctint.obj
 0001:0015cc70       _jpeg_fdct_10x5            1015dc70 f   jpeg:jfdctint.obj
 0001:0015d3b0       _jpeg_fdct_8x4             1015e3b0 f   jpeg:jfdctint.obj
 0001:0015d810       _jpeg_fdct_6x3             1015e810 f   jpeg:jfdctint.obj
 0001:0015dc00       _jpeg_fdct_4x2             1015ec00 f   jpeg:jfdctint.obj
 0001:0015dd50       _jpeg_fdct_2x1             1015ed50 f   jpeg:jfdctint.obj
 0001:0015dd90       _jpeg_fdct_8x16            1015ed90 f   jpeg:jfdctint.obj
 0001:0015e3e0       _jpeg_fdct_7x14            1015f3e0 f   jpeg:jfdctint.obj
 0001:0015e940       _jpeg_fdct_6x12            1015f940 f   jpeg:jfdctint.obj
 0001:0015ed90       _jpeg_fdct_5x10            1015fd90 f   jpeg:jfdctint.obj
 0001:0015f080       _jpeg_fdct_4x8             10160080 f   jpeg:jfdctint.obj
 0001:0015f9a0       _jpeg_fdct_3x6             101609a0 f   jpeg:jfdctint.obj
 0001:0015fe50       _jpeg_fdct_2x4             10160e50 f   jpeg:jfdctint.obj
 0001:0015ff90       _jpeg_fdct_1x2             10160f90 f   jpeg:jfdctint.obj
 0001:0015ffe0       _jpeg_fdct_float           10160fe0 f   jpeg:jfdctflt.obj
 0001:00161430       _jpeg_fdct_ifast           10162430 f   jpeg:jfdctfst.obj
 0001:00162350       ??0BaseExc@Iex@@QAE@PBD@Z  10163350 f   IlmBase:IexBaseExc.obj
 0001:001624b0       ??_GBaseExc@Iex@@UAEPAXI@Z 101634b0 f i IlmBase:IexBaseExc.obj
 0001:001624b0       ??_EBaseExc@Iex@@UAEPAXI@Z 101634b0 f i * CIL library *:* CIL module *
 0001:001624e0       ??0BaseExc@Iex@@QAE@ABV?$basic_string@DU?$char_traits@D@std@@V?$allocator@D@2@@std@@@Z 101634e0 f   IlmBase:IexBaseExc.obj
 0001:00162600       ??0BaseExc@Iex@@QAE@AAV?$basic_stringstream@DU?$char_traits@D@std@@V?$allocator@D@2@@std@@@Z 10163600 f   IlmBase:IexBaseExc.obj
 0001:00162710       ??0BaseExc@Iex@@QAE@ABV01@@Z 10163710 f   IlmBase:IexBaseExc.obj
 0001:00162780       ??1BaseExc@Iex@@UAE@XZ     10163780 f   IlmBase:IexBaseExc.obj
 0001:001627e0       ?what@BaseExc@Iex@@UBEPBDXZ 101637e0 f   IlmBase:IexBaseExc.obj
 0001:001627f0       ?assign@BaseExc@Iex@@QAEAAV12@AAV?$basic_stringstream@DU?$char_traits@D@std@@V?$allocator@D@2@@std@@@Z 101637f0 f   IlmBase:IexBaseExc.obj
 0001:00162870       ?iex_debugTrap@@YAXXZ      10163870 f   IlmBase:IexBaseExc.obj
 0001:00162890       ?str@?$basic_stringstream@DU?$char_traits@D@std@@V?$allocator@D@2@@std@@QBE?AV?$basic_string@DU?$char_traits@D@std@@V?$allocator@D@2@@2@XZ 10163890 f i IlmBase:IexBaseExc.obj
 0001:001628d0       ??1Data@TaskGroup@IlmThread@@QAE@XZ 101638d0 f   IlmBase:IlmThreadPool.obj
 0001:00162970       ??0Data@ThreadPool@IlmThread@@QAE@XZ 10163970 f   IlmBase:IlmThreadPool.obj
 0001:00162a50       ??1Data@ThreadPool@IlmThread@@QAE@XZ 10163a50 f   IlmBase:IlmThreadPool.obj
 0001:00162ba0       ?finish@Data@ThreadPool@IlmThread@@QAEXXZ 10163ba0 f   IlmBase:IlmThreadPool.obj
 0001:00162cf0       ??1Task@IlmThread@@UAE@XZ  10163cf0 f   IlmBase:IlmThreadPool.obj
 0001:00162d00       ??0TaskGroup@IlmThread@@QAE@XZ 10163d00 f   IlmBase:IlmThreadPool.obj
 0001:00162da0       ??1TaskGroup@IlmThread@@QAE@XZ 10163da0 f   IlmBase:IlmThreadPool.obj
 0001:00162dc0       ??0ThreadPool@IlmThread@@QAE@I@Z 10163dc0 f   IlmBase:IlmThreadPool.obj
 0001:00162e80       ??_EThreadPool@IlmThread@@UAEPAXI@Z 10163e80 f i * CIL library *:* CIL module *
 0001:00162e80       ??_GThreadPool@IlmThread@@UAEPAXI@Z 10163e80 f i IlmBase:IlmThreadPool.obj
 0001:00162ec0       ?addTask@ThreadPool@IlmThread@@QAEXPAVTask@2@@Z 10163ec0 f   IlmBase:IlmThreadPool.obj
 0001:00163000       ??1?$list@PAVWorkerThread@?A0x57506dde@IlmThread@@V?$allocator@PAVWorkerThread@?A0x57506dde@IlmThread@@@std@@@std@@QAE@XZ 10164000 f i IlmBase:IlmThreadPool.obj
 0001:00163000       ??1?$list@PAVTask@IlmThread@@V?$allocator@PAVTask@IlmThread@@@std@@@std@@QAE@XZ 10164000 f i IlmBase:IlmThreadPool.obj
 0001:00163040       ?_Buynode0@?$_List_alloc@$0A@U?$_List_base_types@PAVTask@IlmThread@@V?$allocator@PAVTask@IlmThread@@@std@@@std@@@std@@QAEPAU?$_List_node@PAVTask@IlmThread@@PAX@2@PAU32@0@Z 10164040 f i IlmBase:IlmThreadPool.obj
 0001:00163040       ?_Buynode0@?$_List_alloc@$0A@U?$_List_base_types@PAVWorkerThread@?A0x57506dde@IlmThread@@V?$allocator@PAVWorkerThread@?A0x57506dde@IlmThread@@@std@@@std@@@std@@QAEPAU?$_List_node@PAVWorkerThread@?A0x57506dde@IlmThread@@PAX@2@PAU32@0@Z 10164040 f i IlmBase:IlmThreadPool.obj
 0001:00163080       ??$_Buynode@ABQAVTask@IlmThread@@@?$_List_buy@PAVTask@IlmThread@@V?$allocator@PAVTask@IlmThread@@@std@@@std@@QAEPAU?$_List_node@PAVTask@IlmThread@@PAX@1@PAU21@0ABQAVTask@IlmThread@@@Z 10164080 f i IlmBase:IlmThreadPool.obj
 0001:001630a0       ?errorString@?A0x9cb9a63e@IlmThread@@YA?AV?$basic_string@DU?$char_traits@D@std@@V?$allocator@D@2@@std@@XZ 101640a0 f   IlmBase:IlmThreadSemaphoreWin32.obj
 0001:00163160       ??0Semaphore@IlmThread@@QAE@I@Z 10164160 f   IlmBase:IlmThreadSemaphoreWin32.obj
 0001:00163260       ??_ESemaphore@IlmThread@@UAEPAXI@Z 10164260 f i * CIL library *:* CIL module *
 0001:00163260       ??_GSemaphore@IlmThread@@UAEPAXI@Z 10164260 f i IlmBase:IlmThreadSemaphoreWin32.obj
 0001:00163290       ??1Semaphore@IlmThread@@UAE@XZ 10164290 f   IlmBase:IlmThreadSemaphoreWin32.obj
 0001:001632a0       ?wait@Semaphore@IlmThread@@QAEXXZ 101642a0 f   IlmBase:IlmThreadSemaphoreWin32.obj
 0001:00163360       ?post@Semaphore@IlmThread@@QAEXXZ 10164360 f   IlmBase:IlmThreadSemaphoreWin32.obj
 0001:00163480       ?throwErrnoExc@Iex@@YAXABV?$basic_string@DU?$char_traits@D@std@@V?$allocator@D@2@@std@@H@Z 10164480 f   IlmBase:IexThrowErrnoExc.obj
 0001:00164380       ??0EpermExc@Iex@@QAE@ABV01@@Z 10165380 f i IlmBase:IexThrowErrnoExc.obj
 0001:001643a0       ??0EnoentExc@Iex@@QAE@ABV01@@Z 101653a0 f i IlmBase:IexThrowErrnoExc.obj
 0001:001643c0       ??0EsrchExc@Iex@@QAE@ABV01@@Z 101653c0 f i IlmBase:IexThrowErrnoExc.obj
 0001:001643e0       ??0EintrExc@Iex@@QAE@ABV01@@Z 101653e0 f i IlmBase:IexThrowErrnoExc.obj
 0001:00164400       ??0EioExc@Iex@@QAE@ABV01@@Z 10165400 f i IlmBase:IexThrowErrnoExc.obj
 0001:00164420       ??0EnxioExc@Iex@@QAE@ABV01@@Z 10165420 f i IlmBase:IexThrowErrnoExc.obj
 0001:00164440       ??0E2bigExc@Iex@@QAE@ABV01@@Z 10165440 f i IlmBase:IexThrowErrnoExc.obj
 0001:00164460       ??0EnoexecExc@Iex@@QAE@ABV01@@Z 10165460 f i IlmBase:IexThrowErrnoExc.obj
 0001:00164480       ??0EbadfExc@Iex@@QAE@ABV01@@Z 10165480 f i IlmBase:IexThrowErrnoExc.obj
 0001:001644a0       ??0EchildExc@Iex@@QAE@ABV01@@Z 101654a0 f i IlmBase:IexThrowErrnoExc.obj
 0001:001644c0       ??0EagainExc@Iex@@QAE@ABV01@@Z 101654c0 f i IlmBase:IexThrowErrnoExc.obj
 0001:001644e0       ??0EnomemExc@Iex@@QAE@ABV01@@Z 101654e0 f i IlmBase:IexThrowErrnoExc.obj
 0001:00164500       ??0EaccesExc@Iex@@QAE@ABV01@@Z 10165500 f i IlmBase:IexThrowErrnoExc.obj
 0001:00164520       ??0EfaultExc@Iex@@QAE@ABV01@@Z 10165520 f i IlmBase:IexThrowErrnoExc.obj
 0001:00164540       ??0EbusyExc@Iex@@QAE@ABV01@@Z 10165540 f i IlmBase:IexThrowErrnoExc.obj
 0001:00164560       ??0EexistExc@Iex@@QAE@ABV01@@Z 10165560 f i IlmBase:IexThrowErrnoExc.obj
 0001:00164580       ??0ExdevExc@Iex@@QAE@ABV01@@Z 10165580 f i IlmBase:IexThrowErrnoExc.obj
 0001:001645a0       ??0EnodevExc@Iex@@QAE@ABV01@@Z 101655a0 f i IlmBase:IexThrowErrnoExc.obj
 0001:001645c0       ??0EnotdirExc@Iex@@QAE@ABV01@@Z 101655c0 f i IlmBase:IexThrowErrnoExc.obj
 0001:001645e0       ??0EisdirExc@Iex@@QAE@ABV01@@Z 101655e0 f i IlmBase:IexThrowErrnoExc.obj
 0001:00164600       ??0EinvalExc@Iex@@QAE@ABV01@@Z 10165600 f i IlmBase:IexThrowErrnoExc.obj
 0001:00164620       ??0EnfileExc@Iex@@QAE@ABV01@@Z 10165620 f i IlmBase:IexThrowErrnoExc.obj
 0001:00164640       ??0EmfileExc@Iex@@QAE@ABV01@@Z 10165640 f i IlmBase:IexThrowErrnoExc.obj
 0001:00164660       ??0EnottyExc@Iex@@QAE@ABV01@@Z 10165660 f i IlmBase:IexThrowErrnoExc.obj
 0001:00164680       ??0EtxtbsyExc@Iex@@QAE@ABV01@@Z 10165680 f i IlmBase:IexThrowErrnoExc.obj
 0001:001646a0       ??0EfbigExc@Iex@@QAE@ABV01@@Z 101656a0 f i IlmBase:IexThrowErrnoExc.obj
 0001:001646c0       ??0EnospcExc@Iex@@QAE@ABV01@@Z 101656c0 f i IlmBase:IexThrowErrnoExc.obj
 0001:001646e0       ??0EspipeExc@Iex@@QAE@ABV01@@Z 101656e0 f i IlmBase:IexThrowErrnoExc.obj
 0001:00164700       ??0ErofsExc@Iex@@QAE@ABV01@@Z 10165700 f i IlmBase:IexThrowErrnoExc.obj
 0001:00164720       ??0EmlinkExc@Iex@@QAE@ABV01@@Z 10165720 f i IlmBase:IexThrowErrnoExc.obj
 0001:00164740       ??0EpipeExc@Iex@@QAE@ABV01@@Z 10165740 f i IlmBase:IexThrowErrnoExc.obj
 0001:00164760       ??0EdomExc@Iex@@QAE@ABV01@@Z 10165760 f i IlmBase:IexThrowErrnoExc.obj
 0001:00164780       ??0ErangeExc@Iex@@QAE@ABV01@@Z 10165780 f i IlmBase:IexThrowErrnoExc.obj
 0001:001647a0       ??0EnomsgExc@Iex@@QAE@ABV01@@Z 101657a0 f i IlmBase:IexThrowErrnoExc.obj
 0001:001647c0       ??0EidrmExc@Iex@@QAE@ABV01@@Z 101657c0 f i IlmBase:IexThrowErrnoExc.obj
 0001:001647e0       ??0EdeadlkExc@Iex@@QAE@ABV01@@Z 101657e0 f i IlmBase:IexThrowErrnoExc.obj
 0001:00164800       ??0EnolckExc@Iex@@QAE@ABV01@@Z 10165800 f i IlmBase:IexThrowErrnoExc.obj
 0001:00164820       ??0EnostrExc@Iex@@QAE@ABV01@@Z 10165820 f i IlmBase:IexThrowErrnoExc.obj
 0001:00164840       ??0EnodataExc@Iex@@QAE@ABV01@@Z 10165840 f i IlmBase:IexThrowErrnoExc.obj
 0001:00164860       ??0EtimeExc@Iex@@QAE@ABV01@@Z 10165860 f i IlmBase:IexThrowErrnoExc.obj
 0001:00164880       ??0EnosrExc@Iex@@QAE@ABV01@@Z 10165880 f i IlmBase:IexThrowErrnoExc.obj
 0001:001648a0       ??0EnolinkExc@Iex@@QAE@ABV01@@Z 101658a0 f i IlmBase:IexThrowErrnoExc.obj
 0001:001648c0       ??0EprotoExc@Iex@@QAE@ABV01@@Z 101658c0 f i IlmBase:IexThrowErrnoExc.obj
 0001:001648e0       ??0EbadmsgExc@Iex@@QAE@ABV01@@Z 101658e0 f i IlmBase:IexThrowErrnoExc.obj
 0001:00164900       ??0EnametoolongExc@Iex@@QAE@ABV01@@Z 10165900 f i IlmBase:IexThrowErrnoExc.obj
 0001:00164920       ??0EoverflowExc@Iex@@QAE@ABV01@@Z 10165920 f i IlmBase:IexThrowErrnoExc.obj
 0001:00164940       ??0EilseqExc@Iex@@QAE@ABV01@@Z 10165940 f i IlmBase:IexThrowErrnoExc.obj
 0001:00164960       ??0EnosysExc@Iex@@QAE@ABV01@@Z 10165960 f i IlmBase:IexThrowErrnoExc.obj
 0001:00164980       ??0EloopExc@Iex@@QAE@ABV01@@Z 10165980 f i IlmBase:IexThrowErrnoExc.obj
 0001:001649a0       ??0EnotemptyExc@Iex@@QAE@ABV01@@Z 101659a0 f i IlmBase:IexThrowErrnoExc.obj
 0001:001649c0       ??0EnotsockExc@Iex@@QAE@ABV01@@Z 101659c0 f i IlmBase:IexThrowErrnoExc.obj
 0001:001649e0       ??0EdestaddrreqExc@Iex@@QAE@ABV01@@Z 101659e0 f i IlmBase:IexThrowErrnoExc.obj
 0001:00164a00       ??0EmsgsizeExc@Iex@@QAE@ABV01@@Z 10165a00 f i IlmBase:IexThrowErrnoExc.obj
 0001:00164a20       ??0EprototypeExc@Iex@@QAE@ABV01@@Z 10165a20 f i IlmBase:IexThrowErrnoExc.obj
 0001:00164a40       ??0EnoprotooptExc@Iex@@QAE@ABV01@@Z 10165a40 f i IlmBase:IexThrowErrnoExc.obj
 0001:00164a60       ??0EprotonosupportExc@Iex@@QAE@ABV01@@Z 10165a60 f i IlmBase:IexThrowErrnoExc.obj
 0001:00164a80       ??0EopnotsuppExc@Iex@@QAE@ABV01@@Z 10165a80 f i IlmBase:IexThrowErrnoExc.obj
 0001:00164aa0       ??0EafnosupportExc@Iex@@QAE@ABV01@@Z 10165aa0 f i IlmBase:IexThrowErrnoExc.obj
 0001:00164ac0       ??0EaddrinuseExc@Iex@@QAE@ABV01@@Z 10165ac0 f i IlmBase:IexThrowErrnoExc.obj
 0001:00164ae0       ??0EaddrnotavailExc@Iex@@QAE@ABV01@@Z 10165ae0 f i IlmBase:IexThrowErrnoExc.obj
 0001:00164b00       ??0EnetdownExc@Iex@@QAE@ABV01@@Z 10165b00 f i IlmBase:IexThrowErrnoExc.obj
 0001:00164b20       ??0EnetunreachExc@Iex@@QAE@ABV01@@Z 10165b20 f i IlmBase:IexThrowErrnoExc.obj
 0001:00164b40       ??0EnetresetExc@Iex@@QAE@ABV01@@Z 10165b40 f i IlmBase:IexThrowErrnoExc.obj
 0001:00164b60       ??0EconnabortedExc@Iex@@QAE@ABV01@@Z 10165b60 f i IlmBase:IexThrowErrnoExc.obj
 0001:00164b80       ??0EconnresetExc@Iex@@QAE@ABV01@@Z 10165b80 f i IlmBase:IexThrowErrnoExc.obj
 0001:00164ba0       ??0EnobufsExc@Iex@@QAE@ABV01@@Z 10165ba0 f i IlmBase:IexThrowErrnoExc.obj
 0001:00164bc0       ??0EisconnExc@Iex@@QAE@ABV01@@Z 10165bc0 f i IlmBase:IexThrowErrnoExc.obj
 0001:00164be0       ??0EnotconnExc@Iex@@QAE@ABV01@@Z 10165be0 f i IlmBase:IexThrowErrnoExc.obj
 0001:00164c00       ??0EtimedoutExc@Iex@@QAE@ABV01@@Z 10165c00 f i IlmBase:IexThrowErrnoExc.obj
 0001:00164c20       ??0EconnrefusedExc@Iex@@QAE@ABV01@@Z 10165c20 f i IlmBase:IexThrowErrnoExc.obj
 0001:00164c40       ??0EhostunreachExc@Iex@@QAE@ABV01@@Z 10165c40 f i IlmBase:IexThrowErrnoExc.obj
 0001:00164c60       ??0EalreadyExc@Iex@@QAE@ABV01@@Z 10165c60 f i IlmBase:IexThrowErrnoExc.obj
 0001:00164c80       ??0EinprogressExc@Iex@@QAE@ABV01@@Z 10165c80 f i IlmBase:IexThrowErrnoExc.obj
 0001:00164ca0       ??0EcanceledExc@Iex@@QAE@ABV01@@Z 10165ca0 f i IlmBase:IexThrowErrnoExc.obj
 0001:00164cc0       ??0EnotsupExc@Iex@@QAE@ABV01@@Z 10165cc0 f i IlmBase:IexThrowErrnoExc.obj
 0001:00164ce0       ?throwErrnoExc@Iex@@YAXXZ  10165ce0 f   IlmBase:IexThrowErrnoExc.obj
 0001:00164d40       ?find@?$basic_string@DU?$char_traits@D@std@@V?$allocator@D@2@@std@@QBEIPBDII@Z 10165d40 f i IlmBase:IexThrowErrnoExc.obj
 0001:00164dda       @__security_check_cookie@4 10165dda f   libcmt:secchk.obj
 0001:00164de9       _free                      10165de9 f   libcmt:free.obj
 0001:00164e21       _malloc                    10165e21 f   libcmt:malloc.obj
 0001:00164ec0       _strncmp                   10165ec0 f   libcmt:strncmp.obj
 0001:00164f38       ??3@YAXPAX@Z               10165f38 f   libcmt:delete.obj
 0001:00164f3d       ??1type_info@@UAE@XZ       10165f3d f   libcmt:typinfo.obj
 0001:00164f4b       ??8type_info@@QBE_NABV0@@Z 10165f4b f   libcmt:typinfo.obj
 0001:00164f69       ??_Etype_info@@UAEPAXI@Z   10165f69 f i libcmt:typinfo.obj
 0001:00164f69       ??_Gtype_info@@UAEPAXI@Z   10165f69 f i libcmt:typinfo.obj
 0001:00164f88       __fflush_nolock            10165f88 f   libcmt:fflush.obj
 0001:00164fce       __flush                    10165fce f   libcmt:fflush.obj
 0001:00165032       __flushall                 10166032 f   libcmt:fflush.obj
 0001:0016503b       _fflush                    1016603b f   libcmt:fflush.obj
 0001:00165178       __fsopen                   10166178 f   libcmt:fopen.obj
 0001:0016523c       _fopen                     1016623c f   libcmt:fopen.obj
 0001:00165251       _fprintf                   10166251 f   libcmt:fprintf.obj
 0001:00165363       ___raise_securityfailure   10166363 f   libcmt:gs_report.obj
 0001:001653a0       ___report_gsfailure        101663a0 f   libcmt:gs_report.obj
 0001:0016549b       ___report_rangecheckfailure 1016649b f   libcmt:gs_report.obj
 0001:001654a7       ___report_securityfailure  101664a7 f   libcmt:gs_report.obj
 0001:00165577       __fclose_nolock            10166577 f   libcmt:fclose.obj
 0001:001655e3       _fclose                    101665e3 f   libcmt:fclose.obj
 0001:00165660       _memmove                   10166660 f   libcmt:memmove.obj
 0001:00165ca4       ??_U@YAPAXI@Z              10166ca4 f   libcmt:new2.obj
 0001:00165cad       ___onexitinit              10166cad f   libcmt:onexit.obj
 0001:00165cdc       __onexit                   10166cdc f   libcmt:onexit.obj
 0001:00165dd8       _atexit                    10166dd8 f   libcmt:onexit.obj
 0001:00165ded       ??_V@YAXPAX@Z              10166ded f   libcmt:delete2.obj
 0001:00165df2       __purecall                 10166df2 f   libcmt:purevirt.obj
 0001:00165e14       ??0bad_alloc@std@@QAE@ABV01@@Z 10166e14 f i libcmt:new.obj
 0001:00165e2f       ??1bad_alloc@std@@UAE@XZ   10166e2f f i libcmt:new.obj
 0001:00165e3a       ??2@YAPAXI@Z               10166e3a f   libcmt:new.obj
 0001:00165e8b       ??_Gbad_alloc@std@@UAEPAXI@Z 10166e8b f i libcmt:new.obj
 0001:00165e8b       ??_Ebad_alloc@std@@UAEPAXI@Z 10166e8b f i libcmt:new.obj
 0001:00165eb0       _fputc                     10166eb0 f   libcmt:fputc.obj
 0001:00165fb1       _feof                      10166fb1 f   libcmt:feoferr.obj
 0001:00165fd7       _ferror                    10166fd7 f   libcmt:feoferr.obj
 0001:00165ffd       __vsprintf_l               10166ffd f   libcmt:vsprintf.obj
 0001:00166081       _vsprintf                  10167081 f   libcmt:vsprintf.obj
 0001:00166099       __wfopen                   10167099 f   libcmt:wfopen.obj
 0001:001660ae       __wfsopen                  101670ae f   libcmt:wfopen.obj
 0001:00166178       __fread_nolock_s           10167178 f   libcmt:fread.obj
 0001:0016633d       _fread                     1016733d f   libcmt:fread.obj
 0001:00166358       _fread_s                   10167358 f   libcmt:fread.obj
 0001:001663e9       __fwrite_nolock            101673e9 f   libcmt:fwrite.obj
 0001:00166542       _fwrite                    10167542 f   libcmt:fwrite.obj
 0001:001665c4       __ftell_nolock             101675c4 f   libcmt:ftell.obj
 0001:00166954       _ftell                     10167954 f   libcmt:ftell.obj
 0001:001669c0       __fseek_nolock             101679c0 f   libcmt:fseek.obj
 0001:00166a4f       _fseek                     10167a4f f   libcmt:fseek.obj
 0001:00166ad2       _atoi                      10167ad2 f   libcmt:atox.obj
 0001:00166adb       _atol                      10167adb f   libcmt:atox.obj
 0001:00166aef       ??0_LocaleUpdate@@QAE@PAUlocaleinfo_struct@@@Z 10167aef f i libcmt:strnicmp.obj
 0001:00166b77       __strnicmp                 10167b77 f   libcmt:strnicmp.obj
 0001:00166be2       __strnicmp_l               10167be2 f   libcmt:strnicmp.obj
 0001:00166c93       _frexp                     10167c93 f   libcmt:frexp.obj
 0001:00166d70       _longjmp                   10167d70 f   libcmt:longjmp.obj
 0001:00166e21       __wcsicmp                  10167e21 f   libcmt:wcsicmp.obj
 0001:00166eb4       __wcsicmp_l                10167eb4 f   libcmt:wcsicmp.obj
 0001:00166f8f       __mbstowcs_l_helper        10167f8f f   libcmt:mbstowcs.obj
 0001:001670f0       __mbstowcs_s_l             101680f0 f   libcmt:mbstowcs.obj
 0001:001671ce       _mbstowcs_s                101681ce f   libcmt:mbstowcs.obj
 0001:001671ec       _fgetc                     101681ec f   libcmt:fgetc.obj
 0001:001672e5       __isalnum_l                101682e5 f i libcmt:_ctype.obj
 0001:0016733d       __isalpha_l                1016833d f i libcmt:_ctype.obj
 0001:00167395       __isdigit_l                10168395 f i libcmt:_ctype.obj
 0001:001673e7       __islower_l                101683e7 f i libcmt:_ctype.obj
 0001:00167439       __isprint_l                10168439 f i libcmt:_ctype.obj
 0001:00167491       __isspace_l                10168491 f i libcmt:_ctype.obj
 0001:001674e3       __isupper_l                101684e3 f i libcmt:_ctype.obj
 0001:00167535       __isxdigit_l               10168535 f i libcmt:_ctype.obj
 0001:0016758d       _isalnum                   1016858d f i libcmt:_ctype.obj
 0001:001675ba       _isalpha                   101685ba f i libcmt:_ctype.obj
 0001:001675e7       _isdigit                   101685e7 f i libcmt:_ctype.obj
 0001:00167612       _islower                   10168612 f i libcmt:_ctype.obj
 0001:0016763d       _isprint                   1016863d f i libcmt:_ctype.obj
 0001:0016766a       _isspace                   1016866a f i libcmt:_ctype.obj
 0001:00167695       _isupper                   10168695 f i libcmt:_ctype.obj
 0001:001676c0       _isxdigit                  101686c0 f i libcmt:_ctype.obj
 0001:001676ed       __wcstombs_l_helper        101686ed f   libcmt:wcstombs.obj
 0001:00167954       __wcstombs_s_l             10168954 f   libcmt:wcstombs.obj
 0001:00167a1f       _wcstombs                  10168a1f f   libcmt:wcstombs.obj
 0001:00167a37       __strdup                   10168a37 f   libcmt:strdup.obj
 0001:00167a87       _sprintf                   10168a87 f   libcmt:sprintf.obj
 0001:00167b0b       _sprintf_s                 10168b0b f   libcmt:sprintf.obj
 0001:00167b27       __Strftime_l               10168b27 f   libcmt:strftime.obj
 0001:00167c4a       _strftime                  10168c4a f   libcmt:strftime.obj
 0001:00167c67       ___tzset                   10168c67 f   libcmt:tzset.obj
 0001:00167cb7       __isindst                  10168cb7 f   libcmt:tzset.obj
 0001:00167ee5       __tzset                    10168ee5 f   libcmt:tzset.obj
 0001:00168433       __localtime64              10169433 f   libcmt:loctim64.obj
 0001:00168458       __localtime64_s            10169458 f   libcmt:loctim64.obj
 0001:001686d2       __time64                   101696d2 f   libcmt:time64.obj
 0001:00168949       _strtol                    10169949 f   libcmt:strtol.obj
 0001:00168973       _strtoul                   10169973 f   libcmt:strtol.obj
 0001:0016899d       __CRT_INIT@12              1016999d f   libcmt:dllcrt0.obj
 0001:00168b0f       __DllMainCRTStartup@12     10169b0f f   libcmt:dllcrt0.obj
 0001:00168c40       ___DllXcptFilter           10169c40 f   libcmt:dllcrt0.obj
 0001:00168c65       ___doserrno                10169c65 f   libcmt:dosmap.obj
 0001:00168c78       __dosmaperr                10169c78 f   libcmt:dosmap.obj
 0001:00168c99       __errno                    10169c99 f   libcmt:dosmap.obj
 0001:00168cac       __get_errno_from_oserr     10169cac f   libcmt:dosmap.obj
 0001:00168ced       __heap_init                10169ced f   libcmt:heapinit.obj
 0001:00168d02       __heap_term                10169d02 f   libcmt:heapinit.obj
 0001:00168d0a       __callnewh                 10169d0a f   libcmt:handler.obj
 0001:00168d30       __initp_heap_handler       10169d30 f   libcmt:handler.obj
 0001:00168d3d       ___copy_path_to_wide_string 10169d3d f   libcmt:crt0dat.obj
 0001:00168def       ___crtCorExitProcess       10169def f   libcmt:crt0dat.obj
 0001:00168e23       ___crtExitProcess          10169e23 f   libcmt:crt0dat.obj
 0001:00168e39       ___freeCrtMemory           10169e39 f   libcmt:crt0dat.obj
 0001:00168f46       __amsg_exit                10169f46 f   libcmt:crt0dat.obj
 0001:00168f62       __cexit                    10169f62 f   libcmt:crt0dat.obj
 0001:00168f71       __cinit                    10169f71 f   libcmt:crt0dat.obj
 0001:00168ff5       __exit                     10169ff5 f   libcmt:crt0dat.obj
 0001:00169009       __init_pointers            1016a009 f   libcmt:crt0dat.obj
 0001:00169077       __initterm_e               1016a077 f   libcmt:crt0dat.obj
 0001:00169099       __lockexit                 1016a099 f   libcmt:crt0dat.obj
 0001:001690a2       __unlockexit               1016a0a2 f   libcmt:crt0dat.obj
 0001:001691da       _exit                      1016a1da f   libcmt:crt0dat.obj
 0001:001691ee       __FF_MSGBANNER             1016a1ee f   libcmt:crt0msg.obj
 0001:00169227       __GET_RTERRMSG             1016a227 f   libcmt:crt0msg.obj
 0001:0016924b       __NMSG_WRITE               1016a24b f   libcmt:crt0msg.obj
 0001:00169410       _strcmp                    1016a410 f   libcmt:strcmp.obj
 0001:0016949c       ?_Type_info_dtor@type_info@@CAXPAV1@@Z 1016a49c f   libcmt:typname.obj
 0001:0016950d       __fileno                   1016a50d f   libcmt:fileno.obj
 0001:00169531       ___initstdio               1016a531 f   libcmt:_file.obj
 0001:001695a4       ___endstdio                1016a5a4 f   libcmt:_file.obj
 0001:001695cb       ___iob_func                1016a5cb f   libcmt:_file.obj
 0001:001695d1       __lock_file                1016a5d1 f   libcmt:_file.obj
 0001:00169610       __lock_file2               1016a610 f   libcmt:_file.obj
 0001:00169640       __unlock_file              1016a640 f   libcmt:_file.obj
 0001:0016967a       __unlock_file2             1016a67a f   libcmt:_file.obj
 0001:001696a7       __commit                   1016a6a7 f   libcmt:commit.obj
 0001:00169790       __write                    1016a790 f   libcmt:write.obj
 0001:0016987f       __write_nolock             1016a87f f   libcmt:write.obj
 0001:0016a0e4       __lock                     1016b0e4 f   libcmt:mlock.obj
 0001:0016a118       __mtdeletelocks            1016b118 f   libcmt:mlock.obj
 0001:0016a16c       __mtinitlocknum            1016b16c f   libcmt:mlock.obj
 0001:0016a215       __mtinitlocks              1016b215 f   libcmt:mlock.obj
 0001:0016a24e       __unlock                   1016b24e f   libcmt:mlock.obj
 0001:0016a270       __SEH_prolog4              1016b270 f   libcmt:sehprolg4.obj
 0001:0016a2b5       __SEH_epilog4              1016b2b5 f   libcmt:sehprolg4.obj
 0001:0016a2d0       __except_handler4          1016b2d0 f   libcmt:chandler4.obj
 0001:0016a464       __call_reportfault         1016b464 f   libcmt:invarg.obj
 0001:0016a589       __initp_misc_invarg        1016b589 f   libcmt:invarg.obj
 0001:0016a596       __invalid_parameter        1016b596 f   libcmt:invarg.obj
 0001:0016a5c1       __invalid_parameter_noinfo 1016b5c1 f   libcmt:invarg.obj
 0001:0016a5d1       __invoke_watson            1016b5d1 f   libcmt:invarg.obj
 0001:0016a5fc       __getstream                1016b5fc f   libcmt:stream.obj
 0001:0016a71b       __openfile                 1016b71b f   libcmt:_open.obj
 0001:0016a9a0       __local_unwind4            1016b9a0 f   libcmt:exsup4.obj
 0001:0016aa76       __seh_longjmp_unwind4@4    1016ba76 f   libcmt:exsup4.obj
 0001:0016aa92       @_EH4_CallFilterFunc@8     1016ba92 f   libcmt:exsup4.obj
 0001:0016aaa9       @_EH4_TransferToHandler@8  1016baa9 f   libcmt:exsup4.obj
 0001:0016aac2       @_EH4_GlobalUnwind2@8      1016bac2 f   libcmt:exsup4.obj
 0001:0016aadb       @_EH4_LocalUnwind@16       1016badb f   libcmt:exsup4.obj
 0001:0016aaf2       _vfprintf                  1016baf2 f   libcmt:vfprintf.obj
 0001:0016ab0f       _vfprintf_helper           1016bb0f f   libcmt:vfprintf.obj
 0001:0016ac20       __ftbuf                    1016bc20 f   libcmt:_sftbuf.obj
 0001:0016ac51       __stbuf                    1016bc51 f   libcmt:_sftbuf.obj
 0001:0016acf7       __output_l                 1016bcf7 f   libcmt:output.obj
 0001:0016b8eb       __ioinit                   1016c8eb f   libcmt:ioinit.obj
 0001:0016bb9f       __ioterm                   1016cb9f f   libcmt:ioinit.obj
 0001:0016bbf1       __crt_debugger_hook        1016cbf1 f   libcmt:dbghook.obj
 0001:0016bbf9       ___crtFlsAlloc             1016cbf9 f   libcmt:winapisupp.obj
 0001:0016bc17       ___crtFlsFree              1016cc17 f   libcmt:winapisupp.obj
 0001:0016bc36       ___crtFlsGetValue          1016cc36 f   libcmt:winapisupp.obj
 0001:0016bc55       ___crtFlsSetValue          1016cc55 f   libcmt:winapisupp.obj
 0001:0016bc77       ___crtInitializeCriticalSectionEx 1016cc77 f   libcmt:winapisupp.obj
 0001:0016bca5       ___crtIsPackagedApp        1016cca5 f   libcmt:winapisupp.obj
 0001:0016bce5       ___crtLoadWinApiPointers   1016cce5 f   libcmt:winapisupp.obj
 0001:0016bf70       ___crtSleep                1016cf70 f   libcmt:winapisupp.obj
 0001:0016bf7e       ___crtTerminateProcess     1016cf7e f   libcmt:winapisupp.obj
 0001:0016bf93       ___crtUnhandledException   1016cf93 f   libcmt:winapisupp.obj
 0001:0016bfa9       __close                    1016cfa9 f   libcmt:close.obj
 0001:0016c084       __close_nolock             1016d084 f   libcmt:close.obj
 0001:0016c11e       __freebuf                  1016d11e f   libcmt:_freebuf.obj
 0001:0016c14e       ___isa_available_init      1016d14e f   libcmt:cpu_disp.obj
 0001:0016c2c7       __msize                    1016d2c7 f   libcmt:msize.obj
 0001:0016c2f8       __calloc_crt               1016d2f8 f   libcmt:crtheap.obj
 0001:0016c340       __malloc_crt               1016d340 f   libcmt:crtheap.obj
 0001:0016c387       __realloc_crt              1016d387 f   libcmt:crtheap.obj
 0001:0016c3d1       __recalloc_crt             1016d3d1 f   libcmt:crtheap.obj
 0001:0016c41f       __set_abort_behavior       1016d41f f   libcmt:abort.obj
 0001:0016c43e       _abort                     1016d43e f   libcmt:abort.obj
 0001:0016c481       ___getlocaleinfo           1016d481 f   libcmt:inithelp.obj
 0001:0016c65a       __initp_misc_purevirt      1016d65a f   libcmt:inithelp.obj
 0001:0016c670       __CIsqrt                   1016d670 f   libcmt:sqrt.obj
 0001:0016c684       _sqrt                      1016d684     libcmt:sqrt.obj
 0001:0016c72a       __decomp                   1016d72a f   libcmt:util.obj
 0001:0016c7fc       __set_exp                  1016d7fc f   libcmt:util.obj
 0001:0016c82b       __sptype                   1016d82b f   libcmt:util.obj
 0001:0016c886       __errcode                  1016d886 f   libcmt:fpexcept.obj
 0001:0016c8b8       __except1                  1016d8b8 f   libcmt:fpexcept.obj
 0001:0016c980       __handle_exc               1016d980 f   libcmt:fpexcept.obj
 0001:0016cb5e       __handle_qnan1             1016db5e f   libcmt:fpexcept.obj
 0001:0016cbae       __raise_exc                1016dbae f   libcmt:fpexcept.obj
 0001:0016cbcf       __raise_exc_ex             1016dbcf f   libcmt:fpexcept.obj
 0001:0016ceb4       __set_errno_from_matherr   1016deb4 f   libcmt:fpexcept.obj
 0001:0016cee1       __umatherr                 1016dee1 f   libcmt:fpexcept.obj
 0001:0016cf81       ___set_fpsr_sse2           1016df81 f   libcmt:fpctrl.obj
 0001:0016cff7       __clrfp                    1016dff7 f   libcmt:fpctrl.obj
 0001:0016d008       __ctrlfp                   1016e008 f   libcmt:fpctrl.obj
 0001:0016d033       __set_statfp               1016e033 f   libcmt:fpctrl.obj
 0001:0016d08b       __statfp                   1016e08b f   libcmt:fpctrl.obj
 0001:0016d09b       __fpmath                   1016e09b f   libcmt:fpinit.obj
 0001:0016d0b2       __cfltcvt_init             1016e0b2 f   libcmt:fpinit.obj
 0001:0016d112       ??0__non_rtti_object@std@@QAE@ABV01@@Z 1016e112 f   libcmt:stdexcpt.obj
 0001:0016d12d       ??0__non_rtti_object@std@@QAE@PBD@Z 1016e12d f   libcmt:stdexcpt.obj
 0001:0016d148       ??0bad_cast@std@@QAE@ABV01@@Z 1016e148 f   libcmt:stdexcpt.obj
 0001:0016d163       ??0bad_cast@std@@QAE@PBD@Z 1016e163 f   libcmt:stdexcpt.obj
 0001:0016d17f       ??0bad_typeid@std@@QAE@ABV01@@Z 1016e17f f   libcmt:stdexcpt.obj
 0001:0016d19a       ??0bad_typeid@std@@QAE@PBD@Z 1016e19a f   libcmt:stdexcpt.obj
 0001:0016d1b6       ??0exception@std@@QAE@ABQBD@Z 1016e1b6 f   libcmt:stdexcpt.obj
 0001:0016d1db       ??0exception@std@@QAE@ABQBDH@Z 1016e1db f   libcmt:stdexcpt.obj
 0001:0016d1f6       ??0exception@std@@QAE@ABV01@@Z 1016e1f6 f   libcmt:stdexcpt.obj
 0001:0016d219       ??0exception@std@@QAE@XZ   1016e219 f   libcmt:stdexcpt.obj
 0001:0016d22a       ??1__non_rtti_object@std@@UAE@XZ 1016e22a f   libcmt:stdexcpt.obj
 0001:0016d22a       ??1exception@std@@UAE@XZ   1016e22a f   libcmt:stdexcpt.obj
 0001:0016d22a       ??1bad_cast@std@@UAE@XZ    1016e22a f   libcmt:stdexcpt.obj
 0001:0016d235       ??4exception@std@@QAEAAV01@ABV01@@Z 1016e235 f   libcmt:stdexcpt.obj
 0001:0016d268       ??_Gbad_typeid@std@@UAEPAXI@Z 1016e268 f i libcmt:stdexcpt.obj
 0001:0016d268       ??_G__non_rtti_object@std@@UAEPAXI@Z 1016e268 f i libcmt:stdexcpt.obj
 0001:0016d268       ??_Ebad_typeid@std@@UAEPAXI@Z 1016e268 f i libcmt:stdexcpt.obj
 0001:0016d268       ??_Gbad_cast@std@@UAEPAXI@Z 1016e268 f i libcmt:stdexcpt.obj
 0001:0016d268       ??_Eexception@std@@UAEPAXI@Z 1016e268 f i libcmt:stdexcpt.obj
 0001:0016d268       ??_Gexception@std@@UAEPAXI@Z 1016e268 f i libcmt:stdexcpt.obj
 0001:0016d268       ??_Ebad_cast@std@@UAEPAXI@Z 1016e268 f i libcmt:stdexcpt.obj
 0001:0016d268       ??_E__non_rtti_object@std@@UAEPAXI@Z 1016e268 f i libcmt:stdexcpt.obj
 0001:0016d28d       ?_Copy_str@exception@std@@AAEXPBD@Z 1016e28d f   libcmt:stdexcpt.obj
 0001:0016d2cb       ?_Tidy@exception@std@@AAEXXZ 1016e2cb f   libcmt:stdexcpt.obj
 0001:0016d2e7       ?what@exception@std@@UBEPBDXZ 1016e2e7 f   libcmt:stdexcpt.obj
 0001:0016d2f4       __CxxThrowException@8      1016e2f4 f   libcmt:throw.obj
 0001:0016d357       __flsbuf                   1016e357 f   libcmt:_flsbuf.obj
 0001:0016d4a6       __wopenfile                1016e4a6 f   libcmt:_wopen.obj
 0001:0016d744       __filbuf                   1016e744 f   libcmt:_filbuf.obj
 0001:0016d865       _memcpy_s                  1016e865 f   libcmt:memcpy_s.obj
 0001:0016d8f0       _memset                    1016e8f0 f   libcmt:memset.obj
 0001:0016d980       __read                     1016e980 f   libcmt:read.obj
 0001:0016da94       __read_nolock              1016ea94 f   libcmt:read.obj
 0001:0016e230       _memcpy                    1016f230 f   libcmt:memcpy.obj
 0001:0016e874       __lseek                    1016f874 f   libcmt:lseek.obj
 0001:0016e963       __lseek_nolock             1016f963 f   libcmt:lseek.obj
 0001:0016ea0a       __lseeki64                 1016fa0a f   libcmt:lseeki64.obj
 0001:0016eb06       __lseeki64_nolock          1016fb06 f   libcmt:lseeki64.obj
 0001:0016eb80       __alloca_probe             1016fb80 f   libcmt:chkstk.obj
 0001:0016eb80       __chkstk                   1016fb80 f   libcmt:chkstk.obj
 0001:0016ebb0       ___ascii_strnicmp          1016fbb0 f   libcmt:_strnicm.obj
 0001:0016ec11       ___addlocaleref            1016fc11 f   libcmt:localref.obj
 0001:0016eca6       ___freetlocinfo            1016fca6 f   libcmt:localref.obj
 0001:0016ee00       ___removelocaleref         1016fe00 f   libcmt:localref.obj
 0001:0016eea0       ___updatetlocinfo          1016fea0 f   libcmt:localref.obj
 0001:0016ef20       __updatetlocinfoEx_nolock  1016ff20 f   libcmt:localref.obj
 0001:0016ef6b       ___initmbctable            1016ff6b f   libcmt:mbctype.obj
 0001:0016f222       ___updatetmbcinfo          10170222 f   libcmt:mbctype.obj
 0001:0016f2c8       __setmbcp                  101702c8 f   libcmt:mbctype.obj
 0001:0016f470       __setmbcp_nolock           10170470 f   libcmt:mbctype.obj
 0001:0016f65b       __tolower_l                1017065b f   libcmt:tolower.obj
 0001:0016f79e       _tolower                   1017079e f   libcmt:tolower.obj
 0001:0016f7ca       __freefls@4                101707ca f   libcmt:tidtable.obj
 0001:0016f8ff       __freeptd                  101708ff f   libcmt:tidtable.obj
 0001:0016f935       __getptd                   10170935 f   libcmt:tidtable.obj
 0001:0016f94d       __getptd_noexit            1017094d f   libcmt:tidtable.obj
 0001:0016f9bc       __initptd                  101709bc f   libcmt:tidtable.obj
 0001:0016fa6f       __mtinit                   10170a6f f   libcmt:tidtable.obj
 0001:0016fae5       __mtterm                   10170ae5 f   libcmt:tidtable.obj
 0001:0016fb02       __locterm                  10170b02 f   libcmt:wsetloca.obj
 0001:0016fb54       ___copy_locale_name        10170b54 f   libcmt:wsetloca.obj
 0001:0016fbb8       ___lc_lctowcs              10170bb8 f   libcmt:wsetloca.obj
 0001:0016fc26       ___lc_wcstolc              10170c26 f   libcmt:wsetloca.obj
 0001:0016fd7e       __expandlocale             10170d7e f   libcmt:wsetloca.obj
 0001:00170075       __wcscats                  10171075 f   libcmt:wsetloca.obj
 0001:001700b4       __wsetlocale               101710b4 f   libcmt:wsetloca.obj
 0001:001709e0       __global_unwind2           101719e0 f   libcmt:exsup.obj
 0001:00170a45       __local_unwind2            10171a45 f   libcmt:exsup.obj
 0001:00170ac9       __abnormal_termination     10171ac9 f   libcmt:exsup.obj
 0001:00170aec       __NLG_Notify1              10171aec f   libcmt:exsup.obj
 0001:00170af5       __NLG_Notify               10171af5 f   libcmt:exsup.obj
 0001:00170b0c       __NLG_Dispatch2            10171b0c     libcmt:exsup.obj
 0001:00170b0c       __NLG_Dispatch             10171b0c     libcmt:exsup.obj
 0001:00170b14       __NLG_Call                 10171b14 f   libcmt:exsup.obj
 0001:00170b16       __NLG_Return2              10171b16     libcmt:exsup.obj
 0001:00170b17       __rt_probe_read4@4         10171b17 f   libcmt:sehsupp.obj
 0001:00170b5b       __towlower_l               10171b5b f   libcmt:towlower.obj
 0001:00170c0c       __isleadbyte_l             10171c0c f i libcmt:_wctype.obj
 0001:00170c46       _isleadbyte                10171c46 f i libcmt:_wctype.obj
 0001:00170c60       _strlen                    10171c60 f   libcmt:strlen.obj
 0001:00170ceb       __isctype_l                10171ceb f   libcmt:isctype.obj
 0001:00170d9c       _strcpy_s                  10171d9c f   libcmt:strcpy_s.obj
 0001:00170df1       __vsnprintf_helper         10171df1 f   libcmt:vsnprnc.obj
 0001:00170ebb       __vsprintf_s_l             10171ebb f   libcmt:vsnprnc.obj
 0001:00171949       __Wcsftime_l               10172949 f   libcmt:wcsftime.obj
 0001:00171a8c       __freea                    10172a8c f i libcmt:wcsftime.obj
 0001:00171aaa       ___daylight                10172aaa f   libcmt:timeset.obj
 0001:00171ab0       ___dstbias                 10172ab0 f   libcmt:timeset.obj
 0001:00171ab6       ___timezone                10172ab6 f   libcmt:timeset.obj
 0001:00171abc       ___tzname                  10172abc f   libcmt:timeset.obj
 0001:00171ac2       __get_daylight             10172ac2 f   libcmt:timeset.obj
 0001:00171aec       __get_dstbias              10172aec f   libcmt:timeset.obj
 0001:00171b16       __get_timezone             10172b16 f   libcmt:timeset.obj
 0001:00171b40       _strncpy_s                 10172b40 f   libcmt:strncpy_s.obj
 0001:00171be4       __getenv_helper_nolock     10172be4 f   libcmt:getenv.obj
 0001:00171c68       _getenv                    10172c68 f   libcmt:getenv.obj
 0001:00171ce8       ____lc_codepage_func       10172ce8 f   libcmt:initctyp.obj
 0001:00171d0e       ____lc_locale_name_func    10172d0e f   libcmt:initctyp.obj
 0001:00171d36       ____mb_cur_max_func        10172d36 f   libcmt:initctyp.obj
 0001:00171d5c       ___init_ctype              10172d5c f   libcmt:initctyp.obj
 0001:001720f4       __gmtime64                 101730f4 f   libcmt:gmtime64.obj
 0001:00172119       __gmtime64_s               10173119 f   libcmt:gmtime64.obj
 0001:00172344       ___getgmtimebuf            10173344 f   libcmt:gmtime.obj
 0001:00172380       __alldiv                   10173380 f   libcmt:lldiv.obj
 0001:00172430       __allrem                   10173430 f   libcmt:llrem.obj
 0001:001724f0       __aulldiv                  101734f0 f   libcmt:ulldiv.obj
 0001:00172558       __XcptFilter               10173558 f   libcmt:winxfltr.obj
 0001:001726b3       ___CppXcptFilter           101736b3 f   libcmt:winxfltr.obj
 0001:001726d1       __setargv                  101736d1 f   libcmt:stdargv.obj
 0001:00172900       __setenvp                  10173900 f   libcmt:stdenvp.obj
 0001:001729e1       ___security_init_cookie    101739e1 f   libcmt:gs_support.obj
 0001:00172a7d       ___crtGetEnvironmentStringsA 10173a7d f   libcmt:a_env.obj
 0001:00172b0a       __RTC_Initialize           10173b0a f   libcmt:initsect.obj
 0001:00172b2a       __RTC_Terminate            10173b2a f   libcmt:initsect.obj
 0001:00172b50       __FindPESection            10173b50 f   libcmt:pesect.obj
 0001:00172ba0       __IsNonwritableInCurrentImage 10173ba0 f   libcmt:pesect.obj
 0001:00172c60       __ValidateImageBase        10173c60 f   libcmt:pesect.obj
 0001:00172c91       __initp_misc_cfltcvt_tab   10173c91 f   libcmt:cmiscdat.obj
 0001:00172cb0       ?_inconsistency@@YAXXZ     10173cb0 f   libcmt:hooks.obj
 0001:00172ce8       ?terminate@@YAXXZ          10173ce8 f   libcmt:hooks.obj
 0001:00172d1c       ?unexpected@@YAXXZ         10173d1c f   libcmt:hooks.obj
 0001:00172d2f       __initp_eh_hooks           10173d2f f   libcmt:hooks.obj
 0001:00172d40       ___get_sigabrt             10173d40 f   libcmt:winsig.obj
 0001:00172d4d       __initp_misc_winsig        10173d4d f   libcmt:winsig.obj
 0001:00172d69       _raise                     10173d69 f   libcmt:winsig.obj
 0001:00172f5e       __initp_misc_rand_s        10173f5e f   libcmt:rand_s.obj
 0001:00172f6b       _wcscat_s                  10173f6b f   libcmt:wcscat_s.obj
 0001:00172fd7       _wcscpy_s                  10173fd7 f   libcmt:wcscpy_s.obj
 0001:00173033       _wcslen                    10174033 f   libcmt:wcslen.obj
 0001:0017304c       _wcsncpy_s                 1017404c f   libcmt:wcsncpy_s.obj
 0001:0017310a       __set_error_mode           1017410a f   libcmt:errmode.obj
 0001:0017314a       ___crtMessageBoxW          1017414a f   libcmt:crtmboxw.obj
 0001:00173330       __fcloseall                10174330 f   libcmt:closeall.obj
 0001:001733cd       ___lock_fhandle            101743cd f   libcmt:osfinfo.obj
 0001:0017345b       __alloc_osfhnd             1017445b f   libcmt:osfinfo.obj
 0001:00173604       __free_osfhnd              10174604 f   libcmt:osfinfo.obj
 0001:0017368a       __get_osfhandle            1017468a f   libcmt:osfinfo.obj
 0001:001736f1       __set_osfhnd               101746f1 f   libcmt:osfinfo.obj
 0001:00173773       __unlock_fhandle           10174773 f   libcmt:osfinfo.obj
 0001:00173799       __isatty                   10174799 f   libcmt:isatty.obj
 0001:001737ed       __mbtowc_l                 101747ed f   libcmt:mbtowc.obj
 0001:001738e2       _mbtowc                    101748e2 f   libcmt:mbtowc.obj
 0001:001738fa       __putwch_nolock            101748fa f   libcmt:putwch.obj
 0001:0017393d       __sopen_helper             1017493d f   libcmt:open.obj
 0001:00173a06       __sopen_nolock             10174a06 f   libcmt:open.obj
 0001:00173a54       __sopen_s                  10174a54 f   libcmt:open.obj
 0001:00173a72       __mbsnbcmp                 10174a72 f   libcmt:mbsnbcmp.obj
 0001:00173a8a       __mbsnbcmp_l               10174a8a f   libcmt:mbsnbcmp.obj
 0001:00173ba1       __mbsnbicmp                10174ba1 f   libcmt:mbsnbicm.obj
 0001:00173bb9       __mbsnbicmp_l              10174bb9 f   libcmt:mbsnbicm.obj
 0001:00173d74       __output_s_l               10174d74 f   libcmt:outputs.obj
 0001:00174988       __get_printf_count_output  10175988 f   libcmt:printf.obj
 0001:0017499d       __wctomb_s_l               1017599d f   libcmt:wctomb.obj
 0001:00174ac1       _wctomb_s                  10175ac1 f   libcmt:wctomb.obj
 0001:00174ae0       __aulldvrm                 10175ae0 f   libcmt:ulldvrm.obj
 0001:00174b75       _realloc                   10175b75 f   libcmt:realloc.obj
 0001:00174c20       __recalloc                 10175c20 f   libcmt:recalloc.obj
 0001:00174c89       __calloc_impl              10175c89 f   libcmt:calloc_impl.obj
 0001:00174de7       ___crtGetLocaleInfoA       10175de7 f   libcmt:a_loc.obj
 0001:00174e21       _GetTableIndexFromLcid     10175e21 f   libcmt:winapinls.obj
 0001:00174e56       _GetTableIndexFromLocaleName 10175e56 f   libcmt:winapinls.obj
 0001:00174ea4       ___crtCompareStringEx      10175ea4 f   libcmt:winapinls.obj
 0001:00174ef0       ___crtDownlevelLCIDToLocaleName 10175ef0 f   libcmt:winapinls.obj
 0001:00174f6c       ___crtDownlevelLocaleNameToLCID 10175f6c f   libcmt:winapinls.obj
 0001:00174faa       ___crtEnumSystemLocalesEx  10175faa f   libcmt:winapinls.obj
 0001:00174fe7       ___crtGetDateFormatEx      10175fe7 f   libcmt:winapinls.obj
 0001:00175030       ___crtGetLocaleInfoEx      10176030 f   libcmt:winapinls.obj
 0001:0017505f       ___crtGetTimeFormatEx      1017605f f   libcmt:winapinls.obj
 0001:00175094       ___crtGetUserDefaultLocaleName 10176094 f   libcmt:winapinls.obj
 0001:001750bf       ___crtIsValidLocaleName    101760bf f   libcmt:winapinls.obj
 0001:001750ea       ___crtLCMapStringEx        101760ea f   libcmt:winapinls.obj
 0001:00175136       ___wcsnicmp_ascii          10176136 f   libcmt:winapinls.obj
 0001:001751b0       __trandisp1                101761b0 f   libcmt:87disp.obj
 0001:00175217       __trandisp2                10176217 f   libcmt:87disp.obj
 0001:001752a3       __rttospopde               101762a3     libcmt:87disp.obj
 0001:001752a8       __rttospop                 101762a8     libcmt:87disp.obj
 0001:001752aa       __rtnospop                 101762aa     libcmt:87disp.obj
 0001:001752ac       __rttosnpop                101762ac     libcmt:87disp.obj
 0001:001752ad       __rtnospopde               101762ad     libcmt:87disp.obj
 0001:001752b4       __rtzeropop                101762b4     libcmt:87disp.obj
 0001:001752b6       __rtzeronpop               101762b6     libcmt:87disp.obj
 0001:001752bb       __rtonepop                 101762bb     libcmt:87disp.obj
 0001:001752bd       __rtonenpop                101762bd     libcmt:87disp.obj
 0001:001752c2       __tosnan1                  101762c2     libcmt:87disp.obj
 0001:001752ed       __nosnan2                  101762ed     libcmt:87disp.obj
 0001:001752ef       __tosnan2                  101762ef     libcmt:87disp.obj
 0001:00175317       __nan2                     10176317     libcmt:87disp.obj
 0001:00175356       __rtindfpop                10176356     libcmt:87disp.obj
 0001:00175358       __rtindfnpop               10176358     libcmt:87disp.obj
 0001:00175369       __rttosnpopde              10176369     libcmt:87disp.obj
 0001:00175373       __rtchsifneg               10176373     libcmt:87disp.obj
 0001:00175380       __startTwoArgErrorHandling 10176380 f   libcmt:genexcep.obj
 0001:00175397       __startOneArgErrorHandling 10176397 f   libcmt:genexcep.obj
 0001:001753e0       __twoToTOS                 101763e0 f   libcmt:common.obj
 0001:001753f5       __load_CW                  101763f5 f   libcmt:common.obj
 0001:0017540c       __convertTOStoQNaN         1017640c f   libcmt:common.obj
 0001:00175425       __fload_withFB             10176425 f   libcmt:common.obj
 0001:00175468       __checkTOS_withFB          10176468 f   libcmt:common.obj
 0001:0017547e       __fast_exit                1017647e f   libcmt:common.obj
 0001:0017548b       __math_exit                1017648b f   libcmt:common.obj
 0001:001754b5       __check_overflow_exit      101764b5 f   libcmt:common.obj
 0001:001754c9       __check_range_exit         101764c9 f   libcmt:common.obj
 0001:0017556c       __cfltcvt                  1017656c f   libcmt:cvt.obj
 0001:0017558d       __cfltcvt_l                1017658d f   libcmt:cvt.obj
 0001:00175613       __cftoa_l                  10176613 f   libcmt:cvt.obj
 0001:0017596f       __cftoe                    1017696f f   libcmt:cvt.obj
 0001:00175ade       __cftoe_l                  10176ade f   libcmt:cvt.obj
 0001:00175c98       __cftof_l                  10176c98 f   libcmt:cvt.obj
 0001:00175d59       __cftog_l                  10176d59 f   libcmt:cvt.obj
 0001:00175e58       __cropzeros                10176e58 f   libcmt:cvt.obj
 0001:00175e69       __cropzeros_l              10176e69 f   libcmt:cvt.obj
 0001:00175ee9       __fassign                  10176ee9 f   libcmt:cvt.obj
 0001:00175f01       __fassign_l                10176f01 f   libcmt:cvt.obj
 0001:00175f43       __forcdecpt                10176f43 f   libcmt:cvt.obj
 0001:00175f54       __forcdecpt_l              10176f54 f   libcmt:cvt.obj
 0001:00175fc8       __positive                 10176fc8 f   libcmt:cvt.obj
 0001:0017600a       __setdefaultprecision      1017700a f   libcmt:fp8.obj
 0001:00176031       __getbuf                   10177031 f   libcmt:_getbuf.obj
 0001:001760ff       __wsopen_helper            101770ff f   libcmt:wopen.obj
 0001:001761c8       __wsopen_nolock            101771c8 f   libcmt:wopen.obj
 0001:0017691b       __wsopen_s                 1017791b f   libcmt:wopen.obj
 0001:00176939       _wcsncmp                   10177939 f   libcmt:wcsncmp.obj
 0001:0017696f       __wcsnicmp                 1017796f f   libcmt:wcsnicmp.obj
 0001:00176a25       __wcsnicmp_l               10177a25 f   libcmt:wcsnicmp.obj
 0001:00176b1e       __VEC_memset               10177b1e f   libcmt:p4_memset.obj
 0001:00176be6       ___crt_atoflt_l            10177be6 f   libcmt:atodbl.obj
 0001:00176c8a       __atodbl_l                 10177c8a f   libcmt:atodbl.obj
 0001:00176d18       __atoflt_l                 10177d18 f   libcmt:atodbl.obj
 0001:00176d30       __allmul                   10177d30 f   libcmt:llmul.obj
 0001:00176d64       ___free_lconv_mon          10177d64 f   libcmt:initmon.obj
 0001:00176e60       ___init_monetary           10177e60 f   libcmt:initmon.obj
 0001:00177201       ___free_lconv_num          10178201 f   libcmt:initnum.obj
 0001:00177268       ___init_numeric            10178268 f   libcmt:initnum.obj
 0001:0017746e       ___free_lc_time            1017846e f   libcmt:inittime.obj
 0001:001777ee       ___init_time               101787ee f   libcmt:inittime.obj
 0001:0017805d       _localeconv                1017905d f   libcmt:lconv.obj
 0001:00178287       ___crtLCMapStringA         10179287 f   libcmt:a_map.obj
 0001:001783c5       ___crtGetStringTypeA       101793c5 f   libcmt:a_str.obj
 0001:00178405       ___pctype_func             10179405 f   libcmt:ctype.obj
 0001:0017842e       _memcmp                    1017942e f   libcmt:memcmp.obj
 0001:00179ba6       _wcscmp                    1017aba6 f   libcmt:wcscmp.obj
 0001:00179be4       _wcscspn                   1017abe4 f   libcmt:wcscspn.obj
 0001:00179c2f       _wcsnlen                   1017ac2f f   libcmt:wcslen_s.obj
 0001:00179c4e       _wcspbrk                   1017ac4e f   libcmt:wcspbrk.obj
 0001:0017a217       ___get_qualified_locale    1017b217 f   libcmt:getqloc.obj
 0001:0017aa01       ___get_qualified_locale_downlevel 1017ba01 f   libcmt:getqloc_downlevel.obj
 0001:0017ac1d       _iswctype                  1017bc1d f   libcmt:iswctype.obj
 0001:0017ac73       ___crtLCMapStringW         1017bc73 f   libcmt:w_map.obj
 0001:0017acb0       __alloca_probe_16          1017bcb0 f   libcmt:alloca16.obj
 0001:0017acc6       __alloca_probe_8           1017bcc6     libcmt:alloca16.obj
 0001:0017acdc       _strnlen                   1017bcdc f   libcmt:strlen_s.obj
 0001:0017acf7       ___wtomb_environ           1017bcf7 f   libcmt:wtombenv.obj
 0001:0017ad86       _calloc                    1017bd86 f   libcmt:calloc.obj
 0001:0017adc6       __mbsnbicoll               1017bdc6 f   libcmt:mbsnbico.obj
 0001:0017adde       __mbsnbicoll_l             1017bdde f   libcmt:mbsnbico.obj
 0001:0017aeee       __ismbblead                1017beee f   libcmt:ismbbyte.obj
 0001:0017af04       __fptrap                   1017bf04 f   libcmt:crt0fp.obj
 0001:0017af0d       ___termconout              1017bf0d f   libcmt:initcon.obj
 0001:0017af24       ___initconout              1017bf24 f   libcmt:initcon.obj
 0001:0017af43       __87except                 1017bf43 f   libcmt:87except.obj
 0001:0017b050       _strrchr                   1017c050 f   libcmt:strrchr.obj
 0001:0017b187       __fptostr                  1017c187 f   libcmt:_fptostr.obj
 0001:0017b237       ___dtold                   1017c237 f   libcmt:cfout.obj
 0001:0017b2ff       __fltout2                  1017c2ff f   libcmt:cfout.obj
 0001:0017b390       __alldvrm                  1017c390 f   libcmt:lldvrm.obj
 0001:0017b470       __aullshr                  1017c470 f   libcmt:ullshr.obj
 0001:0017b48f       __controlfp_s              1017c48f f   libcmt:contrlfp.obj
 0001:0017b4ec       __chsize_nolock            1017c4ec f   libcmt:chsize.obj
 0001:0017b6a2       __get_fmode                1017c6a2 f   libcmt:setmode.obj
 0001:0017b6cc       __setmode_nolock           1017c6cc f   libcmt:setmode.obj
 0001:0017b799       __fltin2                   1017c799 f   libcmt:cfin.obj
 0001:0017b840       __ld12tod                  1017c840 f   libcmt:intrncvt.obj
 0001:0017bdb2       __ld12tof                  1017cdb2 f   libcmt:intrncvt.obj
 0001:0017c324       ___strgtold12_l            1017d324 f   libcmt:strgtold.obj
 0001:0017cacc       __itow_s                   1017dacc f   libcmt:xtows.obj
 0001:0017cbe8       __wtol                     1017dbe8 f   libcmt:wtox.obj
 0001:0017cbfc       _wcschr                    1017dbfc f   libcmt:wcschr.obj
 0001:0017ccaa       ___crtsetenv               1017dcaa f   libcmt:setenv.obj
 0001:0017cfad       __strnicoll_l              1017dfad f   libcmt:strnicol.obj
 0001:0017d316       ___crtCompareStringA       1017e316 f   libcmt:a_cmp.obj
 0001:0017d359       _$I10_OUTPUT               1017e359 f   libcmt:x10fout.obj
 0001:0017ddd6       __control87                1017edd6 f i libcmt:ieee87.obj
 0001:0017e16f       ___mtold12                 1017f16f f   libcmt:mantold.obj
 0001:0017e530       _wcstol                    1017f530 f   libcmt:wcstol.obj
 0001:0017e548       __mbschr                   1017f548 f   libcmt:mbschr.obj
 0001:0017e55d       __mbschr_l                 1017f55d f   libcmt:mbschr.obj
 0001:0017e5fa       __wchartodigit             1017f5fa f   libcmt:wchtodig.obj
 0001:0017e7a0       _strchr                    1017f7a0 f   libcmt:strchr.obj
 0001:0017e80e       ___from_strstr_to_strchr   1017f80e     libcmt:strchr.obj
 0001:0017e8cc       _IsProcessorFeaturePresent@4 1017f8cc f   kernel32:KERNEL32.dll
 0001:0017e8d2       _RtlUnwind@16              1017f8d2 f   kernel32:KERNEL32.dll
 0001:0017e8d8       ?_Syserror_map@std@@YAPBDH@Z 1017f8d8 f   libcpmt:syserror.obj
 0001:0017e902       ?_Winerror_map@std@@YAPBDH@Z 1017f902 f   libcpmt:syserror.obj
 0001:0017e92c       ??0length_error@std@@QAE@ABV01@@Z 1017f92c f i libcpmt:xthrow.obj
 0001:0017e947       ??0logic_error@std@@QAE@ABV01@@Z 1017f947 f i libcpmt:xthrow.obj
 0001:0017e962       ??0out_of_range@std@@QAE@ABV01@@Z 1017f962 f i libcpmt:xthrow.obj
 0001:0017e97d       ??_Eout_of_range@std@@UAEPAXI@Z 1017f97d f i libcpmt:xthrow.obj
 0001:0017e97d       ??_Glength_error@std@@UAEPAXI@Z 1017f97d f i libcpmt:xthrow.obj
 0001:0017e97d       ??_Elength_error@std@@UAEPAXI@Z 1017f97d f i libcpmt:xthrow.obj
 0001:0017e97d       ??_Glogic_error@std@@UAEPAXI@Z 1017f97d f i libcpmt:xthrow.obj
 0001:0017e97d       ??_Gout_of_range@std@@UAEPAXI@Z 1017f97d f i libcpmt:xthrow.obj
 0001:0017e97d       ??_Elogic_error@std@@UAEPAXI@Z 1017f97d f i libcpmt:xthrow.obj
 0001:0017e99c       ?_Xbad_alloc@std@@YAXXZ    1017f99c f   libcpmt:xthrow.obj
 0001:0017e9cd       ?_Xlength_error@std@@YAXPBD@Z 1017f9cd f   libcpmt:xthrow.obj
 0001:0017e9fb       ?_Xout_of_range@std@@YAXPBD@Z 1017f9fb f   libcpmt:xthrow.obj
 0001:0017ea29       __Getcvt                   1017fa29 f   libcpmt:xwctomb.obj
 0001:0017ea92       ??0_Locimp@locale@std@@AAE@_N@Z 1017fa92 f i libcpmt:locale0.obj
 0001:0017eacf       ??1_Fac_node@std@@QAE@XZ   1017facf f i libcpmt:locale0.obj
 0001:0017eae4       ??1_Fac_tidy_reg_t@std@@QAE@XZ 1017fae4 f i libcpmt:locale0.obj
 0001:0017eb08       ??1_Locimp@locale@std@@MAE@XZ 1017fb08 f i libcpmt:locale0.obj
 0001:0017eb33       ??4?$_Yarn@D@std@@QAEAAV01@PBD@Z 1017fb33 f i libcpmt:locale0.obj
 0001:0017eb87       ??_G_Locimp@locale@std@@MAEPAXI@Z 1017fb87 f i libcpmt:locale0.obj
 0001:0017eb87       ??_E_Locimp@locale@std@@MAEPAXI@Z 1017fb87 f i libcpmt:locale0.obj
 0001:0017eba6       ?_Facet_Register@std@@YAXPAV_Facet_base@1@@Z 1017fba6 f   libcpmt:locale0.obj
 0001:0017ebce       ?_Getgloballocale@locale@std@@CAPAV_Locimp@12@XZ 1017fbce f   libcpmt:locale0.obj
 0001:0017ebd4       ?_Init@locale@std@@CAPAV_Locimp@12@_N@Z 1017fbd4 f   libcpmt:locale0.obj
 0001:0017ec50       ?_Locimp_dtor@_Locimp@locale@std@@CAXPAV123@@Z 1017fc50 f   libcpmt:locale0.obj
 0001:0017eca9       ?_Locinfo_ctor@_Locinfo@std@@SAXPAV12@PBD@Z 1017fca9 f   libcpmt:locale0.obj
 0001:0017ecf4       ?_Locinfo_dtor@_Locinfo@std@@SAXPAV12@@Z 1017fcf4 f   libcpmt:locale0.obj
 0001:0017ed16       ?_New_Locimp@_Locimp@locale@std@@CAPAV123@_N@Z 1017fd16 f   libcpmt:locale0.obj
 0001:0017ed35       ?_Setgloballocale@locale@std@@CAXPAX@Z 1017fd35 f   libcpmt:locale0.obj
 0001:0017ed5d       __Deletegloballocale       1017fd5d f   libcpmt:locale0.obj
 0001:0017eda8       ??0_Init_locks@std@@QAE@XZ 1017fda8 f   libcpmt:xlock.obj
 0001:0017edd6       ??0_Lockit@std@@QAE@H@Z    1017fdd6 f   libcpmt:xlock.obj
 0001:0017ee09       ??1_Init_locks@std@@QAE@XZ 1017fe09 f   libcpmt:xlock.obj
 0001:0017ee31       ??1_Lockit@std@@QAE@XZ     1017fe31 f   libcpmt:xlock.obj
 0001:0017ee55       ?uncaught_exception@std@@YA_NXZ 1017fe55 f   libcpmt:uncaught.obj
 0001:0017ee5a       __Getctype                 1017fe5a f   libcpmt:_tolower.obj
 0001:0017eec6       __Tolower                  1017fec6 f   libcpmt:_tolower.obj
 0001:0017efc5       __Toupper                  1017ffc5 f   libcpmt:_toupper.obj
 0001:0017f0c4       ?_Callfns@ios_base@std@@AAEXW4event@12@@Z 101800c4 f i libcpmt:ios.obj
 0001:0017f0e9       ?_Ios_base_dtor@ios_base@std@@CAXPAV12@@Z 101800e9 f   libcpmt:ios.obj
 0001:0017f126       ?_Tidy@ios_base@std@@AAEXXZ 10180126 f i libcpmt:ios.obj
 0001:0017f168       ??1_Init_atexit@@QAE@XZ    10180168 f i libcpmt:iosptrs.obj
 0001:0017f191       ?_Atexit@@YAXP6AXXZ@Z      10180191 f   libcpmt:iosptrs.obj
 0001:0017f1bf       __Mtxdst                   101801bf f   libcpmt:xmtx.obj
 0001:0017f1cd       __Mtxinit                  101801cd f   libcpmt:xmtx.obj
 0001:0017f1e4       __Mtxlock                  101801e4 f   libcpmt:xmtx.obj
 0001:0017f1f2       __Mtxunlock                101801f2 f   libcpmt:xmtx.obj
 0001:0017f200       __tmpfile_helper           10180200 f   libcmt:tmpfile.obj
 0001:0017f394       __tmpnam_helper            10180394 f   libcmt:tmpfile.obj
 0001:0017f6aa       _tmpfile                   101806aa f   libcmt:tmpfile.obj
 0001:0017f6c6       _tmpnam                    101806c6 f   libcmt:tmpfile.obj
 0001:0017f6ed       __atof_l                   101806ed f   libcmt:atof.obj
 0001:0017f78b       _atof                      1018078b f   libcmt:atof.obj
 0001:0017f79c       _sscanf                    1018079c f   libcmt:sscanf.obj
 0001:0017f82d       _rewind                    1018082d f   libcmt:rewind.obj
 0001:0017f8f0       _qsort                     101808f0 f   libcmt:qsort.obj
 0001:0017fd00       _strncpy                   10180d00 f   libcmt:strncpy.obj
 0001:0017fe24       _strtok                    10180e24 f   libcmt:strtok.obj
 0001:0017feeb       __get_sys_err_msg          10180eeb f i libcmt:strerror.obj
 0001:0017ff11       _strerror                  10180f11 f   libcmt:strerror.obj
 0001:0017ff80       _modf                      10180f80 f   libcmt:modf_pentium4.obj
 0001:0017ffc0       __modf_pentium4            10180fc0 f   libcmt:modf_pentium4.obj
 0001:001800c8       _remove                    101810c8 f   libcmt:unlink.obj
 0001:0018010a       __vsnprintf                1018110a f   libcmt:vsnprint.obj
 0001:00180125       __vsnprintf_l              10181125 f   libcmt:vsnprint.obj
 0001:001801d1       _bsearch                   101811d1 f   libcmt:bsearch.obj
 0001:00180275       _rand                      10181275 f   libcmt:rand.obj
 0001:001802a0       _strcspn                   101812a0 f   libcmt:strcspn.obj
 0001:001802e6       __aligned_free             101812e6 f   libcmt:align.obj
 0001:001802fe       __aligned_malloc           101812fe f   libcmt:align.obj
 0001:00180313       __aligned_offset_malloc    10181313 f   libcmt:align.obj
 0001:001803af       __ungetc_nolock            101813af f   libcmt:ungetc.obj
 0001:0018048f       __EH_epilog3               1018148f f   libcmt:ehprolg3.obj
 0001:001804a3       __EH_prolog3               101814a3 f   libcmt:ehprolg3.obj
 0001:001804d6       __EH_prolog3_catch         101814d6 f   libcmt:ehprolg3.obj
 0001:001805dc       ?_CallCatchBlock2@@YAPAXPAUEHRegistrationNode@@PBU_s_FuncInfo@@PAXHK@Z 101815dc f   libcmt:_trnsctrl_.obj
 0001:0018063c       ?_CallMemberFunction2@@YGXPAX00H@Z 1018163c f   libcmt:_trnsctrl_.obj
 0001:0018063c       ?_CallMemberFunction1@@YGXPAX00@Z 1018163c f   libcmt:_trnsctrl_.obj
 0001:0018063c       ?_CallMemberFunction0@@YGXPAX0@Z 1018163c f   libcmt:_trnsctrl_.obj
 0001:00180643       ?_CallSETranslator@@YAHPAUEHExceptionRecord@@PAUEHRegistrationNode@@PAX2PBU_s_FuncInfo@@H1@Z 10181643 f   libcmt:_trnsctrl_.obj
 0001:0018071a       ?_GetRangeOfTrysToCheck@@YAPBU_s_TryBlockMapEntry@@PBU_s_FuncInfo@@HHPAI1@Z 1018171a f   libcmt:_trnsctrl_.obj
 0001:00180798       ?_JumpToContinuation@@YGXPAXPAUEHRegistrationNode@@@Z 10181798 f   libcmt:_trnsctrl_.obj
 0001:001807ca       ?_UnwindNestedFrames@@YGXPAUEHRegistrationNode@@PAUEHExceptionRecord@@@Z 101817ca f   libcmt:_trnsctrl_.obj
 0001:0018081f       __CreateFrameInfo          1018181f f   libcmt:_trnsctrl_.obj
 0001:00180849       __FindAndUnlinkFrame       10181849 f   libcmt:_trnsctrl_.obj
 0001:00180899       __IsExceptionObjectToBeDestroyed 10181899 f   libcmt:_trnsctrl_.obj
 0001:001808c2       ___CxxFrameHandler3        101818c2 f   libcmt:_trnsctrl_.obj
 0001:001808f8       _setlocale                 101818f8 f   libcmt:setlocal.obj
 0001:00180adc       ___DestructExceptionObject 10181adc f   libcmt:frame.obj
 0001:00180b67       ??0bad_exception@std@@QAE@ABV01@@Z 10181b67 f i libcmt:frame.obj
 0001:00180b82       ??1bad_exception@std@@UAE@XZ 10181b82 f i libcmt:frame.obj
 0001:00180b8d       ??_Ebad_exception@std@@UAEPAXI@Z 10181b8d f i libcmt:frame.obj
 0001:00180b8d       ??_Gbad_exception@std@@UAEPAXI@Z 10181b8d f i libcmt:frame.obj
 0001:001813c1       ?__uncaught_exception@@YA_NXZ 101823c1 f   libcmt:frame.obj
 0001:001813d2       ___AdjustPointer           101823d2 f   libcmt:frame.obj
 0001:001813f7       ___BuildCatchObject        101823f7 f   libcmt:frame.obj
 0001:00181485       ___BuildCatchObjectHelper  10182485 f   libcmt:frame.obj
 0001:00181647       ___FrameUnwindFilter       10182647 f   libcmt:frame.obj
 0001:00181695       ___FrameUnwindToState      10182695 f   libcmt:frame.obj
 0001:0018176e       ___InternalCxxFrameHandler 1018276e f   libcmt:frame.obj
 0001:0018184f       ___TypeMatch               1018284f f   libcmt:frame.obj
 0001:001818b6       __wcsdup                   101828b6 f   libcmt:wcsdup.obj
 0001:00181910       _memchr                    10182910 f   libcmt:memchr.obj
 0001:00181a5f       __input_l                  10182a5f f   libcmt:input.obj
 0001:00182bdc       __getpid                   10183bdc f   libcmt:getpid.obj
 0001:00182be2       __access_s                 10183be2 f   libcmt:access.obj
 0001:00182c2c       _strcat_s                  10183c2c f   libcmt:strcat_s.obj
 0001:00182c8f       __ultoa_s                  10183c8f f   libcmt:xtoas.obj
 0001:00182d7c       __mbsrchr                  10183d7c f   libcmt:mbsrchr.obj
 0001:00182d91       __mbsrchr_l                10183d91 f   libcmt:mbsrchr.obj
 0001:00182e22       __rmtmp                    10183e22 f   libcmt:rmtmp.obj
 0001:00182ecf       ___sys_errlist             10183ecf f   libcmt:syserr.obj
 0001:00182ed5       ___sys_nerr                10183ed5 f   libcmt:syserr.obj
 0001:00182edb       __sse2_mathfcns_init       10183edb f   libcmt:mathfcns.obj
 0001:00182eea       __modf_default             10183eea f   libcmt:modf.obj
 0001:00183003       ___libm_error_support      10184003 f   libcmt:libm_error.obj
 0001:001832eb       __wremove                  101842eb f   libcmt:wunlink.obj
 0001:00183319       __copysign                 10184319 f   libcmt:ieeemisc.obj
 0001:00183341       __fpclass                  10184341 f   libcmt:ieeemisc.obj
 0001:001833e0       __CallSettingFrame@12      101843e0 f   libcmt:lowhelpr.obj
 0001:00183407       __NLG_Return               10184407     libcmt:lowhelpr.obj
 0001:0018342c       ?_ValidateWrite@@YAHPAXI@Z 1018442c f   libcmt:validate.obj
 0001:0018342c       ?_ValidateExecute@@YAHP6GHXZ@Z 1018442c f   libcmt:validate.obj
 0001:0018342c       ?_ValidateRead@@YAHPBXI@Z  1018442c f   libcmt:validate.obj
 0001:0018343b       __waccess_s                1018443b f   libcmt:waccess.obj
 0001:001834d9       __frnd                     101844d9 f   libcmt:frnd.obj
 0001:001834f0       _atan2                     101844f0 f   libcmt:87ctriga.obj
 0001:001834fa       __CIatan2                  101844fa f   libcmt:87ctriga.obj
 0001:00183861       ___RTDynamicCast           10184861 f   libcmt:rtti.obj
 0001:00183940       __allshl                   10184940 f   libcmt:llshl.obj
